
freertos_motor.elf:     file format elf32-littlearm

Sections:
Idx Name          Size      VMA       LMA       File off  Algn
  0 .text         00005a18  08000000  0c000000  00008000  2**4
                  CONTENTS, ALLOC, LOAD, READONLY, CODE
  1 Stack         00000800  1ffe8000  1ffe8000  00018000  2**0
                  ALLOC
  2 .data         000000b8  1ffe8800  0c005a18  00010800  2**2
                  CONTENTS, ALLOC, LOAD, DATA
  3 .bss          000001d4  1ffe88b8  0c005ad0  000108b8  2**2
                  ALLOC
  4 .no_init      00000014  2003ffc0  2003ffc0  00017fc0  2**2
                  ALLOC
  5 .debug_aranges 00001100  00000000  00000000  000108b8  2**3
                  CONTENTS, READONLY, DEBUGGING
  6 .debug_info   000167e7  00000000  00000000  000119b8  2**0
                  CONTENTS, READONLY, DEBUGGING
  7 .debug_abbrev 000033ee  00000000  00000000  0002819f  2**0
                  CONTENTS, READONLY, DEBUGGING
  8 .debug_line   00007e2c  00000000  00000000  0002b58d  2**0
                  CONTENTS, READONLY, DEBUGGING
  9 .debug_frame  000048a0  00000000  00000000  000333bc  2**2
                  CONTENTS, READONLY, DEBUGGING
 10 .debug_str    00009812  00000000  00000000  00037c5c  2**0
                  CONTENTS, READONLY, DEBUGGING
 11 .debug_loc    00009107  00000000  00000000  0004146e  2**0
                  CONTENTS, READONLY, DEBUGGING
 12 .debug_ranges 00000f10  00000000  00000000  0004a575  2**0
                  CONTENTS, READONLY, DEBUGGING
 13 .build_attributes 0000081d  00000000  00000000  0004b485  2**0
                  CONTENTS, READONLY

Disassembly of section .text:

08000000 <__Vectors>:
 8000000:	00 88 fe 1f 01 02 00 08 99 02 00 08 99 02 00 08     ................
 8000010:	99 02 00 08 99 02 00 08 99 02 00 08 00 00 00 00     ................
	...
 800002c:	51 26 00 08 99 02 00 08 00 00 00 00 91 28 00 08     Q&...........(..
 800003c:	01 29 00 08 99 02 00 08 5d 55 00 08 99 02 00 08     .)......]U......
 800004c:	75 55 00 08 8d 55 00 08 a5 55 00 08 99 02 00 08     uU...U...U......
 800005c:	99 02 00 08 99 02 00 08 00 00 00 00 00 00 00 00     ................
 800006c:	00 00 00 00 99 02 00 08 00 00 00 00 99 02 00 08     ................
 800007c:	99 02 00 08 99 02 00 08 99 02 00 08 99 02 00 08     ................
 800008c:	99 02 00 08 99 02 00 08 99 02 00 08 99 02 00 08     ................
 800009c:	99 02 00 08 99 02 00 08 99 02 00 08 99 02 00 08     ................
 80000ac:	99 02 00 08 99 02 00 08 99 02 00 08 99 02 00 08     ................
 80000bc:	99 02 00 08 99 02 00 08 99 02 00 08 99 02 00 08     ................
 80000cc:	99 02 00 08 99 02 00 08 99 02 00 08 99 02 00 08     ................
 80000dc:	99 02 00 08 99 02 00 08 99 02 00 08 99 02 00 08     ................
 80000ec:	99 02 00 08 99 02 00 08 99 02 00 08 99 02 00 08     ................
 80000fc:	99 02 00 08 99 02 00 08 99 02 00 08 99 02 00 08     ................
 800010c:	99 02 00 08 99 02 00 08 99 02 00 08 99 02 00 08     ................
 800011c:	99 02 00 08 99 02 00 08 99 02 00 08 99 02 00 08     ................
 800012c:	99 02 00 08 99 02 00 08 99 02 00 08 99 02 00 08     ................
 800013c:	99 02 00 08 99 02 00 08 99 02 00 08 99 02 00 08     ................
 800014c:	99 02 00 08 99 02 00 08 99 02 00 08 99 02 00 08     ................
 800015c:	99 02 00 08 00 00 00 00 00 00 00 00 00 00 00 00     ................
 800016c:	00 00 00 00 99 02 00 08 99 02 00 08 99 02 00 08     ................
 800017c:	99 02 00 08 99 02 00 08 99 02 00 08 99 02 00 08     ................
 800018c:	99 02 00 08 99 02 00 08 99 02 00 08 99 02 00 08     ................
 800019c:	99 02 00 08 99 02 00 08 99 02 00 08 99 02 00 08     ................
 80001ac:	99 02 00 08 99 02 00 08 99 02 00 08 99 02 00 08     ................
 80001bc:	99 02 00 08 99 02 00 08 99 02 00 08 99 23 00 08     .............#..
 80001cc:	89 23 00 08 99 02 00 08 99 02 00 08 99 02 00 08     .#..............
 80001dc:	00 00 00 00 99 02 00 08 99 02 00 08 99 02 00 08     ................
 80001ec:	99 02 00 08 99 02 00 08 00 00 00 00 99 02 00 08     ................
 80001fc:	00 00 00 00                                         ....

08000200 <Reset_Handler>:
/* Reset Handler */
    .thumb_func
    .globl  Reset_Handler
    .type   Reset_Handler, %function
Reset_Handler:
    ldr sp,=__initial_sp
 8000200:	f8df d074 	ldr.w	sp, [pc, #116]	; 8000278 <__zero_table_end__>

#ifndef __SKIP_SYSTEM_INIT
    ldr  r0, =SystemInit
 8000204:	481d      	ldr	r0, [pc, #116]	; (800027c <__zero_table_end__+0x4>)
    blx  r0
 8000206:	4780      	blx	r0
 *    offset 4: VMA of start of a section to copy to
 *    offset 8: size of the section to copy. Must be multiply of 4
 *
 *  All addresses must be aligned to 4 bytes boundary.
 */
	ldr	r4, =__copy_table_start__
 8000208:	4c1d      	ldr	r4, [pc, #116]	; (8000280 <__zero_table_end__+0x8>)
	ldr	r5, =__copy_table_end__
 800020a:	4d1e      	ldr	r5, [pc, #120]	; (8000284 <__zero_table_end__+0xc>)

.L_loop0:
	cmp	r4, r5
 800020c:	42ac      	cmp	r4, r5
	bge	.L_loop0_done
 800020e:	da09      	bge.n	8000224 <Reset_Handler+0x24>
	ldr	r1, [r4]
 8000210:	6821      	ldr	r1, [r4, #0]
	ldr	r2, [r4, #4]
 8000212:	6862      	ldr	r2, [r4, #4]
	ldr	r3, [r4, #8]
 8000214:	68a3      	ldr	r3, [r4, #8]

.L_loop0_0:
	subs	r3, #4
 8000216:	3b04      	subs	r3, #4
	ittt	ge
 8000218:	bfa2      	ittt	ge
	ldrge	r0, [r1, r3]
 800021a:	58c8      	ldrge	r0, [r1, r3]
	strge	r0, [r2, r3]
 800021c:	50d0      	strge	r0, [r2, r3]
	bge	.L_loop0_0
 800021e:	e7fa      	bge.n	8000216 <Reset_Handler+0x16>

	adds	r4, #12
 8000220:	340c      	adds	r4, #12
	b	.L_loop0
 8000222:	e7f3      	b.n	800020c <Reset_Handler+0xc>
 *    offset 4: Size of this BSS section. Must be multiply of 4
 *
 *  Define __SKIP_BSS_CLEAR to disable zeroing uninitialzed data in startup.
 */    
#ifndef __SKIP_BSS_CLEAR
	ldr	r3, =__zero_table_start__
 8000224:	4b18      	ldr	r3, [pc, #96]	; (8000288 <__zero_table_end__+0x10>)
	ldr	r4, =__zero_table_end__
 8000226:	4c19      	ldr	r4, [pc, #100]	; (800028c <__zero_table_end__+0x14>)

.L_loop2:
	cmp	r3, r4
 8000228:	42a3      	cmp	r3, r4
	bge	.L_loop2_done
 800022a:	da08      	bge.n	800023e <Reset_Handler+0x3e>
	ldr	r1, [r3]
 800022c:	6819      	ldr	r1, [r3, #0]
	ldr	r2, [r3, #4]
 800022e:	685a      	ldr	r2, [r3, #4]
	movs	r0, 0
 8000230:	2000      	movs	r0, #0

.L_loop2_0:
	subs	r2, #4
 8000232:	3a04      	subs	r2, #4
	itt	ge
 8000234:	bfa4      	itt	ge
	strge	r0, [r1, r2]
 8000236:	5088      	strge	r0, [r1, r2]
	bge	.L_loop2_0
 8000238:	e7fb      	bge.n	8000232 <Reset_Handler+0x32>

	adds	r3, #8
 800023a:	3308      	adds	r3, #8
	b	.L_loop2
 800023c:	e7f4      	b.n	8000228 <Reset_Handler+0x28>
.L_loop2_done:    
#endif /* __SKIP_BSS_CLEAR */
   
#ifndef __SKIP_LIBC_INIT_ARRAY
    ldr  r0, =__libc_init_array
 800023e:	4814      	ldr	r0, [pc, #80]	; (8000290 <__zero_table_end__+0x18>)
    blx  r0
 8000240:	4780      	blx	r0
#endif

    ldr  r0, =main
 8000242:	4814      	ldr	r0, [pc, #80]	; (8000294 <__zero_table_end__+0x1c>)
    blx  r0
 8000244:	4780      	blx	r0
	...

08000248 <__copy_table_start__>:
 8000248:	0c005a18 	.word	0x0c005a18
 800024c:	1ffe8800 	.word	0x1ffe8800
 8000250:	000000b8 	.word	0x000000b8
 8000254:	0c005a18 	.word	0x0c005a18
 8000258:	1ffe8800 	.word	0x1ffe8800
 800025c:	00000000 	.word	0x00000000

08000260 <__copy_table_end__>:
 8000260:	1ffe88b8 	.word	0x1ffe88b8
 8000264:	000001d4 	.word	0x000001d4
 8000268:	20000000 	.word	0x20000000
 800026c:	00000000 	.word	0x00000000
 8000270:	20000000 	.word	0x20000000
 8000274:	00000000 	.word	0x00000000

08000278 <__zero_table_end__>:
/* Reset Handler */
    .thumb_func
    .globl  Reset_Handler
    .type   Reset_Handler, %function
Reset_Handler:
    ldr sp,=__initial_sp
 8000278:	1ffe8800 	.word	0x1ffe8800

#ifndef __SKIP_SYSTEM_INIT
    ldr  r0, =SystemInit
 800027c:	08000351 	.word	0x08000351
 *    offset 4: VMA of start of a section to copy to
 *    offset 8: size of the section to copy. Must be multiply of 4
 *
 *  All addresses must be aligned to 4 bytes boundary.
 */
	ldr	r4, =__copy_table_start__
 8000280:	08000248 	.word	0x08000248
	ldr	r5, =__copy_table_end__
 8000284:	08000260 	.word	0x08000260
 *    offset 4: Size of this BSS section. Must be multiply of 4
 *
 *  Define __SKIP_BSS_CLEAR to disable zeroing uninitialzed data in startup.
 */    
#ifndef __SKIP_BSS_CLEAR
	ldr	r3, =__zero_table_start__
 8000288:	08000260 	.word	0x08000260
	ldr	r4, =__zero_table_end__
 800028c:	08000278 	.word	0x08000278
	b	.L_loop2
.L_loop2_done:    
#endif /* __SKIP_BSS_CLEAR */
   
#ifndef __SKIP_LIBC_INIT_ARRAY
    ldr  r0, =__libc_init_array
 8000290:	08005635 	.word	0x08005635
    blx  r0
#endif

    ldr  r0, =main
 8000294:	08005465 	.word	0x08005465

08000298 <BusFault_Handler>:
	.align	1
    .thumb_func
    .weak Default_Handler
    .type Default_Handler, %function
Default_Handler:
    b .
 8000298:	e7fe      	b.n	8000298 <BusFault_Handler>
	...

0800029c <TLE94112EL_SetHBRegdata>:
#include "base.h"

int32_t TLE94112EL_SetHBRegdata(const TLE94112EL_t *const handler, uint8_t TLE94112EL_HB_ACT_X_CTRL, uint8_t regdata)
{
 800029c:	b580      	push	{r7, lr}
 800029e:	b084      	sub	sp, #16
 80002a0:	af00      	add	r7, sp, #0
 80002a2:	6078      	str	r0, [r7, #4]
 80002a4:	460b      	mov	r3, r1
 80002a6:	70fb      	strb	r3, [r7, #3]
 80002a8:	4613      	mov	r3, r2
 80002aa:	70bb      	strb	r3, [r7, #2]
  if ((TLE94112EL_HB_ACT_X_CTRL >= 0x04)|(TLE94112EL_HB_ACT_X_CTRL <= 0x00))
 80002ac:	78fb      	ldrb	r3, [r7, #3]
 80002ae:	2b03      	cmp	r3, #3
 80002b0:	bf8c      	ite	hi
 80002b2:	2301      	movhi	r3, #1
 80002b4:	2300      	movls	r3, #0
 80002b6:	b2da      	uxtb	r2, r3
 80002b8:	78fb      	ldrb	r3, [r7, #3]
 80002ba:	2b00      	cmp	r3, #0
 80002bc:	bf0c      	ite	eq
 80002be:	2301      	moveq	r3, #1
 80002c0:	2300      	movne	r3, #0
 80002c2:	b2db      	uxtb	r3, r3
 80002c4:	4313      	orrs	r3, r2
 80002c6:	b2db      	uxtb	r3, r3
 80002c8:	2b00      	cmp	r3, #0
 80002ca:	d002      	beq.n	80002d2 <TLE94112EL_SetHBRegdata+0x36>
  {
	return -1;
 80002cc:	f04f 33ff 	mov.w	r3, #4294967295
 80002d0:	e02d      	b.n	800032e <TLE94112EL_SetHBRegdata+0x92>

  uint8_t tx_data[2];
  uint8_t rx_data[2];
  uint8_t addr;

	switch(TLE94112EL_HB_ACT_X_CTRL){
 80002d2:	78fb      	ldrb	r3, [r7, #3]
 80002d4:	2b02      	cmp	r3, #2
 80002d6:	d006      	beq.n	80002e6 <TLE94112EL_SetHBRegdata+0x4a>
 80002d8:	2b03      	cmp	r3, #3
 80002da:	d007      	beq.n	80002ec <TLE94112EL_SetHBRegdata+0x50>
 80002dc:	2b01      	cmp	r3, #1
 80002de:	d108      	bne.n	80002f2 <TLE94112EL_SetHBRegdata+0x56>

		case 1:
			addr = TLE94112EL_HB_ACT_1_CTRL;
 80002e0:	2303      	movs	r3, #3
 80002e2:	73fb      	strb	r3, [r7, #15]
			break;
 80002e4:	e005      	b.n	80002f2 <TLE94112EL_SetHBRegdata+0x56>

		case 2:
			addr = TLE94112EL_HB_ACT_2_CTRL;
 80002e6:	2343      	movs	r3, #67	; 0x43
 80002e8:	73fb      	strb	r3, [r7, #15]
			break;
 80002ea:	e002      	b.n	80002f2 <TLE94112EL_SetHBRegdata+0x56>

		case 3:
			addr = TLE94112EL_HB_ACT_3_CTRL;
 80002ec:	2323      	movs	r3, #35	; 0x23
 80002ee:	73fb      	strb	r3, [r7, #15]
			break;
 80002f0:	bf00      	nop

	}

	//read
	tx_data[0] = addr;
 80002f2:	7bfb      	ldrb	r3, [r7, #15]
 80002f4:	733b      	strb	r3, [r7, #12]
	tx_data[1] = 0xff;
 80002f6:	23ff      	movs	r3, #255	; 0xff
 80002f8:	737b      	strb	r3, [r7, #13]
	handler->spi_transfer(tx_data, rx_data);
 80002fa:	687b      	ldr	r3, [r7, #4]
 80002fc:	689b      	ldr	r3, [r3, #8]
 80002fe:	f107 010c 	add.w	r1, r7, #12
 8000302:	f107 0208 	add.w	r2, r7, #8
 8000306:	4608      	mov	r0, r1
 8000308:	4611      	mov	r1, r2
 800030a:	4798      	blx	r3

	  //write
	  tx_data[0] = addr | 0x80;
 800030c:	7bfb      	ldrb	r3, [r7, #15]
 800030e:	f063 037f 	orn	r3, r3, #127	; 0x7f
 8000312:	b2db      	uxtb	r3, r3
 8000314:	733b      	strb	r3, [r7, #12]
	  tx_data[1] = regdata;
 8000316:	78bb      	ldrb	r3, [r7, #2]
 8000318:	737b      	strb	r3, [r7, #13]

	  handler->spi_transfer(tx_data, rx_data);
 800031a:	687b      	ldr	r3, [r7, #4]
 800031c:	689b      	ldr	r3, [r3, #8]
 800031e:	f107 010c 	add.w	r1, r7, #12
 8000322:	f107 0208 	add.w	r2, r7, #8
 8000326:	4608      	mov	r0, r1
 8000328:	4611      	mov	r1, r2
 800032a:	4798      	blx	r3





  return rx_data[0];
 800032c:	7a3b      	ldrb	r3, [r7, #8]
}
 800032e:	4618      	mov	r0, r3
 8000330:	3710      	adds	r7, #16
 8000332:	46bd      	mov	sp, r7
 8000334:	bd80      	pop	{r7, pc}
 8000336:	bf00      	nop

08000338 <TLE94112EL_Enable>:

  return rx_data[0];
}

int32_t TLE94112EL_Enable(const TLE94112EL_t *const handler)
{
 8000338:	b580      	push	{r7, lr}
 800033a:	b082      	sub	sp, #8
 800033c:	af00      	add	r7, sp, #0
 800033e:	6078      	str	r0, [r7, #4]
  handler->enable();
 8000340:	687b      	ldr	r3, [r7, #4]
 8000342:	681b      	ldr	r3, [r3, #0]
 8000344:	4798      	blx	r3
  return 0;
 8000346:	2300      	movs	r3, #0
}
 8000348:	4618      	mov	r0, r3
 800034a:	3708      	adds	r7, #8
 800034c:	46bd      	mov	sp, r7
 800034e:	bd80      	pop	{r7, pc}

08000350 <SystemInit>:
/*******************************************************************************
 * API IMPLEMENTATION
 *******************************************************************************/

__WEAK void SystemInit(void)
{
 8000350:	b598      	push	{r3, r4, r7, lr}
 8000352:	af00      	add	r7, sp, #0
  memcpy(g_chipid, CHIPID_LOC, 16);
 8000354:	4a05      	ldr	r2, [pc, #20]	; (800036c <SystemInit+0x1c>)
 8000356:	f04f 5300 	mov.w	r3, #536870912	; 0x20000000
 800035a:	4614      	mov	r4, r2
 800035c:	cb0f      	ldmia	r3, {r0, r1, r2, r3}
 800035e:	e884 000f 	stmia.w	r4, {r0, r1, r2, r3}
  
  SystemCoreSetup();
 8000362:	f004 fe43 	bl	8004fec <SystemCoreSetup>
  SystemCoreClockSetup(); 
 8000366:	f004 feab 	bl	80050c0 <SystemCoreClockSetup>
}
 800036a:	bd98      	pop	{r3, r4, r7, pc}
 800036c:	2003ffc4 	.word	0x2003ffc4

08000370 <SystemCoreClockUpdate>:

  SystemCoreClockUpdate();
}

__WEAK void SystemCoreClockUpdate(void)
{
 8000370:	b580      	push	{r7, lr}
 8000372:	b084      	sub	sp, #16
 8000374:	af00      	add	r7, sp, #0
  uint32_t pdiv;
  uint32_t ndiv;
  uint32_t kdiv;
  uint32_t temp;

  if (SCU_CLK->SYSCLKCR & SCU_CLK_SYSCLKCR_SYSSEL_Msk)
 8000376:	4b2f      	ldr	r3, [pc, #188]	; (8000434 <SystemCoreClockUpdate+0xc4>)
 8000378:	68db      	ldr	r3, [r3, #12]
 800037a:	f403 3380 	and.w	r3, r3, #65536	; 0x10000
 800037e:	2b00      	cmp	r3, #0
 8000380:	d03e      	beq.n	8000400 <SystemCoreClockUpdate+0x90>
  {
    /* fPLL is clock source for fSYS */
    if(SCU_PLL->PLLCON2 & SCU_PLL_PLLCON2_PINSEL_Msk)
 8000382:	4b2d      	ldr	r3, [pc, #180]	; (8000438 <SystemCoreClockUpdate+0xc8>)
 8000384:	68db      	ldr	r3, [r3, #12]
 8000386:	f003 0301 	and.w	r3, r3, #1
 800038a:	2b00      	cmp	r3, #0
 800038c:	d002      	beq.n	8000394 <SystemCoreClockUpdate+0x24>
    {
      /* PLL input clock is the backup clock (fOFI) */
      temp = OFI_FREQUENCY;
 800038e:	4b2b      	ldr	r3, [pc, #172]	; (800043c <SystemCoreClockUpdate+0xcc>)
 8000390:	60fb      	str	r3, [r7, #12]
 8000392:	e002      	b.n	800039a <SystemCoreClockUpdate+0x2a>
    }
    else
    {
      /* PLL input clock is the high performance osicllator (fOSCHP) */
      temp = OSCHP_GetFrequency();
 8000394:	f004 fe8a 	bl	80050ac <OSCHP_GetFrequency>
 8000398:	60f8      	str	r0, [r7, #12]
    }

    /* check if PLL is locked */
    if (SCU_PLL->PLLSTAT & SCU_PLL_PLLSTAT_VCOLOCK_Msk)
 800039a:	4b27      	ldr	r3, [pc, #156]	; (8000438 <SystemCoreClockUpdate+0xc8>)
 800039c:	681b      	ldr	r3, [r3, #0]
 800039e:	f003 0304 	and.w	r3, r3, #4
 80003a2:	2b00      	cmp	r3, #0
 80003a4:	d020      	beq.n	80003e8 <SystemCoreClockUpdate+0x78>
    {
      /* PLL normal mode */
      /* read back divider settings */
      pdiv = ((SCU_PLL->PLLCON1 & SCU_PLL_PLLCON1_PDIV_Msk) >> SCU_PLL_PLLCON1_PDIV_Pos) + 1;
 80003a6:	4b24      	ldr	r3, [pc, #144]	; (8000438 <SystemCoreClockUpdate+0xc8>)
 80003a8:	689b      	ldr	r3, [r3, #8]
 80003aa:	f003 6370 	and.w	r3, r3, #251658240	; 0xf000000
 80003ae:	0e1b      	lsrs	r3, r3, #24
 80003b0:	3301      	adds	r3, #1
 80003b2:	60bb      	str	r3, [r7, #8]
      ndiv = ((SCU_PLL->PLLCON1 & SCU_PLL_PLLCON1_NDIV_Msk) >> SCU_PLL_PLLCON1_NDIV_Pos) + 1;
 80003b4:	4b20      	ldr	r3, [pc, #128]	; (8000438 <SystemCoreClockUpdate+0xc8>)
 80003b6:	689b      	ldr	r3, [r3, #8]
 80003b8:	f403 43fe 	and.w	r3, r3, #32512	; 0x7f00
 80003bc:	0a1b      	lsrs	r3, r3, #8
 80003be:	3301      	adds	r3, #1
 80003c0:	607b      	str	r3, [r7, #4]
      kdiv = ((SCU_PLL->PLLCON1 & SCU_PLL_PLLCON1_K2DIV_Msk) >> SCU_PLL_PLLCON1_K2DIV_Pos) + 1;
 80003c2:	4b1d      	ldr	r3, [pc, #116]	; (8000438 <SystemCoreClockUpdate+0xc8>)
 80003c4:	689b      	ldr	r3, [r3, #8]
 80003c6:	f403 03fe 	and.w	r3, r3, #8323072	; 0x7f0000
 80003ca:	0c1b      	lsrs	r3, r3, #16
 80003cc:	3301      	adds	r3, #1
 80003ce:	603b      	str	r3, [r7, #0]

      temp = (temp / (pdiv * kdiv)) * ndiv;
 80003d0:	68bb      	ldr	r3, [r7, #8]
 80003d2:	683a      	ldr	r2, [r7, #0]
 80003d4:	fb02 f303 	mul.w	r3, r2, r3
 80003d8:	68fa      	ldr	r2, [r7, #12]
 80003da:	fbb2 f3f3 	udiv	r3, r2, r3
 80003de:	687a      	ldr	r2, [r7, #4]
 80003e0:	fb02 f303 	mul.w	r3, r2, r3
 80003e4:	60fb      	str	r3, [r7, #12]
 80003e6:	e00d      	b.n	8000404 <SystemCoreClockUpdate+0x94>
    }
    else
    {
      /* PLL prescalar mode */
      /* read back divider settings */
      kdiv  = ((SCU_PLL->PLLCON1 & SCU_PLL_PLLCON1_K1DIV_Msk) >> SCU_PLL_PLLCON1_K1DIV_Pos) + 1;
 80003e8:	4b13      	ldr	r3, [pc, #76]	; (8000438 <SystemCoreClockUpdate+0xc8>)
 80003ea:	689b      	ldr	r3, [r3, #8]
 80003ec:	f003 037f 	and.w	r3, r3, #127	; 0x7f
 80003f0:	3301      	adds	r3, #1
 80003f2:	603b      	str	r3, [r7, #0]
      
      temp = (temp / kdiv);
 80003f4:	68fa      	ldr	r2, [r7, #12]
 80003f6:	683b      	ldr	r3, [r7, #0]
 80003f8:	fbb2 f3f3 	udiv	r3, r2, r3
 80003fc:	60fb      	str	r3, [r7, #12]
 80003fe:	e001      	b.n	8000404 <SystemCoreClockUpdate+0x94>
    }
  }
  else
  {
    /* fOFI is clock source for fSYS */    
    temp = OFI_FREQUENCY;
 8000400:	4b0e      	ldr	r3, [pc, #56]	; (800043c <SystemCoreClockUpdate+0xcc>)
 8000402:	60fb      	str	r3, [r7, #12]
  }

  temp = temp / ((SCU_CLK->SYSCLKCR & SCU_CLK_SYSCLKCR_SYSDIV_Msk) + 1);
 8000404:	4b0b      	ldr	r3, [pc, #44]	; (8000434 <SystemCoreClockUpdate+0xc4>)
 8000406:	68db      	ldr	r3, [r3, #12]
 8000408:	b2db      	uxtb	r3, r3
 800040a:	3301      	adds	r3, #1
 800040c:	68fa      	ldr	r2, [r7, #12]
 800040e:	fbb2 f3f3 	udiv	r3, r2, r3
 8000412:	60fb      	str	r3, [r7, #12]
  temp = temp / ((SCU_CLK->CPUCLKCR & SCU_CLK_CPUCLKCR_CPUDIV_Msk) + 1);
 8000414:	4b07      	ldr	r3, [pc, #28]	; (8000434 <SystemCoreClockUpdate+0xc4>)
 8000416:	691b      	ldr	r3, [r3, #16]
 8000418:	f003 0301 	and.w	r3, r3, #1
 800041c:	3301      	adds	r3, #1
 800041e:	68fa      	ldr	r2, [r7, #12]
 8000420:	fbb2 f3f3 	udiv	r3, r2, r3
 8000424:	60fb      	str	r3, [r7, #12]

  SystemCoreClock = temp;
 8000426:	4a06      	ldr	r2, [pc, #24]	; (8000440 <SystemCoreClockUpdate+0xd0>)
 8000428:	68fb      	ldr	r3, [r7, #12]
 800042a:	6013      	str	r3, [r2, #0]
}
 800042c:	3710      	adds	r7, #16
 800042e:	46bd      	mov	sp, r7
 8000430:	bd80      	pop	{r7, pc}
 8000432:	bf00      	nop
 8000434:	50004600 	.word	0x50004600
 8000438:	50004710 	.word	0x50004710
 800043c:	016e3600 	.word	0x016e3600
 8000440:	2003ffc0 	.word	0x2003ffc0

08000444 <XMC_ERU_Enable>:
/*********************************************************************************************************************
 * API IMPLEMENTATION
 ********************************************************************************************************************/
/* Enable the clock and De-assert the ERU module from the reset state. */
void XMC_ERU_Enable(XMC_ERU_t *const eru)
{
 8000444:	b580      	push	{r7, lr}
 8000446:	b082      	sub	sp, #8
 8000448:	af00      	add	r7, sp, #0
 800044a:	6078      	str	r0, [r7, #4]
#if defined(XMC_ERU1)
  if (eru == XMC_ERU1)
 800044c:	687b      	ldr	r3, [r7, #4]
 800044e:	4a07      	ldr	r2, [pc, #28]	; (800046c <XMC_ERU_Enable+0x28>)
 8000450:	4293      	cmp	r3, r2
 8000452:	d107      	bne.n	8000464 <XMC_ERU_Enable+0x20>
  {
#if defined(CLOCK_GATING_SUPPORTED)
    XMC_SCU_CLOCK_UngatePeripheralClock(XMC_SCU_PERIPHERAL_CLOCK_ERU1);
 8000454:	f44f 3080 	mov.w	r0, #65536	; 0x10000
 8000458:	f000 faee 	bl	8000a38 <XMC_SCU_CLOCK_UngatePeripheralClock>
#endif
    XMC_SCU_RESET_DeassertPeripheralReset(XMC_SCU_PERIPHERAL_RESET_ERU1);
 800045c:	f44f 3080 	mov.w	r0, #65536	; 0x10000
 8000460:	f000 f976 	bl	8000750 <XMC_SCU_RESET_DeassertPeripheralReset>
  }
#else
  XMC_UNUSED_ARG(eru);
  #endif
}
 8000464:	3708      	adds	r7, #8
 8000466:	46bd      	mov	sp, r7
 8000468:	bd80      	pop	{r7, pc}
 800046a:	bf00      	nop
 800046c:	40044000 	.word	0x40044000

08000470 <XMC_GPIO_Init>:
/*******************************************************************************
 * API IMPLEMENTATION
 *******************************************************************************/

void XMC_GPIO_Init(XMC_GPIO_PORT_t *const port, const uint8_t pin, const XMC_GPIO_CONFIG_t *const config)
{
 8000470:	b480      	push	{r7}
 8000472:	b085      	sub	sp, #20
 8000474:	af00      	add	r7, sp, #0
 8000476:	60f8      	str	r0, [r7, #12]
 8000478:	460b      	mov	r3, r1
 800047a:	607a      	str	r2, [r7, #4]
 800047c:	72fb      	strb	r3, [r7, #11]
  XMC_ASSERT("XMC_GPIO_Init: Invalid port", XMC_GPIO_CHECK_PORT(port));
  XMC_ASSERT("XMC_GPIO_Init: Invalid mode", XMC_GPIO_IsModeValid(config->mode));
 
  /* Switch to input */
  port->IOCR[pin >> 2U] &= (uint32_t)~(PORT_IOCR_PC_Msk << (PORT_IOCR_PC_Size * (pin & 0x3U)));
 800047e:	7afb      	ldrb	r3, [r7, #11]
 8000480:	089b      	lsrs	r3, r3, #2
 8000482:	b2db      	uxtb	r3, r3
 8000484:	4618      	mov	r0, r3
 8000486:	7afb      	ldrb	r3, [r7, #11]
 8000488:	089b      	lsrs	r3, r3, #2
 800048a:	b2db      	uxtb	r3, r3
 800048c:	461a      	mov	r2, r3
 800048e:	68fb      	ldr	r3, [r7, #12]
 8000490:	3204      	adds	r2, #4
 8000492:	f853 2022 	ldr.w	r2, [r3, r2, lsl #2]
 8000496:	7afb      	ldrb	r3, [r7, #11]
 8000498:	f003 0303 	and.w	r3, r3, #3
 800049c:	00db      	lsls	r3, r3, #3
 800049e:	4619      	mov	r1, r3
 80004a0:	23f8      	movs	r3, #248	; 0xf8
 80004a2:	408b      	lsls	r3, r1
 80004a4:	43db      	mvns	r3, r3
 80004a6:	ea02 0103 	and.w	r1, r2, r3
 80004aa:	68fb      	ldr	r3, [r7, #12]
 80004ac:	1d02      	adds	r2, r0, #4
 80004ae:	f843 1022 	str.w	r1, [r3, r2, lsl #2]

  /* HW port control is disabled */
  port->HWSEL &= ~(uint32_t)((uint32_t)PORT_HWSEL_Msk << ((uint32_t)pin << 1U));
 80004b2:	68fb      	ldr	r3, [r7, #12]
 80004b4:	6f5a      	ldr	r2, [r3, #116]	; 0x74
 80004b6:	7afb      	ldrb	r3, [r7, #11]
 80004b8:	005b      	lsls	r3, r3, #1
 80004ba:	4619      	mov	r1, r3
 80004bc:	2303      	movs	r3, #3
 80004be:	408b      	lsls	r3, r1
 80004c0:	43db      	mvns	r3, r3
 80004c2:	401a      	ands	r2, r3
 80004c4:	68fb      	ldr	r3, [r7, #12]
 80004c6:	675a      	str	r2, [r3, #116]	; 0x74


  /* Enable digital input */
  if (XMC_GPIO_CHECK_ANALOG_PORT(port))
 80004c8:	68fb      	ldr	r3, [r7, #12]
 80004ca:	4a3a      	ldr	r2, [pc, #232]	; (80005b4 <XMC_GPIO_Init+0x144>)
 80004cc:	4293      	cmp	r3, r2
 80004ce:	d003      	beq.n	80004d8 <XMC_GPIO_Init+0x68>
 80004d0:	68fb      	ldr	r3, [r7, #12]
 80004d2:	4a39      	ldr	r2, [pc, #228]	; (80005b8 <XMC_GPIO_Init+0x148>)
 80004d4:	4293      	cmp	r3, r2
 80004d6:	d10a      	bne.n	80004ee <XMC_GPIO_Init+0x7e>
  {
    port->PDISC &= ~(uint32_t)((uint32_t)0x1U << pin);
 80004d8:	68fb      	ldr	r3, [r7, #12]
 80004da:	6e1a      	ldr	r2, [r3, #96]	; 0x60
 80004dc:	7afb      	ldrb	r3, [r7, #11]
 80004de:	2101      	movs	r1, #1
 80004e0:	fa01 f303 	lsl.w	r3, r1, r3
 80004e4:	43db      	mvns	r3, r3
 80004e6:	401a      	ands	r2, r3
 80004e8:	68fb      	ldr	r3, [r7, #12]
 80004ea:	661a      	str	r2, [r3, #96]	; 0x60
 80004ec:	e042      	b.n	8000574 <XMC_GPIO_Init+0x104>
  }
  else
  {
    if ((config->mode & XMC_GPIO_MODE_OE) != 0)
 80004ee:	687b      	ldr	r3, [r7, #4]
 80004f0:	781b      	ldrb	r3, [r3, #0]
 80004f2:	b2db      	uxtb	r3, r3
 80004f4:	b25b      	sxtb	r3, r3
 80004f6:	2b00      	cmp	r3, #0
 80004f8:	da3c      	bge.n	8000574 <XMC_GPIO_Init+0x104>
    {
      /* If output is enabled */

      /* Set output level */
      port->OMR = (uint32_t)config->output_level << pin;
 80004fa:	687b      	ldr	r3, [r7, #4]
 80004fc:	685a      	ldr	r2, [r3, #4]
 80004fe:	7afb      	ldrb	r3, [r7, #11]
 8000500:	409a      	lsls	r2, r3
 8000502:	68fb      	ldr	r3, [r7, #12]
 8000504:	605a      	str	r2, [r3, #4]

      /* Set output driver strength */
      port->PDR[pin >> 3U] &= (uint32_t)~(PORT_PDR_Msk << ((uint32_t)PORT_PDR_Size * ((uint32_t)pin & 0x7U)));
 8000506:	7afb      	ldrb	r3, [r7, #11]
 8000508:	08db      	lsrs	r3, r3, #3
 800050a:	b2db      	uxtb	r3, r3
 800050c:	4618      	mov	r0, r3
 800050e:	7afb      	ldrb	r3, [r7, #11]
 8000510:	08db      	lsrs	r3, r3, #3
 8000512:	b2db      	uxtb	r3, r3
 8000514:	461a      	mov	r2, r3
 8000516:	68fb      	ldr	r3, [r7, #12]
 8000518:	3210      	adds	r2, #16
 800051a:	f853 2022 	ldr.w	r2, [r3, r2, lsl #2]
 800051e:	7afb      	ldrb	r3, [r7, #11]
 8000520:	f003 0307 	and.w	r3, r3, #7
 8000524:	009b      	lsls	r3, r3, #2
 8000526:	4619      	mov	r1, r3
 8000528:	2307      	movs	r3, #7
 800052a:	408b      	lsls	r3, r1
 800052c:	43db      	mvns	r3, r3
 800052e:	ea02 0103 	and.w	r1, r2, r3
 8000532:	68fb      	ldr	r3, [r7, #12]
 8000534:	f100 0210 	add.w	r2, r0, #16
 8000538:	f843 1022 	str.w	r1, [r3, r2, lsl #2]
      port->PDR[pin >> 3U] |= (uint32_t)config->output_strength << ((uint32_t)PORT_PDR_Size * ((uint32_t)pin & 0x7U));
 800053c:	7afb      	ldrb	r3, [r7, #11]
 800053e:	08db      	lsrs	r3, r3, #3
 8000540:	b2db      	uxtb	r3, r3
 8000542:	4618      	mov	r0, r3
 8000544:	7afb      	ldrb	r3, [r7, #11]
 8000546:	08db      	lsrs	r3, r3, #3
 8000548:	b2db      	uxtb	r3, r3
 800054a:	461a      	mov	r2, r3
 800054c:	68fb      	ldr	r3, [r7, #12]
 800054e:	3210      	adds	r2, #16
 8000550:	f853 2022 	ldr.w	r2, [r3, r2, lsl #2]
 8000554:	687b      	ldr	r3, [r7, #4]
 8000556:	7a1b      	ldrb	r3, [r3, #8]
 8000558:	4619      	mov	r1, r3
 800055a:	7afb      	ldrb	r3, [r7, #11]
 800055c:	f003 0307 	and.w	r3, r3, #7
 8000560:	009b      	lsls	r3, r3, #2
 8000562:	fa01 f303 	lsl.w	r3, r1, r3
 8000566:	ea42 0103 	orr.w	r1, r2, r3
 800056a:	68fb      	ldr	r3, [r7, #12]
 800056c:	f100 0210 	add.w	r2, r0, #16
 8000570:	f843 1022 	str.w	r1, [r3, r2, lsl #2]
    }
  }

  /* Set mode */
  port->IOCR[pin >> 2U] |= (uint32_t)config->mode << ((uint32_t)PORT_IOCR_PC_Size * ((uint32_t)pin & 0x3U));
 8000574:	7afb      	ldrb	r3, [r7, #11]
 8000576:	089b      	lsrs	r3, r3, #2
 8000578:	b2db      	uxtb	r3, r3
 800057a:	4618      	mov	r0, r3
 800057c:	7afb      	ldrb	r3, [r7, #11]
 800057e:	089b      	lsrs	r3, r3, #2
 8000580:	b2db      	uxtb	r3, r3
 8000582:	461a      	mov	r2, r3
 8000584:	68fb      	ldr	r3, [r7, #12]
 8000586:	3204      	adds	r2, #4
 8000588:	f853 2022 	ldr.w	r2, [r3, r2, lsl #2]
 800058c:	687b      	ldr	r3, [r7, #4]
 800058e:	781b      	ldrb	r3, [r3, #0]
 8000590:	4619      	mov	r1, r3
 8000592:	7afb      	ldrb	r3, [r7, #11]
 8000594:	f003 0303 	and.w	r3, r3, #3
 8000598:	00db      	lsls	r3, r3, #3
 800059a:	fa01 f303 	lsl.w	r3, r1, r3
 800059e:	ea42 0103 	orr.w	r1, r2, r3
 80005a2:	68fb      	ldr	r3, [r7, #12]
 80005a4:	1d02      	adds	r2, r0, #4
 80005a6:	f843 1022 	str.w	r1, [r3, r2, lsl #2]
}
 80005aa:	3714      	adds	r7, #20
 80005ac:	46bd      	mov	sp, r7
 80005ae:	f85d 7b04 	ldr.w	r7, [sp], #4
 80005b2:	4770      	bx	lr
 80005b4:	48028e00 	.word	0x48028e00
 80005b8:	48028f00 	.word	0x48028f00

080005bc <XMC_SCU_CLOCK_GetCpuClockFrequency>:
 *
 * \par<b>Related APIs:</b><BR>
 * XMC_SCU_CLOCK_GetPeripheralClockFrequency(), XMC_SCU_CLOCK_GatePeripheralClock() \n\n\n
 */
__STATIC_INLINE uint32_t XMC_SCU_CLOCK_GetCpuClockFrequency(void)
{
 80005bc:	b480      	push	{r7}
 80005be:	af00      	add	r7, sp, #0
  return SystemCoreClock;
 80005c0:	4b03      	ldr	r3, [pc, #12]	; (80005d0 <XMC_SCU_CLOCK_GetCpuClockFrequency+0x14>)
 80005c2:	681b      	ldr	r3, [r3, #0]
}
 80005c4:	4618      	mov	r0, r3
 80005c6:	46bd      	mov	sp, r7
 80005c8:	f85d 7b04 	ldr.w	r7, [sp], #4
 80005cc:	4770      	bx	lr
 80005ce:	bf00      	nop
 80005d0:	2003ffc0 	.word	0x2003ffc0

080005d4 <XMC_SCU_GetMirrorStatus>:
 * that a corresponding register of the hibernate domain is ready to accept a write or that the communication interface
 * is busy with executing the previous operation.\n
 * Note: There is no hibernate domain in XMC1x devices. This register is retained for legacy purpose.
 */
__STATIC_INLINE uint32_t XMC_SCU_GetMirrorStatus(void)
{
 80005d4:	b480      	push	{r7}
 80005d6:	af00      	add	r7, sp, #0
  return(SCU_GENERAL->MIRRSTS);
 80005d8:	4b03      	ldr	r3, [pc, #12]	; (80005e8 <XMC_SCU_GetMirrorStatus+0x14>)
 80005da:	f8d3 30c4 	ldr.w	r3, [r3, #196]	; 0xc4
}
 80005de:	4618      	mov	r0, r3
 80005e0:	46bd      	mov	sp, r7
 80005e2:	f85d 7b04 	ldr.w	r7, [sp], #4
 80005e6:	4770      	bx	lr
 80005e8:	50004000 	.word	0x50004000

080005ec <XMC_SCU_lDelay>:
/*********************************************************************************************************************
 * API IMPLEMENTATION
 ********************************************************************************************************************/
/* This is a local function used to generate the delay until register get updated with new configured value.  */
void XMC_SCU_lDelay(uint32_t delay)
{
 80005ec:	b580      	push	{r7, lr}
 80005ee:	b084      	sub	sp, #16
 80005f0:	af00      	add	r7, sp, #0
 80005f2:	6078      	str	r0, [r7, #4]
  uint32_t i;

  SystemCoreClockUpdate();
 80005f4:	f7ff febc 	bl	8000370 <SystemCoreClockUpdate>
  delay =  delay * (uint32_t)(SystemCoreClock / FREQ_1MHZ);
 80005f8:	4b0b      	ldr	r3, [pc, #44]	; (8000628 <XMC_SCU_lDelay+0x3c>)
 80005fa:	681b      	ldr	r3, [r3, #0]
 80005fc:	4a0b      	ldr	r2, [pc, #44]	; (800062c <XMC_SCU_lDelay+0x40>)
 80005fe:	fba2 2303 	umull	r2, r3, r2, r3
 8000602:	0c9a      	lsrs	r2, r3, #18
 8000604:	687b      	ldr	r3, [r7, #4]
 8000606:	fb02 f303 	mul.w	r3, r2, r3
 800060a:	607b      	str	r3, [r7, #4]

  for (i = 0U; i < delay; ++i)
 800060c:	2300      	movs	r3, #0
 800060e:	60fb      	str	r3, [r7, #12]
 8000610:	e003      	b.n	800061a <XMC_SCU_lDelay+0x2e>
  {
    __NOP();
 8000612:	bf00      	nop
  uint32_t i;

  SystemCoreClockUpdate();
  delay =  delay * (uint32_t)(SystemCoreClock / FREQ_1MHZ);

  for (i = 0U; i < delay; ++i)
 8000614:	68fb      	ldr	r3, [r7, #12]
 8000616:	3301      	adds	r3, #1
 8000618:	60fb      	str	r3, [r7, #12]
 800061a:	68fa      	ldr	r2, [r7, #12]
 800061c:	687b      	ldr	r3, [r7, #4]
 800061e:	429a      	cmp	r2, r3
 8000620:	d3f7      	bcc.n	8000612 <XMC_SCU_lDelay+0x26>
  {
    __NOP();
  }
}
 8000622:	3710      	adds	r7, #16
 8000624:	46bd      	mov	sp, r7
 8000626:	bd80      	pop	{r7, pc}
 8000628:	2003ffc0 	.word	0x2003ffc0
 800062c:	431bde83 	.word	0x431bde83

08000630 <XMC_SCU_INTERUPT_GetEventStatus>:
  SCU_INTERRUPT->SRSET |= (uint32_t)event;
}

/* API to retrieve the SCU event status */
XMC_SCU_INTERRUPT_EVENT_t XMC_SCU_INTERUPT_GetEventStatus(void)
{
 8000630:	b480      	push	{r7}
 8000632:	af00      	add	r7, sp, #0
  return (SCU_INTERRUPT->SRRAW);
 8000634:	4b03      	ldr	r3, [pc, #12]	; (8000644 <XMC_SCU_INTERUPT_GetEventStatus+0x14>)
 8000636:	685b      	ldr	r3, [r3, #4]
}
 8000638:	4618      	mov	r0, r3
 800063a:	46bd      	mov	sp, r7
 800063c:	f85d 7b04 	ldr.w	r7, [sp], #4
 8000640:	4770      	bx	lr
 8000642:	bf00      	nop
 8000644:	50004074 	.word	0x50004074

08000648 <XMC_SCU_INTERRUPT_ClearEventStatus>:

/* API to clear the SCU event status */
void XMC_SCU_INTERRUPT_ClearEventStatus(const XMC_SCU_INTERRUPT_EVENT_t event)
{
 8000648:	b480      	push	{r7}
 800064a:	b083      	sub	sp, #12
 800064c:	af00      	add	r7, sp, #0
 800064e:	6078      	str	r0, [r7, #4]
  SCU_INTERRUPT->SRCLR = (uint32_t)event;
 8000650:	4a03      	ldr	r2, [pc, #12]	; (8000660 <XMC_SCU_INTERRUPT_ClearEventStatus+0x18>)
 8000652:	687b      	ldr	r3, [r7, #4]
 8000654:	60d3      	str	r3, [r2, #12]
}
 8000656:	370c      	adds	r7, #12
 8000658:	46bd      	mov	sp, r7
 800065a:	f85d 7b04 	ldr.w	r7, [sp], #4
 800065e:	4770      	bx	lr
 8000660:	50004074 	.word	0x50004074

08000664 <XMC_SCU_CLOCK_Init>:
  return (SCU_GENERAL->RMDATA);
}

/* API to initialize the clock tree */
void XMC_SCU_CLOCK_Init(const XMC_SCU_CLOCK_CONFIG_t *const config)
{
 8000664:	b5b0      	push	{r4, r5, r7, lr}
 8000666:	b084      	sub	sp, #16
 8000668:	af02      	add	r7, sp, #8
 800066a:	6078      	str	r0, [r7, #4]
  XMC_ASSERT("", ((config->fstdby_clksrc == XMC_SCU_HIB_STDBYCLKSRC_OSCULP) && (config->enable_osculp == true)) ||
                 (config->fstdby_clksrc != XMC_SCU_HIB_STDBYCLKSRC_OSCULP));
  XMC_ASSERT("", ((config->syspll_config.clksrc == XMC_SCU_CLOCK_SYSPLLCLKSRC_OSCHP) &&
                 (config->enable_oschp == true)) || (config->syspll_config.clksrc != XMC_SCU_CLOCK_SYSPLLCLKSRC_OSCHP));

  XMC_SCU_CLOCK_SetSystemClockSource(XMC_SCU_CLOCK_SYSCLKSRC_OFI);
 800066c:	2000      	movs	r0, #0
 800066e:	f000 f8bf 	bl	80007f0 <XMC_SCU_CLOCK_SetSystemClockSource>

  XMC_SCU_HIB_EnableHibernateDomain();
 8000672:	f000 fa81 	bl	8000b78 <XMC_SCU_HIB_EnableHibernateDomain>

  if (config->enable_osculp == true)
 8000676:	687b      	ldr	r3, [r7, #4]
 8000678:	79db      	ldrb	r3, [r3, #7]
 800067a:	2b00      	cmp	r3, #0
 800067c:	d00a      	beq.n	8000694 <XMC_SCU_CLOCK_Init+0x30>
  {
    XMC_SCU_CLOCK_EnableLowPowerOscillator();
 800067e:	f000 fab9 	bl	8000bf4 <XMC_SCU_CLOCK_EnableLowPowerOscillator>
    while (XMC_SCU_CLOCK_IsLowPowerOscillatorStable() == false);
 8000682:	bf00      	nop
 8000684:	f000 faa4 	bl	8000bd0 <XMC_SCU_CLOCK_IsLowPowerOscillatorStable>
 8000688:	4603      	mov	r3, r0
 800068a:	f083 0301 	eor.w	r3, r3, #1
 800068e:	b2db      	uxtb	r3, r3
 8000690:	2b00      	cmp	r3, #0
 8000692:	d1f7      	bne.n	8000684 <XMC_SCU_CLOCK_Init+0x20>
  }
  
  XMC_SCU_HIB_SetStandbyClockSource(config->fstdby_clksrc);  
 8000694:	687b      	ldr	r3, [r7, #4]
 8000696:	7a5b      	ldrb	r3, [r3, #9]
 8000698:	4618      	mov	r0, r3
 800069a:	f000 f923 	bl	80008e4 <XMC_SCU_HIB_SetStandbyClockSource>
  while (XMC_SCU_GetMirrorStatus() != 0)
 800069e:	bf00      	nop
 80006a0:	f7ff ff98 	bl	80005d4 <XMC_SCU_GetMirrorStatus>
 80006a4:	4603      	mov	r3, r0
 80006a6:	2b00      	cmp	r3, #0
 80006a8:	d1fa      	bne.n	80006a0 <XMC_SCU_CLOCK_Init+0x3c>
  {
    /* Wait until update of the stanby clock source is done in the HIB domain */    
  }

  XMC_SCU_CLOCK_SetBackupClockCalibrationMode(config->calibration_mode);
 80006aa:	687b      	ldr	r3, [r7, #4]
 80006ac:	7a1b      	ldrb	r3, [r3, #8]
 80006ae:	4618      	mov	r0, r3
 80006b0:	f000 fa3c 	bl	8000b2c <XMC_SCU_CLOCK_SetBackupClockCalibrationMode>

  XMC_SCU_CLOCK_SetSystemClockDivider((uint32_t)config->fsys_clkdiv);
 80006b4:	687b      	ldr	r3, [r7, #4]
 80006b6:	7c1b      	ldrb	r3, [r3, #16]
 80006b8:	4618      	mov	r0, r3
 80006ba:	f000 f931 	bl	8000920 <XMC_SCU_CLOCK_SetSystemClockDivider>
  XMC_SCU_CLOCK_SetCpuClockDivider((uint32_t)config->fcpu_clkdiv);
 80006be:	687b      	ldr	r3, [r7, #4]
 80006c0:	7c5b      	ldrb	r3, [r3, #17]
 80006c2:	4618      	mov	r0, r3
 80006c4:	f000 f954 	bl	8000970 <XMC_SCU_CLOCK_SetCpuClockDivider>
  XMC_SCU_CLOCK_SetCcuClockDivider((uint32_t)config->fccu_clkdiv);
 80006c8:	687b      	ldr	r3, [r7, #4]
 80006ca:	7c9b      	ldrb	r3, [r3, #18]
 80006cc:	4618      	mov	r0, r3
 80006ce:	f000 f93b 	bl	8000948 <XMC_SCU_CLOCK_SetCcuClockDivider>
  XMC_SCU_CLOCK_SetPeripheralClockDivider((uint32_t)config->fperipheral_clkdiv);
 80006d2:	687b      	ldr	r3, [r7, #4]
 80006d4:	7cdb      	ldrb	r3, [r3, #19]
 80006d6:	4618      	mov	r0, r3
 80006d8:	f000 f95e 	bl	8000998 <XMC_SCU_CLOCK_SetPeripheralClockDivider>

  if (config->enable_oschp == true)
 80006dc:	687b      	ldr	r3, [r7, #4]
 80006de:	799b      	ldrb	r3, [r3, #6]
 80006e0:	2b00      	cmp	r3, #0
 80006e2:	d00a      	beq.n	80006fa <XMC_SCU_CLOCK_Init+0x96>
  {
    XMC_SCU_CLOCK_EnableHighPerformanceOscillator();
 80006e4:	f000 fabe 	bl	8000c64 <XMC_SCU_CLOCK_EnableHighPerformanceOscillator>
    while(XMC_SCU_CLOCK_IsHighPerformanceOscillatorStable() == false);
 80006e8:	bf00      	nop
 80006ea:	f000 fae3 	bl	8000cb4 <XMC_SCU_CLOCK_IsHighPerformanceOscillatorStable>
 80006ee:	4603      	mov	r3, r0
 80006f0:	f083 0301 	eor.w	r3, r3, #1
 80006f4:	b2db      	uxtb	r3, r3
 80006f6:	2b00      	cmp	r3, #0
 80006f8:	d1f7      	bne.n	80006ea <XMC_SCU_CLOCK_Init+0x86>
  }

  if (config->syspll_config.mode == XMC_SCU_CLOCK_SYSPLL_MODE_DISABLED)
 80006fa:	687b      	ldr	r3, [r7, #4]
 80006fc:	78db      	ldrb	r3, [r3, #3]
 80006fe:	2b00      	cmp	r3, #0
 8000700:	d102      	bne.n	8000708 <XMC_SCU_CLOCK_Init+0xa4>
  {
    XMC_SCU_CLOCK_DisableSystemPll();
 8000702:	f000 fafb 	bl	8000cfc <XMC_SCU_CLOCK_DisableSystemPll>
 8000706:	e014      	b.n	8000732 <XMC_SCU_CLOCK_Init+0xce>
  }
  else
  {

    XMC_SCU_CLOCK_EnableSystemPll();
 8000708:	f000 fae8 	bl	8000cdc <XMC_SCU_CLOCK_EnableSystemPll>
    XMC_SCU_CLOCK_StartSystemPll(config->syspll_config.clksrc,
 800070c:	687b      	ldr	r3, [r7, #4]
 800070e:	8899      	ldrh	r1, [r3, #4]
 8000710:	687b      	ldr	r3, [r7, #4]
 8000712:	78da      	ldrb	r2, [r3, #3]
                                 config->syspll_config.mode,
                                 (uint32_t)config->syspll_config.p_div,
 8000714:	687b      	ldr	r3, [r7, #4]
 8000716:	785b      	ldrb	r3, [r3, #1]
  }
  else
  {

    XMC_SCU_CLOCK_EnableSystemPll();
    XMC_SCU_CLOCK_StartSystemPll(config->syspll_config.clksrc,
 8000718:	461d      	mov	r5, r3
                                 config->syspll_config.mode,
                                 (uint32_t)config->syspll_config.p_div,
                                 (uint32_t)config->syspll_config.n_div,
 800071a:	687b      	ldr	r3, [r7, #4]
 800071c:	781b      	ldrb	r3, [r3, #0]
  }
  else
  {

    XMC_SCU_CLOCK_EnableSystemPll();
    XMC_SCU_CLOCK_StartSystemPll(config->syspll_config.clksrc,
 800071e:	461c      	mov	r4, r3
                                 config->syspll_config.mode,
                                 (uint32_t)config->syspll_config.p_div,
                                 (uint32_t)config->syspll_config.n_div,
                                 (uint32_t)config->syspll_config.k_div);
 8000720:	687b      	ldr	r3, [r7, #4]
 8000722:	789b      	ldrb	r3, [r3, #2]
  }
  else
  {

    XMC_SCU_CLOCK_EnableSystemPll();
    XMC_SCU_CLOCK_StartSystemPll(config->syspll_config.clksrc,
 8000724:	9300      	str	r3, [sp, #0]
 8000726:	4608      	mov	r0, r1
 8000728:	4611      	mov	r1, r2
 800072a:	462a      	mov	r2, r5
 800072c:	4623      	mov	r3, r4
 800072e:	f000 faf5 	bl	8000d1c <XMC_SCU_CLOCK_StartSystemPll>
                                 (uint32_t)config->syspll_config.n_div,
                                 (uint32_t)config->syspll_config.k_div);
  }

  /* use SYSPLL? */
  if (config->fsys_clksrc == XMC_SCU_CLOCK_SYSCLKSRC_PLL)
 8000732:	687b      	ldr	r3, [r7, #4]
 8000734:	68db      	ldr	r3, [r3, #12]
 8000736:	f5b3 3f80 	cmp.w	r3, #65536	; 0x10000
 800073a:	d103      	bne.n	8000744 <XMC_SCU_CLOCK_Init+0xe0>
  {
    XMC_SCU_CLOCK_SetSystemClockSource(XMC_SCU_CLOCK_SYSCLKSRC_PLL);    
 800073c:	f44f 3080 	mov.w	r0, #65536	; 0x10000
 8000740:	f000 f856 	bl	80007f0 <XMC_SCU_CLOCK_SetSystemClockSource>
  }
  SystemCoreClockUpdate();
 8000744:	f7ff fe14 	bl	8000370 <SystemCoreClockUpdate>
}
 8000748:	3708      	adds	r7, #8
 800074a:	46bd      	mov	sp, r7
 800074c:	bdb0      	pop	{r4, r5, r7, pc}
 800074e:	bf00      	nop

08000750 <XMC_SCU_RESET_DeassertPeripheralReset>:
  *(uint32_t *)(&(SCU_RESET->PRSET0) + (index * 3U)) = (uint32_t)mask;
}

/* API to manually de-assert a reset request */
void XMC_SCU_RESET_DeassertPeripheralReset(const XMC_SCU_PERIPHERAL_RESET_t peripheral)
{
 8000750:	b480      	push	{r7}
 8000752:	b085      	sub	sp, #20
 8000754:	af00      	add	r7, sp, #0
 8000756:	6078      	str	r0, [r7, #4]
  uint32_t index = (uint32_t)((((uint32_t)peripheral) & 0xf0000000UL) >> 28UL);
 8000758:	687b      	ldr	r3, [r7, #4]
 800075a:	0f1b      	lsrs	r3, r3, #28
 800075c:	60fb      	str	r3, [r7, #12]
  uint32_t mask = (((uint32_t)peripheral) & ((uint32_t)~0xf0000000UL));
 800075e:	687b      	ldr	r3, [r7, #4]
 8000760:	f023 4370 	bic.w	r3, r3, #4026531840	; 0xf0000000
 8000764:	60bb      	str	r3, [r7, #8]

  *(uint32_t *)(&(SCU_RESET->PRCLR0) + (index * 3U)) = (uint32_t)mask;
 8000766:	68fa      	ldr	r2, [r7, #12]
 8000768:	4613      	mov	r3, r2
 800076a:	005b      	lsls	r3, r3, #1
 800076c:	4413      	add	r3, r2
 800076e:	009b      	lsls	r3, r3, #2
 8000770:	461a      	mov	r2, r3
 8000772:	4b04      	ldr	r3, [pc, #16]	; (8000784 <XMC_SCU_RESET_DeassertPeripheralReset+0x34>)
 8000774:	4413      	add	r3, r2
 8000776:	68ba      	ldr	r2, [r7, #8]
 8000778:	601a      	str	r2, [r3, #0]
}
 800077a:	3714      	adds	r7, #20
 800077c:	46bd      	mov	sp, r7
 800077e:	f85d 7b04 	ldr.w	r7, [sp], #4
 8000782:	4770      	bx	lr
 8000784:	50004414 	.word	0x50004414

08000788 <XMC_SCU_RESET_IsPeripheralResetAsserted>:

/* Find out if the peripheral reset is asserted */
bool XMC_SCU_RESET_IsPeripheralResetAsserted(const XMC_SCU_PERIPHERAL_RESET_t peripheral)
{
 8000788:	b480      	push	{r7}
 800078a:	b085      	sub	sp, #20
 800078c:	af00      	add	r7, sp, #0
 800078e:	6078      	str	r0, [r7, #4]
  uint32_t index = (uint32_t)((((uint32_t)peripheral) & 0xf0000000UL) >> 28UL);
 8000790:	687b      	ldr	r3, [r7, #4]
 8000792:	0f1b      	lsrs	r3, r3, #28
 8000794:	60fb      	str	r3, [r7, #12]
  uint32_t mask = (((uint32_t)peripheral) & ((uint32_t)~0xf0000000UL));
 8000796:	687b      	ldr	r3, [r7, #4]
 8000798:	f023 4370 	bic.w	r3, r3, #4026531840	; 0xf0000000
 800079c:	60bb      	str	r3, [r7, #8]

  return ((*(uint32_t *)(&(SCU_RESET->PRSTAT0) + (index * 3U)) & mask) != 0U);
 800079e:	68fa      	ldr	r2, [r7, #12]
 80007a0:	4613      	mov	r3, r2
 80007a2:	005b      	lsls	r3, r3, #1
 80007a4:	4413      	add	r3, r2
 80007a6:	009b      	lsls	r3, r3, #2
 80007a8:	461a      	mov	r2, r3
 80007aa:	4b08      	ldr	r3, [pc, #32]	; (80007cc <XMC_SCU_RESET_IsPeripheralResetAsserted+0x44>)
 80007ac:	4413      	add	r3, r2
 80007ae:	681a      	ldr	r2, [r3, #0]
 80007b0:	68bb      	ldr	r3, [r7, #8]
 80007b2:	4013      	ands	r3, r2
 80007b4:	2b00      	cmp	r3, #0
 80007b6:	bf14      	ite	ne
 80007b8:	2301      	movne	r3, #1
 80007ba:	2300      	moveq	r3, #0
 80007bc:	b2db      	uxtb	r3, r3
}
 80007be:	4618      	mov	r0, r3
 80007c0:	3714      	adds	r7, #20
 80007c2:	46bd      	mov	sp, r7
 80007c4:	f85d 7b04 	ldr.w	r7, [sp], #4
 80007c8:	4770      	bx	lr
 80007ca:	bf00      	nop
 80007cc:	5000440c 	.word	0x5000440c

080007d0 <XMC_SCU_CLOCK_GetPeripheralClockFrequency>:

/*
 * API to retrieve clock frequency of peripherals on the peripheral bus using a shared functional clock
 */
uint32_t XMC_SCU_CLOCK_GetPeripheralClockFrequency(void)
{
 80007d0:	b580      	push	{r7, lr}
 80007d2:	af00      	add	r7, sp, #0
  return (uint32_t)(XMC_SCU_CLOCK_GetCpuClockFrequency() >>
 80007d4:	f7ff fef2 	bl	80005bc <XMC_SCU_CLOCK_GetCpuClockFrequency>
 80007d8:	4602      	mov	r2, r0
         ((SCU_CLK->PBCLKCR & SCU_CLK_PBCLKCR_PBDIV_Msk) >> SCU_CLK_PBCLKCR_PBDIV_Pos));  
 80007da:	4b04      	ldr	r3, [pc, #16]	; (80007ec <XMC_SCU_CLOCK_GetPeripheralClockFrequency+0x1c>)
 80007dc:	695b      	ldr	r3, [r3, #20]
/*
 * API to retrieve clock frequency of peripherals on the peripheral bus using a shared functional clock
 */
uint32_t XMC_SCU_CLOCK_GetPeripheralClockFrequency(void)
{
  return (uint32_t)(XMC_SCU_CLOCK_GetCpuClockFrequency() >>
 80007de:	f003 0301 	and.w	r3, r3, #1
 80007e2:	fa22 f303 	lsr.w	r3, r2, r3
         ((SCU_CLK->PBCLKCR & SCU_CLK_PBCLKCR_PBDIV_Msk) >> SCU_CLK_PBCLKCR_PBDIV_Pos));  
}
 80007e6:	4618      	mov	r0, r3
 80007e8:	bd80      	pop	{r7, pc}
 80007ea:	bf00      	nop
 80007ec:	50004600 	.word	0x50004600

080007f0 <XMC_SCU_CLOCK_SetSystemClockSource>:

/* API to select fSYS */
void XMC_SCU_CLOCK_SetSystemClockSource(const XMC_SCU_CLOCK_SYSCLKSRC_t source)
{
 80007f0:	b480      	push	{r7}
 80007f2:	b083      	sub	sp, #12
 80007f4:	af00      	add	r7, sp, #0
 80007f6:	6078      	str	r0, [r7, #4]
  SCU_CLK->SYSCLKCR = (SCU_CLK->SYSCLKCR & ((uint32_t)~SCU_CLK_SYSCLKCR_SYSSEL_Msk)) |
 80007f8:	4906      	ldr	r1, [pc, #24]	; (8000814 <XMC_SCU_CLOCK_SetSystemClockSource+0x24>)
 80007fa:	4b06      	ldr	r3, [pc, #24]	; (8000814 <XMC_SCU_CLOCK_SetSystemClockSource+0x24>)
 80007fc:	68db      	ldr	r3, [r3, #12]
 80007fe:	f423 3280 	bic.w	r2, r3, #65536	; 0x10000
 8000802:	687b      	ldr	r3, [r7, #4]
 8000804:	4313      	orrs	r3, r2
 8000806:	60cb      	str	r3, [r1, #12]
                      ((uint32_t)source);
}
 8000808:	370c      	adds	r7, #12
 800080a:	46bd      	mov	sp, r7
 800080c:	f85d 7b04 	ldr.w	r7, [sp], #4
 8000810:	4770      	bx	lr
 8000812:	bf00      	nop
 8000814:	50004600 	.word	0x50004600

08000818 <XMC_SCU_CLOCK_SetUsbClockSource>:

/* API to select fUSB */
void XMC_SCU_CLOCK_SetUsbClockSource(const XMC_SCU_CLOCK_USBCLKSRC_t source)
{
 8000818:	b480      	push	{r7}
 800081a:	b083      	sub	sp, #12
 800081c:	af00      	add	r7, sp, #0
 800081e:	6078      	str	r0, [r7, #4]
  SCU_CLK->USBCLKCR = (SCU_CLK->USBCLKCR & ((uint32_t)~SCU_CLK_USBCLKCR_USBSEL_Msk)) |
 8000820:	4906      	ldr	r1, [pc, #24]	; (800083c <XMC_SCU_CLOCK_SetUsbClockSource+0x24>)
 8000822:	4b06      	ldr	r3, [pc, #24]	; (800083c <XMC_SCU_CLOCK_SetUsbClockSource+0x24>)
 8000824:	699b      	ldr	r3, [r3, #24]
 8000826:	f423 3280 	bic.w	r2, r3, #65536	; 0x10000
 800082a:	687b      	ldr	r3, [r7, #4]
 800082c:	4313      	orrs	r3, r2
 800082e:	618b      	str	r3, [r1, #24]
                      ((uint32_t)source);
}
 8000830:	370c      	adds	r7, #12
 8000832:	46bd      	mov	sp, r7
 8000834:	f85d 7b04 	ldr.w	r7, [sp], #4
 8000838:	4770      	bx	lr
 800083a:	bf00      	nop
 800083c:	50004600 	.word	0x50004600

08000840 <XMC_SCU_CLOCK_SetWdtClockSource>:

/* API to select fWDT */
void XMC_SCU_CLOCK_SetWdtClockSource(const XMC_SCU_CLOCK_WDTCLKSRC_t source)
{
 8000840:	b480      	push	{r7}
 8000842:	b083      	sub	sp, #12
 8000844:	af00      	add	r7, sp, #0
 8000846:	6078      	str	r0, [r7, #4]
  SCU_CLK->WDTCLKCR = (SCU_CLK->WDTCLKCR & ((uint32_t)~SCU_CLK_WDTCLKCR_WDTSEL_Msk)) |
 8000848:	4906      	ldr	r1, [pc, #24]	; (8000864 <XMC_SCU_CLOCK_SetWdtClockSource+0x24>)
 800084a:	4b06      	ldr	r3, [pc, #24]	; (8000864 <XMC_SCU_CLOCK_SetWdtClockSource+0x24>)
 800084c:	6a5b      	ldr	r3, [r3, #36]	; 0x24
 800084e:	f423 3240 	bic.w	r2, r3, #196608	; 0x30000
 8000852:	687b      	ldr	r3, [r7, #4]
 8000854:	4313      	orrs	r3, r2
 8000856:	624b      	str	r3, [r1, #36]	; 0x24
                      ((uint32_t)source);
}
 8000858:	370c      	adds	r7, #12
 800085a:	46bd      	mov	sp, r7
 800085c:	f85d 7b04 	ldr.w	r7, [sp], #4
 8000860:	4770      	bx	lr
 8000862:	bf00      	nop
 8000864:	50004600 	.word	0x50004600

08000868 <XMC_SCU_CLOCK_SetSystemPllClockSource>:
                      ((uint32_t)source);
}

/* API to select fPLL */
void XMC_SCU_CLOCK_SetSystemPllClockSource(const XMC_SCU_CLOCK_SYSPLLCLKSRC_t source)
{
 8000868:	b480      	push	{r7}
 800086a:	b083      	sub	sp, #12
 800086c:	af00      	add	r7, sp, #0
 800086e:	4603      	mov	r3, r0
 8000870:	80fb      	strh	r3, [r7, #6]
  /* Check input clock */
  if (source == XMC_SCU_CLOCK_SYSPLLCLKSRC_OSCHP) /* Select PLLClockSource */
 8000872:	88fb      	ldrh	r3, [r7, #6]
 8000874:	2b00      	cmp	r3, #0
 8000876:	d108      	bne.n	800088a <XMC_SCU_CLOCK_SetSystemPllClockSource+0x22>
  {
    SCU_PLL->PLLCON2 &= (uint32_t)~(SCU_PLL_PLLCON2_PINSEL_Msk | SCU_PLL_PLLCON2_K1INSEL_Msk);
 8000878:	4a0a      	ldr	r2, [pc, #40]	; (80008a4 <XMC_SCU_CLOCK_SetSystemPllClockSource+0x3c>)
 800087a:	4b0a      	ldr	r3, [pc, #40]	; (80008a4 <XMC_SCU_CLOCK_SetSystemPllClockSource+0x3c>)
 800087c:	68db      	ldr	r3, [r3, #12]
 800087e:	f423 7380 	bic.w	r3, r3, #256	; 0x100
 8000882:	f023 0301 	bic.w	r3, r3, #1
 8000886:	60d3      	str	r3, [r2, #12]
 8000888:	e007      	b.n	800089a <XMC_SCU_CLOCK_SetSystemPllClockSource+0x32>
  }
  else
  {
    SCU_PLL->PLLCON2 |= (uint32_t)(SCU_PLL_PLLCON2_PINSEL_Msk | SCU_PLL_PLLCON2_K1INSEL_Msk);
 800088a:	4a06      	ldr	r2, [pc, #24]	; (80008a4 <XMC_SCU_CLOCK_SetSystemPllClockSource+0x3c>)
 800088c:	4b05      	ldr	r3, [pc, #20]	; (80008a4 <XMC_SCU_CLOCK_SetSystemPllClockSource+0x3c>)
 800088e:	68db      	ldr	r3, [r3, #12]
 8000890:	f443 7380 	orr.w	r3, r3, #256	; 0x100
 8000894:	f043 0301 	orr.w	r3, r3, #1
 8000898:	60d3      	str	r3, [r2, #12]
  }
}
 800089a:	370c      	adds	r7, #12
 800089c:	46bd      	mov	sp, r7
 800089e:	f85d 7b04 	ldr.w	r7, [sp], #4
 80008a2:	4770      	bx	lr
 80008a4:	50004710 	.word	0x50004710

080008a8 <XMC_SCU_HIB_SetRtcClockSource>:

/* API to select fRTC */
void XMC_SCU_HIB_SetRtcClockSource(const XMC_SCU_HIB_RTCCLKSRC_t source)
{ 
 80008a8:	b480      	push	{r7}
 80008aa:	b083      	sub	sp, #12
 80008ac:	af00      	add	r7, sp, #0
 80008ae:	4603      	mov	r3, r0
 80008b0:	71fb      	strb	r3, [r7, #7]
  /* Wait until the update of HDCR register in hibernate domain is completed */
  while((SCU_GENERAL->MIRRSTS) & SCU_GENERAL_MIRRSTS_HDCR_Msk)
 80008b2:	bf00      	nop
 80008b4:	4b09      	ldr	r3, [pc, #36]	; (80008dc <XMC_SCU_HIB_SetRtcClockSource+0x34>)
 80008b6:	f8d3 30c4 	ldr.w	r3, [r3, #196]	; 0xc4
 80008ba:	f003 0308 	and.w	r3, r3, #8
 80008be:	2b00      	cmp	r3, #0
 80008c0:	d1f8      	bne.n	80008b4 <XMC_SCU_HIB_SetRtcClockSource+0xc>
  {
  }

  SCU_HIBERNATE->HDCR = (SCU_HIBERNATE->HDCR & ((uint32_t)~SCU_HIBERNATE_HDCR_RCS_Msk)) |
 80008c2:	4907      	ldr	r1, [pc, #28]	; (80008e0 <XMC_SCU_HIB_SetRtcClockSource+0x38>)
 80008c4:	4b06      	ldr	r3, [pc, #24]	; (80008e0 <XMC_SCU_HIB_SetRtcClockSource+0x38>)
 80008c6:	68db      	ldr	r3, [r3, #12]
 80008c8:	f023 0240 	bic.w	r2, r3, #64	; 0x40
                        ((uint32_t)source);
 80008cc:	79fb      	ldrb	r3, [r7, #7]
  /* Wait until the update of HDCR register in hibernate domain is completed */
  while((SCU_GENERAL->MIRRSTS) & SCU_GENERAL_MIRRSTS_HDCR_Msk)
  {
  }

  SCU_HIBERNATE->HDCR = (SCU_HIBERNATE->HDCR & ((uint32_t)~SCU_HIBERNATE_HDCR_RCS_Msk)) |
 80008ce:	4313      	orrs	r3, r2
 80008d0:	60cb      	str	r3, [r1, #12]
                        ((uint32_t)source);
}
 80008d2:	370c      	adds	r7, #12
 80008d4:	46bd      	mov	sp, r7
 80008d6:	f85d 7b04 	ldr.w	r7, [sp], #4
 80008da:	4770      	bx	lr
 80008dc:	50004000 	.word	0x50004000
 80008e0:	50004300 	.word	0x50004300

080008e4 <XMC_SCU_HIB_SetStandbyClockSource>:

/* API to select fSTDBY */
void XMC_SCU_HIB_SetStandbyClockSource(const XMC_SCU_HIB_STDBYCLKSRC_t source)
{
 80008e4:	b480      	push	{r7}
 80008e6:	b083      	sub	sp, #12
 80008e8:	af00      	add	r7, sp, #0
 80008ea:	4603      	mov	r3, r0
 80008ec:	71fb      	strb	r3, [r7, #7]
  while((SCU_GENERAL->MIRRSTS) & SCU_GENERAL_MIRRSTS_HDCR_Msk)
 80008ee:	bf00      	nop
 80008f0:	4b09      	ldr	r3, [pc, #36]	; (8000918 <XMC_SCU_HIB_SetStandbyClockSource+0x34>)
 80008f2:	f8d3 30c4 	ldr.w	r3, [r3, #196]	; 0xc4
 80008f6:	f003 0308 	and.w	r3, r3, #8
 80008fa:	2b00      	cmp	r3, #0
 80008fc:	d1f8      	bne.n	80008f0 <XMC_SCU_HIB_SetStandbyClockSource+0xc>
  {
    /* check SCU_MIRRSTS to ensure that no transfer over serial interface is pending */
  }
  SCU_HIBERNATE->HDCR = (SCU_HIBERNATE->HDCR & ((uint32_t)~SCU_HIBERNATE_HDCR_STDBYSEL_Msk)) |
 80008fe:	4907      	ldr	r1, [pc, #28]	; (800091c <XMC_SCU_HIB_SetStandbyClockSource+0x38>)
 8000900:	4b06      	ldr	r3, [pc, #24]	; (800091c <XMC_SCU_HIB_SetStandbyClockSource+0x38>)
 8000902:	68db      	ldr	r3, [r3, #12]
 8000904:	f023 0280 	bic.w	r2, r3, #128	; 0x80
                        ((uint32_t)source);
 8000908:	79fb      	ldrb	r3, [r7, #7]
{
  while((SCU_GENERAL->MIRRSTS) & SCU_GENERAL_MIRRSTS_HDCR_Msk)
  {
    /* check SCU_MIRRSTS to ensure that no transfer over serial interface is pending */
  }
  SCU_HIBERNATE->HDCR = (SCU_HIBERNATE->HDCR & ((uint32_t)~SCU_HIBERNATE_HDCR_STDBYSEL_Msk)) |
 800090a:	4313      	orrs	r3, r2
 800090c:	60cb      	str	r3, [r1, #12]
                        ((uint32_t)source);
}
 800090e:	370c      	adds	r7, #12
 8000910:	46bd      	mov	sp, r7
 8000912:	f85d 7b04 	ldr.w	r7, [sp], #4
 8000916:	4770      	bx	lr
 8000918:	50004000 	.word	0x50004000
 800091c:	50004300 	.word	0x50004300

08000920 <XMC_SCU_CLOCK_SetSystemClockDivider>:

/* API to program the divider placed between fsys and its parent */
void XMC_SCU_CLOCK_SetSystemClockDivider(const uint32_t divider)
{
 8000920:	b480      	push	{r7}
 8000922:	b083      	sub	sp, #12
 8000924:	af00      	add	r7, sp, #0
 8000926:	6078      	str	r0, [r7, #4]
  XMC_ASSERT("XMC_SCU_CLOCK_SetSystemClockDivider:Wrong clock divider value",
              (divider <= (SCU_CLK_SYSCLKCR_SYSDIV_Msk + 1UL)) );

  SCU_CLK->SYSCLKCR = (SCU_CLK->SYSCLKCR & ((uint32_t)~SCU_CLK_SYSCLKCR_SYSDIV_Msk)) |
 8000928:	4906      	ldr	r1, [pc, #24]	; (8000944 <XMC_SCU_CLOCK_SetSystemClockDivider+0x24>)
 800092a:	4b06      	ldr	r3, [pc, #24]	; (8000944 <XMC_SCU_CLOCK_SetSystemClockDivider+0x24>)
 800092c:	68db      	ldr	r3, [r3, #12]
 800092e:	f023 02ff 	bic.w	r2, r3, #255	; 0xff
                      ((uint32_t)(((uint32_t)(divider - 1UL)) << SCU_CLK_SYSCLKCR_SYSDIV_Pos));
 8000932:	687b      	ldr	r3, [r7, #4]
 8000934:	3b01      	subs	r3, #1
void XMC_SCU_CLOCK_SetSystemClockDivider(const uint32_t divider)
{
  XMC_ASSERT("XMC_SCU_CLOCK_SetSystemClockDivider:Wrong clock divider value",
              (divider <= (SCU_CLK_SYSCLKCR_SYSDIV_Msk + 1UL)) );

  SCU_CLK->SYSCLKCR = (SCU_CLK->SYSCLKCR & ((uint32_t)~SCU_CLK_SYSCLKCR_SYSDIV_Msk)) |
 8000936:	4313      	orrs	r3, r2
 8000938:	60cb      	str	r3, [r1, #12]
                      ((uint32_t)(((uint32_t)(divider - 1UL)) << SCU_CLK_SYSCLKCR_SYSDIV_Pos));
}
 800093a:	370c      	adds	r7, #12
 800093c:	46bd      	mov	sp, r7
 800093e:	f85d 7b04 	ldr.w	r7, [sp], #4
 8000942:	4770      	bx	lr
 8000944:	50004600 	.word	0x50004600

08000948 <XMC_SCU_CLOCK_SetCcuClockDivider>:

/* API to program the divider placed between fccu and its parent */
void XMC_SCU_CLOCK_SetCcuClockDivider(const uint32_t divider)
{
 8000948:	b480      	push	{r7}
 800094a:	b083      	sub	sp, #12
 800094c:	af00      	add	r7, sp, #0
 800094e:	6078      	str	r0, [r7, #4]
  XMC_ASSERT("XMC_SCU_CLOCK_SetCapcomClockDivider:Wrong clock divider value", (divider <= 2UL) );

  SCU_CLK->CCUCLKCR = (SCU_CLK->CCUCLKCR & ((uint32_t)~SCU_CLK_CCUCLKCR_CCUDIV_Msk)) |
 8000950:	4906      	ldr	r1, [pc, #24]	; (800096c <XMC_SCU_CLOCK_SetCcuClockDivider+0x24>)
 8000952:	4b06      	ldr	r3, [pc, #24]	; (800096c <XMC_SCU_CLOCK_SetCcuClockDivider+0x24>)
 8000954:	6a1b      	ldr	r3, [r3, #32]
 8000956:	f023 0201 	bic.w	r2, r3, #1
                      (uint32_t)((uint32_t)(divider - 1UL) << SCU_CLK_CCUCLKCR_CCUDIV_Pos);
 800095a:	687b      	ldr	r3, [r7, #4]
 800095c:	3b01      	subs	r3, #1
/* API to program the divider placed between fccu and its parent */
void XMC_SCU_CLOCK_SetCcuClockDivider(const uint32_t divider)
{
  XMC_ASSERT("XMC_SCU_CLOCK_SetCapcomClockDivider:Wrong clock divider value", (divider <= 2UL) );

  SCU_CLK->CCUCLKCR = (SCU_CLK->CCUCLKCR & ((uint32_t)~SCU_CLK_CCUCLKCR_CCUDIV_Msk)) |
 800095e:	4313      	orrs	r3, r2
 8000960:	620b      	str	r3, [r1, #32]
                      (uint32_t)((uint32_t)(divider - 1UL) << SCU_CLK_CCUCLKCR_CCUDIV_Pos);
}
 8000962:	370c      	adds	r7, #12
 8000964:	46bd      	mov	sp, r7
 8000966:	f85d 7b04 	ldr.w	r7, [sp], #4
 800096a:	4770      	bx	lr
 800096c:	50004600 	.word	0x50004600

08000970 <XMC_SCU_CLOCK_SetCpuClockDivider>:

/* API to program the divider placed between fcpu and its parent */
void XMC_SCU_CLOCK_SetCpuClockDivider(const uint32_t divider)
{
 8000970:	b480      	push	{r7}
 8000972:	b083      	sub	sp, #12
 8000974:	af00      	add	r7, sp, #0
 8000976:	6078      	str	r0, [r7, #4]
  XMC_ASSERT("XMC_SCU_CLOCK_SetCpuClockDivider:Wrong clock divider value", (divider <= 2UL) );

  SCU_CLK->CPUCLKCR = (SCU_CLK->CPUCLKCR & ((uint32_t)~SCU_CLK_CPUCLKCR_CPUDIV_Msk)) |
 8000978:	4906      	ldr	r1, [pc, #24]	; (8000994 <XMC_SCU_CLOCK_SetCpuClockDivider+0x24>)
 800097a:	4b06      	ldr	r3, [pc, #24]	; (8000994 <XMC_SCU_CLOCK_SetCpuClockDivider+0x24>)
 800097c:	691b      	ldr	r3, [r3, #16]
 800097e:	f023 0201 	bic.w	r2, r3, #1
                      (uint32_t)((uint32_t)(divider - 1UL) << SCU_CLK_CPUCLKCR_CPUDIV_Pos);
 8000982:	687b      	ldr	r3, [r7, #4]
 8000984:	3b01      	subs	r3, #1
/* API to program the divider placed between fcpu and its parent */
void XMC_SCU_CLOCK_SetCpuClockDivider(const uint32_t divider)
{
  XMC_ASSERT("XMC_SCU_CLOCK_SetCpuClockDivider:Wrong clock divider value", (divider <= 2UL) );

  SCU_CLK->CPUCLKCR = (SCU_CLK->CPUCLKCR & ((uint32_t)~SCU_CLK_CPUCLKCR_CPUDIV_Msk)) |
 8000986:	4313      	orrs	r3, r2
 8000988:	610b      	str	r3, [r1, #16]
                      (uint32_t)((uint32_t)(divider - 1UL) << SCU_CLK_CPUCLKCR_CPUDIV_Pos);
}
 800098a:	370c      	adds	r7, #12
 800098c:	46bd      	mov	sp, r7
 800098e:	f85d 7b04 	ldr.w	r7, [sp], #4
 8000992:	4770      	bx	lr
 8000994:	50004600 	.word	0x50004600

08000998 <XMC_SCU_CLOCK_SetPeripheralClockDivider>:

/* API to program the divider placed between fperiph and its parent */
void XMC_SCU_CLOCK_SetPeripheralClockDivider(const uint32_t divider)
{
 8000998:	b480      	push	{r7}
 800099a:	b083      	sub	sp, #12
 800099c:	af00      	add	r7, sp, #0
 800099e:	6078      	str	r0, [r7, #4]
  XMC_ASSERT("XMC_SCU_CLOCK_SetPeripheralClockDivider:Wrong clock divider value", (divider <= 2UL) );

  SCU_CLK->PBCLKCR = (SCU_CLK->PBCLKCR & ((uint32_t)~SCU_CLK_PBCLKCR_PBDIV_Msk)) |
 80009a0:	4906      	ldr	r1, [pc, #24]	; (80009bc <XMC_SCU_CLOCK_SetPeripheralClockDivider+0x24>)
 80009a2:	4b06      	ldr	r3, [pc, #24]	; (80009bc <XMC_SCU_CLOCK_SetPeripheralClockDivider+0x24>)
 80009a4:	695b      	ldr	r3, [r3, #20]
 80009a6:	f023 0201 	bic.w	r2, r3, #1
                     ((uint32_t)((uint32_t)(divider - 1UL) << SCU_CLK_PBCLKCR_PBDIV_Pos));
 80009aa:	687b      	ldr	r3, [r7, #4]
 80009ac:	3b01      	subs	r3, #1
/* API to program the divider placed between fperiph and its parent */
void XMC_SCU_CLOCK_SetPeripheralClockDivider(const uint32_t divider)
{
  XMC_ASSERT("XMC_SCU_CLOCK_SetPeripheralClockDivider:Wrong clock divider value", (divider <= 2UL) );

  SCU_CLK->PBCLKCR = (SCU_CLK->PBCLKCR & ((uint32_t)~SCU_CLK_PBCLKCR_PBDIV_Msk)) |
 80009ae:	4313      	orrs	r3, r2
 80009b0:	614b      	str	r3, [r1, #20]
                     ((uint32_t)((uint32_t)(divider - 1UL) << SCU_CLK_PBCLKCR_PBDIV_Pos));
}
 80009b2:	370c      	adds	r7, #12
 80009b4:	46bd      	mov	sp, r7
 80009b6:	f85d 7b04 	ldr.w	r7, [sp], #4
 80009ba:	4770      	bx	lr
 80009bc:	50004600 	.word	0x50004600

080009c0 <XMC_SCU_CLOCK_SetUsbClockDivider>:

/* API to program the divider placed between fsdmmc and its parent */
void XMC_SCU_CLOCK_SetUsbClockDivider(const uint32_t divider)
{
 80009c0:	b480      	push	{r7}
 80009c2:	b083      	sub	sp, #12
 80009c4:	af00      	add	r7, sp, #0
 80009c6:	6078      	str	r0, [r7, #4]
  XMC_ASSERT("XMC_SCU_CLOCK_SetSdmmcClockDivider:Wrong clock divider value",
              (divider <= (SCU_CLK_USBCLKCR_USBDIV_Msk + 1UL)) );

  SCU_CLK->USBCLKCR = (SCU_CLK->USBCLKCR & ((uint32_t)~SCU_CLK_USBCLKCR_USBDIV_Msk)) |
 80009c8:	4906      	ldr	r1, [pc, #24]	; (80009e4 <XMC_SCU_CLOCK_SetUsbClockDivider+0x24>)
 80009ca:	4b06      	ldr	r3, [pc, #24]	; (80009e4 <XMC_SCU_CLOCK_SetUsbClockDivider+0x24>)
 80009cc:	699b      	ldr	r3, [r3, #24]
 80009ce:	f023 0207 	bic.w	r2, r3, #7
                      (uint32_t)((uint32_t)(divider - 1UL) << SCU_CLK_USBCLKCR_USBDIV_Pos); 
 80009d2:	687b      	ldr	r3, [r7, #4]
 80009d4:	3b01      	subs	r3, #1
void XMC_SCU_CLOCK_SetUsbClockDivider(const uint32_t divider)
{
  XMC_ASSERT("XMC_SCU_CLOCK_SetSdmmcClockDivider:Wrong clock divider value",
              (divider <= (SCU_CLK_USBCLKCR_USBDIV_Msk + 1UL)) );

  SCU_CLK->USBCLKCR = (SCU_CLK->USBCLKCR & ((uint32_t)~SCU_CLK_USBCLKCR_USBDIV_Msk)) |
 80009d6:	4313      	orrs	r3, r2
 80009d8:	618b      	str	r3, [r1, #24]
                      (uint32_t)((uint32_t)(divider - 1UL) << SCU_CLK_USBCLKCR_USBDIV_Pos); 
}
 80009da:	370c      	adds	r7, #12
 80009dc:	46bd      	mov	sp, r7
 80009de:	f85d 7b04 	ldr.w	r7, [sp], #4
 80009e2:	4770      	bx	lr
 80009e4:	50004600 	.word	0x50004600

080009e8 <XMC_SCU_CLOCK_SetEbuClockDivider>:

#if defined(EBU)
/* API to program the divider placed between febu and its parent */
void XMC_SCU_CLOCK_SetEbuClockDivider(const uint32_t divider)
{
 80009e8:	b480      	push	{r7}
 80009ea:	b083      	sub	sp, #12
 80009ec:	af00      	add	r7, sp, #0
 80009ee:	6078      	str	r0, [r7, #4]
  XMC_ASSERT("XMC_SCU_CLOCK_SetEbuClockDivider:Wrong clock divider value",
              (divider <= (SCU_CLK_EBUCLKCR_EBUDIV_Msk + 1UL) ) );

  SCU_CLK->EBUCLKCR = (SCU_CLK->EBUCLKCR & ((uint32_t)~SCU_CLK_EBUCLKCR_EBUDIV_Msk)) |
 80009f0:	4906      	ldr	r1, [pc, #24]	; (8000a0c <XMC_SCU_CLOCK_SetEbuClockDivider+0x24>)
 80009f2:	4b06      	ldr	r3, [pc, #24]	; (8000a0c <XMC_SCU_CLOCK_SetEbuClockDivider+0x24>)
 80009f4:	69db      	ldr	r3, [r3, #28]
 80009f6:	f023 023f 	bic.w	r2, r3, #63	; 0x3f
                      (uint32_t)(((uint32_t)(divider - 1UL)) << SCU_CLK_EBUCLKCR_EBUDIV_Pos);
 80009fa:	687b      	ldr	r3, [r7, #4]
 80009fc:	3b01      	subs	r3, #1
void XMC_SCU_CLOCK_SetEbuClockDivider(const uint32_t divider)
{
  XMC_ASSERT("XMC_SCU_CLOCK_SetEbuClockDivider:Wrong clock divider value",
              (divider <= (SCU_CLK_EBUCLKCR_EBUDIV_Msk + 1UL) ) );

  SCU_CLK->EBUCLKCR = (SCU_CLK->EBUCLKCR & ((uint32_t)~SCU_CLK_EBUCLKCR_EBUDIV_Msk)) |
 80009fe:	4313      	orrs	r3, r2
 8000a00:	61cb      	str	r3, [r1, #28]
                      (uint32_t)(((uint32_t)(divider - 1UL)) << SCU_CLK_EBUCLKCR_EBUDIV_Pos);
}
 8000a02:	370c      	adds	r7, #12
 8000a04:	46bd      	mov	sp, r7
 8000a06:	f85d 7b04 	ldr.w	r7, [sp], #4
 8000a0a:	4770      	bx	lr
 8000a0c:	50004600 	.word	0x50004600

08000a10 <XMC_SCU_CLOCK_SetWdtClockDivider>:
#endif

/* API to program the divider placed between fwdt and its parent */
void XMC_SCU_CLOCK_SetWdtClockDivider(const uint32_t divider)
{
 8000a10:	b480      	push	{r7}
 8000a12:	b083      	sub	sp, #12
 8000a14:	af00      	add	r7, sp, #0
 8000a16:	6078      	str	r0, [r7, #4]
  XMC_ASSERT("XMC_SCU_CLOCK_SetWdtClockDivider:Wrong clock divider value",
              (divider <= (SCU_CLK_WDTCLKCR_WDTDIV_Msk + 1UL) ) );

  SCU_CLK->WDTCLKCR = (SCU_CLK->WDTCLKCR & ((uint32_t)~SCU_CLK_WDTCLKCR_WDTDIV_Msk)) |
 8000a18:	4906      	ldr	r1, [pc, #24]	; (8000a34 <XMC_SCU_CLOCK_SetWdtClockDivider+0x24>)
 8000a1a:	4b06      	ldr	r3, [pc, #24]	; (8000a34 <XMC_SCU_CLOCK_SetWdtClockDivider+0x24>)
 8000a1c:	6a5b      	ldr	r3, [r3, #36]	; 0x24
 8000a1e:	f023 02ff 	bic.w	r2, r3, #255	; 0xff
                      (uint32_t)(((uint32_t)(divider - 1UL)) << SCU_CLK_WDTCLKCR_WDTDIV_Pos);
 8000a22:	687b      	ldr	r3, [r7, #4]
 8000a24:	3b01      	subs	r3, #1
void XMC_SCU_CLOCK_SetWdtClockDivider(const uint32_t divider)
{
  XMC_ASSERT("XMC_SCU_CLOCK_SetWdtClockDivider:Wrong clock divider value",
              (divider <= (SCU_CLK_WDTCLKCR_WDTDIV_Msk + 1UL) ) );

  SCU_CLK->WDTCLKCR = (SCU_CLK->WDTCLKCR & ((uint32_t)~SCU_CLK_WDTCLKCR_WDTDIV_Msk)) |
 8000a26:	4313      	orrs	r3, r2
 8000a28:	624b      	str	r3, [r1, #36]	; 0x24
                      (uint32_t)(((uint32_t)(divider - 1UL)) << SCU_CLK_WDTCLKCR_WDTDIV_Pos);
}
 8000a2a:	370c      	adds	r7, #12
 8000a2c:	46bd      	mov	sp, r7
 8000a2e:	f85d 7b04 	ldr.w	r7, [sp], #4
 8000a32:	4770      	bx	lr
 8000a34:	50004600 	.word	0x50004600

08000a38 <XMC_SCU_CLOCK_UngatePeripheralClock>:
  *(uint32_t *)((&(SCU_CLK->CGATSET0)) + (index * 3U)) = (uint32_t)mask;
}

/* API to ungate a given module clock */
void XMC_SCU_CLOCK_UngatePeripheralClock(const XMC_SCU_PERIPHERAL_CLOCK_t peripheral)
{
 8000a38:	b480      	push	{r7}
 8000a3a:	b085      	sub	sp, #20
 8000a3c:	af00      	add	r7, sp, #0
 8000a3e:	6078      	str	r0, [r7, #4]
  uint32_t index = (uint32_t)((peripheral & 0xf0000000UL) >> 28UL);
 8000a40:	687b      	ldr	r3, [r7, #4]
 8000a42:	0f1b      	lsrs	r3, r3, #28
 8000a44:	60fb      	str	r3, [r7, #12]
  uint32_t mask = (peripheral & (uint32_t)~0xf0000000UL);
 8000a46:	687b      	ldr	r3, [r7, #4]
 8000a48:	f023 4370 	bic.w	r3, r3, #4026531840	; 0xf0000000
 8000a4c:	60bb      	str	r3, [r7, #8]

  *(uint32_t *)(&(SCU_CLK->CGATCLR0) + (index * 3U)) = (uint32_t)mask;
 8000a4e:	68fa      	ldr	r2, [r7, #12]
 8000a50:	4613      	mov	r3, r2
 8000a52:	005b      	lsls	r3, r3, #1
 8000a54:	4413      	add	r3, r2
 8000a56:	009b      	lsls	r3, r3, #2
 8000a58:	461a      	mov	r2, r3
 8000a5a:	4b04      	ldr	r3, [pc, #16]	; (8000a6c <XMC_SCU_CLOCK_UngatePeripheralClock+0x34>)
 8000a5c:	4413      	add	r3, r2
 8000a5e:	68ba      	ldr	r2, [r7, #8]
 8000a60:	601a      	str	r2, [r3, #0]
}
 8000a62:	3714      	adds	r7, #20
 8000a64:	46bd      	mov	sp, r7
 8000a66:	f85d 7b04 	ldr.w	r7, [sp], #4
 8000a6a:	4770      	bx	lr
 8000a6c:	50004648 	.word	0x50004648

08000a70 <XMC_SCU_CLOCK_IsPeripheralClockGated>:

/* API to ungate a given module clock */
bool XMC_SCU_CLOCK_IsPeripheralClockGated(const XMC_SCU_PERIPHERAL_CLOCK_t peripheral)
{
 8000a70:	b480      	push	{r7}
 8000a72:	b085      	sub	sp, #20
 8000a74:	af00      	add	r7, sp, #0
 8000a76:	6078      	str	r0, [r7, #4]
  uint32_t index = ((peripheral & 0xf0000000UL) >> 28UL);
 8000a78:	687b      	ldr	r3, [r7, #4]
 8000a7a:	0f1b      	lsrs	r3, r3, #28
 8000a7c:	60fb      	str	r3, [r7, #12]
  uint32_t mask = (peripheral & (uint32_t)~0xf0000000UL);
 8000a7e:	687b      	ldr	r3, [r7, #4]
 8000a80:	f023 4370 	bic.w	r3, r3, #4026531840	; 0xf0000000
 8000a84:	60bb      	str	r3, [r7, #8]

  return ((*(uint32_t *)(&(SCU_CLK->CGATSTAT0) + (index * 3U)) & mask) != 0U);
 8000a86:	68fa      	ldr	r2, [r7, #12]
 8000a88:	4613      	mov	r3, r2
 8000a8a:	005b      	lsls	r3, r3, #1
 8000a8c:	4413      	add	r3, r2
 8000a8e:	009b      	lsls	r3, r3, #2
 8000a90:	461a      	mov	r2, r3
 8000a92:	4b08      	ldr	r3, [pc, #32]	; (8000ab4 <XMC_SCU_CLOCK_IsPeripheralClockGated+0x44>)
 8000a94:	4413      	add	r3, r2
 8000a96:	681a      	ldr	r2, [r3, #0]
 8000a98:	68bb      	ldr	r3, [r7, #8]
 8000a9a:	4013      	ands	r3, r2
 8000a9c:	2b00      	cmp	r3, #0
 8000a9e:	bf14      	ite	ne
 8000aa0:	2301      	movne	r3, #1
 8000aa2:	2300      	moveq	r3, #0
 8000aa4:	b2db      	uxtb	r3, r3
}
 8000aa6:	4618      	mov	r0, r3
 8000aa8:	3714      	adds	r7, #20
 8000aaa:	46bd      	mov	sp, r7
 8000aac:	f85d 7b04 	ldr.w	r7, [sp], #4
 8000ab0:	4770      	bx	lr
 8000ab2:	bf00      	nop
 8000ab4:	50004640 	.word	0x50004640

08000ab8 <XMC_SCU_CLOCK_StartUsbPll>:
  SCU_PLL->USBPLLCON |= (uint32_t)(SCU_PLL_USBPLLCON_VCOPWD_Msk | SCU_PLL_USBPLLCON_PLLPWD_Msk);
}

/* API to configure USB PLL */
void XMC_SCU_CLOCK_StartUsbPll(uint32_t pdiv, uint32_t ndiv)
{
 8000ab8:	b480      	push	{r7}
 8000aba:	b083      	sub	sp, #12
 8000abc:	af00      	add	r7, sp, #0
 8000abe:	6078      	str	r0, [r7, #4]
 8000ac0:	6039      	str	r1, [r7, #0]
  /* Go to bypass the USB PLL */
  SCU_PLL->USBPLLCON |= (uint32_t)SCU_PLL_USBPLLCON_VCOBYP_Msk;
 8000ac2:	4a19      	ldr	r2, [pc, #100]	; (8000b28 <XMC_SCU_CLOCK_StartUsbPll+0x70>)
 8000ac4:	4b18      	ldr	r3, [pc, #96]	; (8000b28 <XMC_SCU_CLOCK_StartUsbPll+0x70>)
 8000ac6:	695b      	ldr	r3, [r3, #20]
 8000ac8:	f043 0301 	orr.w	r3, r3, #1
 8000acc:	6153      	str	r3, [r2, #20]

  /* disconnect Oscillator from USB PLL */
  SCU_PLL->USBPLLCON |= (uint32_t)SCU_PLL_USBPLLCON_FINDIS_Msk;
 8000ace:	4a16      	ldr	r2, [pc, #88]	; (8000b28 <XMC_SCU_CLOCK_StartUsbPll+0x70>)
 8000ad0:	4b15      	ldr	r3, [pc, #84]	; (8000b28 <XMC_SCU_CLOCK_StartUsbPll+0x70>)
 8000ad2:	695b      	ldr	r3, [r3, #20]
 8000ad4:	f043 0310 	orr.w	r3, r3, #16
 8000ad8:	6153      	str	r3, [r2, #20]

  /* Setup Divider settings for USB PLL */
  SCU_PLL->USBPLLCON = (uint32_t)((uint32_t)((ndiv -1U) << SCU_PLL_USBPLLCON_NDIV_Pos) |
 8000ada:	4913      	ldr	r1, [pc, #76]	; (8000b28 <XMC_SCU_CLOCK_StartUsbPll+0x70>)
 8000adc:	683b      	ldr	r3, [r7, #0]
 8000ade:	3b01      	subs	r3, #1
 8000ae0:	021a      	lsls	r2, r3, #8
                       (uint32_t)((pdiv - 1U) << SCU_PLL_USBPLLCON_PDIV_Pos));
 8000ae2:	687b      	ldr	r3, [r7, #4]
 8000ae4:	3b01      	subs	r3, #1
 8000ae6:	061b      	lsls	r3, r3, #24

  /* disconnect Oscillator from USB PLL */
  SCU_PLL->USBPLLCON |= (uint32_t)SCU_PLL_USBPLLCON_FINDIS_Msk;

  /* Setup Divider settings for USB PLL */
  SCU_PLL->USBPLLCON = (uint32_t)((uint32_t)((ndiv -1U) << SCU_PLL_USBPLLCON_NDIV_Pos) |
 8000ae8:	4313      	orrs	r3, r2
 8000aea:	614b      	str	r3, [r1, #20]
                       (uint32_t)((pdiv - 1U) << SCU_PLL_USBPLLCON_PDIV_Pos));

  /* Set OSCDISCDIS */
  SCU_PLL->USBPLLCON |= (uint32_t)SCU_PLL_USBPLLCON_OSCDISCDIS_Msk;
 8000aec:	4a0e      	ldr	r2, [pc, #56]	; (8000b28 <XMC_SCU_CLOCK_StartUsbPll+0x70>)
 8000aee:	4b0e      	ldr	r3, [pc, #56]	; (8000b28 <XMC_SCU_CLOCK_StartUsbPll+0x70>)
 8000af0:	695b      	ldr	r3, [r3, #20]
 8000af2:	f043 0340 	orr.w	r3, r3, #64	; 0x40
 8000af6:	6153      	str	r3, [r2, #20]

  /* connect Oscillator to USB PLL */
  SCU_PLL->USBPLLCON &= (uint32_t)~SCU_PLL_USBPLLCON_FINDIS_Msk;
 8000af8:	4a0b      	ldr	r2, [pc, #44]	; (8000b28 <XMC_SCU_CLOCK_StartUsbPll+0x70>)
 8000afa:	4b0b      	ldr	r3, [pc, #44]	; (8000b28 <XMC_SCU_CLOCK_StartUsbPll+0x70>)
 8000afc:	695b      	ldr	r3, [r3, #20]
 8000afe:	f023 0310 	bic.w	r3, r3, #16
 8000b02:	6153      	str	r3, [r2, #20]

  /* restart PLL Lock detection */
  SCU_PLL->USBPLLCON |= (uint32_t)SCU_PLL_USBPLLCON_RESLD_Msk;
 8000b04:	4a08      	ldr	r2, [pc, #32]	; (8000b28 <XMC_SCU_CLOCK_StartUsbPll+0x70>)
 8000b06:	4b08      	ldr	r3, [pc, #32]	; (8000b28 <XMC_SCU_CLOCK_StartUsbPll+0x70>)
 8000b08:	695b      	ldr	r3, [r3, #20]
 8000b0a:	f443 2380 	orr.w	r3, r3, #262144	; 0x40000
 8000b0e:	6153      	str	r3, [r2, #20]

  while ((SCU_PLL->USBPLLSTAT & SCU_PLL_USBPLLSTAT_VCOLOCK_Msk) == 0U)
 8000b10:	bf00      	nop
 8000b12:	4b05      	ldr	r3, [pc, #20]	; (8000b28 <XMC_SCU_CLOCK_StartUsbPll+0x70>)
 8000b14:	691b      	ldr	r3, [r3, #16]
 8000b16:	f003 0304 	and.w	r3, r3, #4
 8000b1a:	2b00      	cmp	r3, #0
 8000b1c:	d0f9      	beq.n	8000b12 <XMC_SCU_CLOCK_StartUsbPll+0x5a>
  {
    /* wait for PLL Lock */
  }

}
 8000b1e:	370c      	adds	r7, #12
 8000b20:	46bd      	mov	sp, r7
 8000b22:	f85d 7b04 	ldr.w	r7, [sp], #4
 8000b26:	4770      	bx	lr
 8000b28:	50004710 	.word	0x50004710

08000b2c <XMC_SCU_CLOCK_SetBackupClockCalibrationMode>:
                                  SCU_PLL_USBPLLCON_VCOBYP_Msk);
}

/* API to onfigure the calibration mode for internal oscillator */
void XMC_SCU_CLOCK_SetBackupClockCalibrationMode(XMC_SCU_CLOCK_FOFI_CALIBRATION_MODE_t mode)
{
 8000b2c:	b580      	push	{r7, lr}
 8000b2e:	b082      	sub	sp, #8
 8000b30:	af00      	add	r7, sp, #0
 8000b32:	4603      	mov	r3, r0
 8000b34:	71fb      	strb	r3, [r7, #7]
  /* Enable factory calibration based trimming */
  SCU_PLL->PLLCON0 |= (uint32_t)SCU_PLL_PLLCON0_FOTR_Msk;
 8000b36:	4a0f      	ldr	r2, [pc, #60]	; (8000b74 <XMC_SCU_CLOCK_SetBackupClockCalibrationMode+0x48>)
 8000b38:	4b0e      	ldr	r3, [pc, #56]	; (8000b74 <XMC_SCU_CLOCK_SetBackupClockCalibrationMode+0x48>)
 8000b3a:	685b      	ldr	r3, [r3, #4]
 8000b3c:	f443 1380 	orr.w	r3, r3, #1048576	; 0x100000
 8000b40:	6053      	str	r3, [r2, #4]

  if (mode == XMC_SCU_CLOCK_FOFI_CALIBRATION_MODE_AUTOMATIC)
 8000b42:	79fb      	ldrb	r3, [r7, #7]
 8000b44:	2b01      	cmp	r3, #1
 8000b46:	d10e      	bne.n	8000b66 <XMC_SCU_CLOCK_SetBackupClockCalibrationMode+0x3a>
  {
    /* Disable factory calibration based trimming */
    SCU_PLL->PLLCON0 &= (uint32_t)~SCU_PLL_PLLCON0_FOTR_Msk;
 8000b48:	4a0a      	ldr	r2, [pc, #40]	; (8000b74 <XMC_SCU_CLOCK_SetBackupClockCalibrationMode+0x48>)
 8000b4a:	4b0a      	ldr	r3, [pc, #40]	; (8000b74 <XMC_SCU_CLOCK_SetBackupClockCalibrationMode+0x48>)
 8000b4c:	685b      	ldr	r3, [r3, #4]
 8000b4e:	f423 1380 	bic.w	r3, r3, #1048576	; 0x100000
 8000b52:	6053      	str	r3, [r2, #4]
    XMC_SCU_lDelay(100UL);
 8000b54:	2064      	movs	r0, #100	; 0x64
 8000b56:	f7ff fd49 	bl	80005ec <XMC_SCU_lDelay>

    /* Enable automatic calibration */
    SCU_PLL->PLLCON0 |= (uint32_t)SCU_PLL_PLLCON0_AOTREN_Msk;
 8000b5a:	4a06      	ldr	r2, [pc, #24]	; (8000b74 <XMC_SCU_CLOCK_SetBackupClockCalibrationMode+0x48>)
 8000b5c:	4b05      	ldr	r3, [pc, #20]	; (8000b74 <XMC_SCU_CLOCK_SetBackupClockCalibrationMode+0x48>)
 8000b5e:	685b      	ldr	r3, [r3, #4]
 8000b60:	f443 2300 	orr.w	r3, r3, #524288	; 0x80000
 8000b64:	6053      	str	r3, [r2, #4]
  }

  XMC_SCU_lDelay(100UL);
 8000b66:	2064      	movs	r0, #100	; 0x64
 8000b68:	f7ff fd40 	bl	80005ec <XMC_SCU_lDelay>
}
 8000b6c:	3708      	adds	r7, #8
 8000b6e:	46bd      	mov	sp, r7
 8000b70:	bd80      	pop	{r7, pc}
 8000b72:	bf00      	nop
 8000b74:	50004710 	.word	0x50004710

08000b78 <XMC_SCU_HIB_EnableHibernateDomain>:
  return (bool)((SCU_PLL->USBPLLSTAT & SCU_PLL_USBPLLSTAT_VCOLOCK_Msk) != 0UL);
}

/* API to power up the hibernation domain */
void XMC_SCU_HIB_EnableHibernateDomain(void)
{
 8000b78:	b480      	push	{r7}
 8000b7a:	af00      	add	r7, sp, #0
  /* Power up HIB domain if and only if it is currently powered down */
  if((SCU_POWER->PWRSTAT & SCU_POWER_PWRSTAT_HIBEN_Msk) == 0UL)
 8000b7c:	4b12      	ldr	r3, [pc, #72]	; (8000bc8 <XMC_SCU_HIB_EnableHibernateDomain+0x50>)
 8000b7e:	681b      	ldr	r3, [r3, #0]
 8000b80:	f003 0301 	and.w	r3, r3, #1
 8000b84:	2b00      	cmp	r3, #0
 8000b86:	d109      	bne.n	8000b9c <XMC_SCU_HIB_EnableHibernateDomain+0x24>
  {
    SCU_POWER->PWRSET = (uint32_t)SCU_POWER_PWRSET_HIB_Msk;
 8000b88:	4b0f      	ldr	r3, [pc, #60]	; (8000bc8 <XMC_SCU_HIB_EnableHibernateDomain+0x50>)
 8000b8a:	2201      	movs	r2, #1
 8000b8c:	605a      	str	r2, [r3, #4]
    
    while((SCU_POWER->PWRSTAT & SCU_POWER_PWRSTAT_HIBEN_Msk) == 0UL)
 8000b8e:	bf00      	nop
 8000b90:	4b0d      	ldr	r3, [pc, #52]	; (8000bc8 <XMC_SCU_HIB_EnableHibernateDomain+0x50>)
 8000b92:	681b      	ldr	r3, [r3, #0]
 8000b94:	f003 0301 	and.w	r3, r3, #1
 8000b98:	2b00      	cmp	r3, #0
 8000b9a:	d0f9      	beq.n	8000b90 <XMC_SCU_HIB_EnableHibernateDomain+0x18>
      /* wait until HIB domain is enabled */
    }    
  }
  
  /* Remove the reset only if HIB domain were in a state of reset */
  if((SCU_RESET->RSTSTAT) & SCU_RESET_RSTSTAT_HIBRS_Msk)
 8000b9c:	4b0b      	ldr	r3, [pc, #44]	; (8000bcc <XMC_SCU_HIB_EnableHibernateDomain+0x54>)
 8000b9e:	681b      	ldr	r3, [r3, #0]
 8000ba0:	f403 7300 	and.w	r3, r3, #512	; 0x200
 8000ba4:	2b00      	cmp	r3, #0
 8000ba6:	d00a      	beq.n	8000bbe <XMC_SCU_HIB_EnableHibernateDomain+0x46>
  {
    SCU_RESET->RSTCLR = (uint32_t)SCU_RESET_RSTCLR_HIBRS_Msk;
 8000ba8:	4b08      	ldr	r3, [pc, #32]	; (8000bcc <XMC_SCU_HIB_EnableHibernateDomain+0x54>)
 8000baa:	f44f 7200 	mov.w	r2, #512	; 0x200
 8000bae:	609a      	str	r2, [r3, #8]
    while((SCU_RESET->RSTSTAT & SCU_RESET_RSTSTAT_HIBRS_Msk) != 0UL)
 8000bb0:	bf00      	nop
 8000bb2:	4b06      	ldr	r3, [pc, #24]	; (8000bcc <XMC_SCU_HIB_EnableHibernateDomain+0x54>)
 8000bb4:	681b      	ldr	r3, [r3, #0]
 8000bb6:	f403 7300 	and.w	r3, r3, #512	; 0x200
 8000bba:	2b00      	cmp	r3, #0
 8000bbc:	d1f9      	bne.n	8000bb2 <XMC_SCU_HIB_EnableHibernateDomain+0x3a>
    {
      /* wait until HIB domain is enabled */
    }
  }
}
 8000bbe:	46bd      	mov	sp, r7
 8000bc0:	f85d 7b04 	ldr.w	r7, [sp], #4
 8000bc4:	4770      	bx	lr
 8000bc6:	bf00      	nop
 8000bc8:	50004200 	.word	0x50004200
 8000bcc:	50004400 	.word	0x50004400

08000bd0 <XMC_SCU_CLOCK_IsLowPowerOscillatorStable>:
}

#endif

bool XMC_SCU_CLOCK_IsLowPowerOscillatorStable(void)
{
 8000bd0:	b480      	push	{r7}
 8000bd2:	af00      	add	r7, sp, #0
  return ((SCU_HIBERNATE->HDSTAT & SCU_HIBERNATE_HDSTAT_ULPWDG_Msk) == 0UL);
 8000bd4:	4b06      	ldr	r3, [pc, #24]	; (8000bf0 <XMC_SCU_CLOCK_IsLowPowerOscillatorStable+0x20>)
 8000bd6:	681b      	ldr	r3, [r3, #0]
 8000bd8:	f003 0308 	and.w	r3, r3, #8
 8000bdc:	2b00      	cmp	r3, #0
 8000bde:	bf0c      	ite	eq
 8000be0:	2301      	moveq	r3, #1
 8000be2:	2300      	movne	r3, #0
 8000be4:	b2db      	uxtb	r3, r3
}
 8000be6:	4618      	mov	r0, r3
 8000be8:	46bd      	mov	sp, r7
 8000bea:	f85d 7b04 	ldr.w	r7, [sp], #4
 8000bee:	4770      	bx	lr
 8000bf0:	50004300 	.word	0x50004300

08000bf4 <XMC_SCU_CLOCK_EnableLowPowerOscillator>:

/* API to configure the 32khz Ultra Low Power oscillator */
void XMC_SCU_CLOCK_EnableLowPowerOscillator(void)
{
 8000bf4:	b580      	push	{r7, lr}
 8000bf6:	af00      	add	r7, sp, #0
  /* Enable OSC_ULP */
  XMC_SCU_INTERRUPT_ClearEventStatus(XMC_SCU_INTERRUPT_EVENT_OSCULCTRL_UPDATED);
 8000bf8:	f44f 0000 	mov.w	r0, #8388608	; 0x800000
 8000bfc:	f7ff fd24 	bl	8000648 <XMC_SCU_INTERRUPT_ClearEventStatus>
  SCU_HIBERNATE->OSCULCTRL &= ~SCU_HIBERNATE_OSCULCTRL_MODE_Msk;
 8000c00:	4a17      	ldr	r2, [pc, #92]	; (8000c60 <XMC_SCU_CLOCK_EnableLowPowerOscillator+0x6c>)
 8000c02:	4b17      	ldr	r3, [pc, #92]	; (8000c60 <XMC_SCU_CLOCK_EnableLowPowerOscillator+0x6c>)
 8000c04:	69db      	ldr	r3, [r3, #28]
 8000c06:	f023 0330 	bic.w	r3, r3, #48	; 0x30
 8000c0a:	61d3      	str	r3, [r2, #28]
  while ((XMC_SCU_INTERUPT_GetEventStatus() & XMC_SCU_INTERRUPT_EVENT_OSCULCTRL_UPDATED) == 0);
 8000c0c:	bf00      	nop
 8000c0e:	f7ff fd0f 	bl	8000630 <XMC_SCU_INTERUPT_GetEventStatus>
 8000c12:	4603      	mov	r3, r0
 8000c14:	f403 0300 	and.w	r3, r3, #8388608	; 0x800000
 8000c18:	2b00      	cmp	r3, #0
 8000c1a:	d0f8      	beq.n	8000c0e <XMC_SCU_CLOCK_EnableLowPowerOscillator+0x1a>

  /* Clear ULP WDG status */
  XMC_SCU_INTERRUPT_ClearEventStatus(XMC_SCU_INTERRUPT_EVENT_HDCLR_UPDATED);
 8000c1c:	f44f 3000 	mov.w	r0, #131072	; 0x20000
 8000c20:	f7ff fd12 	bl	8000648 <XMC_SCU_INTERRUPT_ClearEventStatus>
  SCU_HIBERNATE->HDCLR = (uint32_t)SCU_HIBERNATE_HDCLR_ULPWDG_Msk;
 8000c24:	4b0e      	ldr	r3, [pc, #56]	; (8000c60 <XMC_SCU_CLOCK_EnableLowPowerOscillator+0x6c>)
 8000c26:	2208      	movs	r2, #8
 8000c28:	605a      	str	r2, [r3, #4]
  while ((XMC_SCU_INTERUPT_GetEventStatus() & XMC_SCU_INTERRUPT_EVENT_HDCLR_UPDATED) == 0);
 8000c2a:	bf00      	nop
 8000c2c:	f7ff fd00 	bl	8000630 <XMC_SCU_INTERUPT_GetEventStatus>
 8000c30:	4603      	mov	r3, r0
 8000c32:	f403 3300 	and.w	r3, r3, #131072	; 0x20000
 8000c36:	2b00      	cmp	r3, #0
 8000c38:	d0f8      	beq.n	8000c2c <XMC_SCU_CLOCK_EnableLowPowerOscillator+0x38>

  /* Enable ULP WDG */
  XMC_SCU_INTERRUPT_ClearEventStatus(XMC_SCU_INTERRUPT_EVENT_HDCR_UPDATED);
 8000c3a:	f44f 2000 	mov.w	r0, #524288	; 0x80000
 8000c3e:	f7ff fd03 	bl	8000648 <XMC_SCU_INTERRUPT_ClearEventStatus>
  SCU_HIBERNATE->HDCR |= (uint32_t)SCU_HIBERNATE_HDCR_ULPWDGEN_Msk;
 8000c42:	4a07      	ldr	r2, [pc, #28]	; (8000c60 <XMC_SCU_CLOCK_EnableLowPowerOscillator+0x6c>)
 8000c44:	4b06      	ldr	r3, [pc, #24]	; (8000c60 <XMC_SCU_CLOCK_EnableLowPowerOscillator+0x6c>)
 8000c46:	68db      	ldr	r3, [r3, #12]
 8000c48:	f043 0308 	orr.w	r3, r3, #8
 8000c4c:	60d3      	str	r3, [r2, #12]
  while ((XMC_SCU_INTERUPT_GetEventStatus() & XMC_SCU_INTERRUPT_EVENT_HDCR_UPDATED) == 0);
 8000c4e:	bf00      	nop
 8000c50:	f7ff fcee 	bl	8000630 <XMC_SCU_INTERUPT_GetEventStatus>
 8000c54:	4603      	mov	r3, r0
 8000c56:	f403 2300 	and.w	r3, r3, #524288	; 0x80000
 8000c5a:	2b00      	cmp	r3, #0
 8000c5c:	d0f8      	beq.n	8000c50 <XMC_SCU_CLOCK_EnableLowPowerOscillator+0x5c>
}
 8000c5e:	bd80      	pop	{r7, pc}
 8000c60:	50004300 	.word	0x50004300

08000c64 <XMC_SCU_CLOCK_EnableHighPerformanceOscillator>:
  return (SCU_HIBERNATE->OSCULSTAT & SCU_HIBERNATE_OSCULSTAT_X1D_Msk);
}

/* API to enable High Precision High Speed oscillator */
void XMC_SCU_CLOCK_EnableHighPerformanceOscillator(void)
{
 8000c64:	b5b0      	push	{r4, r5, r7, lr}
 8000c66:	af00      	add	r7, sp, #0
  SCU_PLL->PLLCON0 &= (uint32_t)~SCU_PLL_PLLCON0_PLLPWD_Msk;
 8000c68:	4a0f      	ldr	r2, [pc, #60]	; (8000ca8 <XMC_SCU_CLOCK_EnableHighPerformanceOscillator+0x44>)
 8000c6a:	4b0f      	ldr	r3, [pc, #60]	; (8000ca8 <XMC_SCU_CLOCK_EnableHighPerformanceOscillator+0x44>)
 8000c6c:	685b      	ldr	r3, [r3, #4]
 8000c6e:	f423 3380 	bic.w	r3, r3, #65536	; 0x10000
 8000c72:	6053      	str	r3, [r2, #4]

  SCU_OSC->OSCHPCTRL = (uint32_t)((SCU_OSC->OSCHPCTRL & ~(SCU_OSC_OSCHPCTRL_MODE_Msk | SCU_OSC_OSCHPCTRL_OSCVAL_Msk)) |
 8000c74:	4d0d      	ldr	r5, [pc, #52]	; (8000cac <XMC_SCU_CLOCK_EnableHighPerformanceOscillator+0x48>)
 8000c76:	4b0d      	ldr	r3, [pc, #52]	; (8000cac <XMC_SCU_CLOCK_EnableHighPerformanceOscillator+0x48>)
 8000c78:	685b      	ldr	r3, [r3, #4]
 8000c7a:	f423 2470 	bic.w	r4, r3, #983040	; 0xf0000
 8000c7e:	f024 0430 	bic.w	r4, r4, #48	; 0x30
                                  (((OSCHP_GetFrequency() / FOSCREF) - 1UL) << SCU_OSC_OSCHPCTRL_OSCVAL_Pos));
 8000c82:	f004 fa13 	bl	80050ac <OSCHP_GetFrequency>
 8000c86:	4602      	mov	r2, r0
 8000c88:	4b09      	ldr	r3, [pc, #36]	; (8000cb0 <XMC_SCU_CLOCK_EnableHighPerformanceOscillator+0x4c>)
 8000c8a:	fba3 2302 	umull	r2, r3, r3, r2
 8000c8e:	0d1b      	lsrs	r3, r3, #20
 8000c90:	3b01      	subs	r3, #1
 8000c92:	041b      	lsls	r3, r3, #16
/* API to enable High Precision High Speed oscillator */
void XMC_SCU_CLOCK_EnableHighPerformanceOscillator(void)
{
  SCU_PLL->PLLCON0 &= (uint32_t)~SCU_PLL_PLLCON0_PLLPWD_Msk;

  SCU_OSC->OSCHPCTRL = (uint32_t)((SCU_OSC->OSCHPCTRL & ~(SCU_OSC_OSCHPCTRL_MODE_Msk | SCU_OSC_OSCHPCTRL_OSCVAL_Msk)) |
 8000c94:	4323      	orrs	r3, r4
 8000c96:	606b      	str	r3, [r5, #4]
                                  (((OSCHP_GetFrequency() / FOSCREF) - 1UL) << SCU_OSC_OSCHPCTRL_OSCVAL_Pos));

  /* restart OSC Watchdog */
  SCU_PLL->PLLCON0 &= (uint32_t)~SCU_PLL_PLLCON0_OSCRES_Msk;
 8000c98:	4a03      	ldr	r2, [pc, #12]	; (8000ca8 <XMC_SCU_CLOCK_EnableHighPerformanceOscillator+0x44>)
 8000c9a:	4b03      	ldr	r3, [pc, #12]	; (8000ca8 <XMC_SCU_CLOCK_EnableHighPerformanceOscillator+0x44>)
 8000c9c:	685b      	ldr	r3, [r3, #4]
 8000c9e:	f423 3300 	bic.w	r3, r3, #131072	; 0x20000
 8000ca2:	6053      	str	r3, [r2, #4]
}
 8000ca4:	bdb0      	pop	{r4, r5, r7, pc}
 8000ca6:	bf00      	nop
 8000ca8:	50004710 	.word	0x50004710
 8000cac:	50004700 	.word	0x50004700
 8000cb0:	6b5fca6b 	.word	0x6b5fca6b

08000cb4 <XMC_SCU_CLOCK_IsHighPerformanceOscillatorStable>:

bool XMC_SCU_CLOCK_IsHighPerformanceOscillatorStable(void)
{
 8000cb4:	b480      	push	{r7}
 8000cb6:	af00      	add	r7, sp, #0
  return ((SCU_PLL->PLLSTAT & XMC_SCU_PLL_PLLSTAT_OSC_USABLE) == XMC_SCU_PLL_PLLSTAT_OSC_USABLE);
 8000cb8:	4b07      	ldr	r3, [pc, #28]	; (8000cd8 <XMC_SCU_CLOCK_IsHighPerformanceOscillatorStable+0x24>)
 8000cba:	681b      	ldr	r3, [r3, #0]
 8000cbc:	f403 7360 	and.w	r3, r3, #896	; 0x380
 8000cc0:	f5b3 7f60 	cmp.w	r3, #896	; 0x380
 8000cc4:	bf0c      	ite	eq
 8000cc6:	2301      	moveq	r3, #1
 8000cc8:	2300      	movne	r3, #0
 8000cca:	b2db      	uxtb	r3, r3
}
 8000ccc:	4618      	mov	r0, r3
 8000cce:	46bd      	mov	sp, r7
 8000cd0:	f85d 7b04 	ldr.w	r7, [sp], #4
 8000cd4:	4770      	bx	lr
 8000cd6:	bf00      	nop
 8000cd8:	50004710 	.word	0x50004710

08000cdc <XMC_SCU_CLOCK_EnableSystemPll>:
  return (SCU_OSC->OSCHPSTAT & SCU_OSC_OSCHPSTAT_X1D_Msk);
}

/* API to enable main PLL */
void XMC_SCU_CLOCK_EnableSystemPll(void)
{
 8000cdc:	b480      	push	{r7}
 8000cde:	af00      	add	r7, sp, #0
  SCU_PLL->PLLCON0 &= (uint32_t)~(SCU_PLL_PLLCON0_VCOPWD_Msk | SCU_PLL_PLLCON0_PLLPWD_Msk);
 8000ce0:	4a05      	ldr	r2, [pc, #20]	; (8000cf8 <XMC_SCU_CLOCK_EnableSystemPll+0x1c>)
 8000ce2:	4b05      	ldr	r3, [pc, #20]	; (8000cf8 <XMC_SCU_CLOCK_EnableSystemPll+0x1c>)
 8000ce4:	685b      	ldr	r3, [r3, #4]
 8000ce6:	f423 3380 	bic.w	r3, r3, #65536	; 0x10000
 8000cea:	f023 0302 	bic.w	r3, r3, #2
 8000cee:	6053      	str	r3, [r2, #4]
}
 8000cf0:	46bd      	mov	sp, r7
 8000cf2:	f85d 7b04 	ldr.w	r7, [sp], #4
 8000cf6:	4770      	bx	lr
 8000cf8:	50004710 	.word	0x50004710

08000cfc <XMC_SCU_CLOCK_DisableSystemPll>:

/* API to disable main PLL */
void XMC_SCU_CLOCK_DisableSystemPll(void)
{
 8000cfc:	b480      	push	{r7}
 8000cfe:	af00      	add	r7, sp, #0
  SCU_PLL->PLLCON0 |= (uint32_t)(SCU_PLL_PLLCON0_VCOPWD_Msk | SCU_PLL_PLLCON0_PLLPWD_Msk);
 8000d00:	4a05      	ldr	r2, [pc, #20]	; (8000d18 <XMC_SCU_CLOCK_DisableSystemPll+0x1c>)
 8000d02:	4b05      	ldr	r3, [pc, #20]	; (8000d18 <XMC_SCU_CLOCK_DisableSystemPll+0x1c>)
 8000d04:	685b      	ldr	r3, [r3, #4]
 8000d06:	f443 3380 	orr.w	r3, r3, #65536	; 0x10000
 8000d0a:	f043 0302 	orr.w	r3, r3, #2
 8000d0e:	6053      	str	r3, [r2, #4]
}
 8000d10:	46bd      	mov	sp, r7
 8000d12:	f85d 7b04 	ldr.w	r7, [sp], #4
 8000d16:	4770      	bx	lr
 8000d18:	50004710 	.word	0x50004710

08000d1c <XMC_SCU_CLOCK_StartSystemPll>:
void XMC_SCU_CLOCK_StartSystemPll(XMC_SCU_CLOCK_SYSPLLCLKSRC_t source,
                                  XMC_SCU_CLOCK_SYSPLL_MODE_t mode,
                                  uint32_t pdiv,
                                  uint32_t ndiv,
                                  uint32_t kdiv)
{
 8000d1c:	b580      	push	{r7, lr}
 8000d1e:	b086      	sub	sp, #24
 8000d20:	af00      	add	r7, sp, #0
 8000d22:	60ba      	str	r2, [r7, #8]
 8000d24:	607b      	str	r3, [r7, #4]
 8000d26:	4603      	mov	r3, r0
 8000d28:	81fb      	strh	r3, [r7, #14]
 8000d2a:	460b      	mov	r3, r1
 8000d2c:	737b      	strb	r3, [r7, #13]

  uint32_t vco_frequency; /* Q10.22, max VCO frequency = 520MHz */
  uint32_t kdiv_temp;

  XMC_SCU_CLOCK_SetSystemPllClockSource(source);
 8000d2e:	89fb      	ldrh	r3, [r7, #14]
 8000d30:	4618      	mov	r0, r3
 8000d32:	f7ff fd99 	bl	8000868 <XMC_SCU_CLOCK_SetSystemPllClockSource>

  if (mode == XMC_SCU_CLOCK_SYSPLL_MODE_NORMAL)
 8000d36:	7b7b      	ldrb	r3, [r7, #13]
 8000d38:	2b01      	cmp	r3, #1
 8000d3a:	f040 8084 	bne.w	8000e46 <XMC_SCU_CLOCK_StartSystemPll+0x12a>
  {
    /* Calculate initial step to be close to fOFI */
    if (source == XMC_SCU_CLOCK_SYSPLLCLKSRC_OSCHP)
 8000d3e:	89fb      	ldrh	r3, [r7, #14]
 8000d40:	2b00      	cmp	r3, #0
 8000d42:	d109      	bne.n	8000d58 <XMC_SCU_CLOCK_StartSystemPll+0x3c>
    {
      vco_frequency = (OSCHP_GetFrequency() / 1000000U) << 22;
 8000d44:	f004 f9b2 	bl	80050ac <OSCHP_GetFrequency>
 8000d48:	4602      	mov	r2, r0
 8000d4a:	4b4b      	ldr	r3, [pc, #300]	; (8000e78 <XMC_SCU_CLOCK_StartSystemPll+0x15c>)
 8000d4c:	fba3 2302 	umull	r2, r3, r3, r2
 8000d50:	0c9b      	lsrs	r3, r3, #18
 8000d52:	059b      	lsls	r3, r3, #22
 8000d54:	617b      	str	r3, [r7, #20]
 8000d56:	e002      	b.n	8000d5e <XMC_SCU_CLOCK_StartSystemPll+0x42>
    }
    else
    {
      vco_frequency = (OFI_FREQUENCY / 1000000U) << 22;
 8000d58:	f04f 63c0 	mov.w	r3, #100663296	; 0x6000000
 8000d5c:	617b      	str	r3, [r7, #20]
    }
    vco_frequency = ((vco_frequency * ndiv) / pdiv);
 8000d5e:	697b      	ldr	r3, [r7, #20]
 8000d60:	687a      	ldr	r2, [r7, #4]
 8000d62:	fb02 f203 	mul.w	r2, r2, r3
 8000d66:	68bb      	ldr	r3, [r7, #8]
 8000d68:	fbb2 f3f3 	udiv	r3, r2, r3
 8000d6c:	617b      	str	r3, [r7, #20]
    kdiv_temp = (vco_frequency / (OFI_FREQUENCY / 1000000U)) >> 22;
 8000d6e:	697b      	ldr	r3, [r7, #20]
 8000d70:	4a42      	ldr	r2, [pc, #264]	; (8000e7c <XMC_SCU_CLOCK_StartSystemPll+0x160>)
 8000d72:	fba2 2303 	umull	r2, r3, r2, r3
 8000d76:	091b      	lsrs	r3, r3, #4
 8000d78:	0d9b      	lsrs	r3, r3, #22
 8000d7a:	613b      	str	r3, [r7, #16]

    /* Switch to prescaler mode */
    SCU_PLL->PLLCON0 |= (uint32_t)SCU_PLL_PLLCON0_VCOBYP_Msk;
 8000d7c:	4a40      	ldr	r2, [pc, #256]	; (8000e80 <XMC_SCU_CLOCK_StartSystemPll+0x164>)
 8000d7e:	4b40      	ldr	r3, [pc, #256]	; (8000e80 <XMC_SCU_CLOCK_StartSystemPll+0x164>)
 8000d80:	685b      	ldr	r3, [r3, #4]
 8000d82:	f043 0301 	orr.w	r3, r3, #1
 8000d86:	6053      	str	r3, [r2, #4]

    /* disconnect Oscillator from PLL */
    SCU_PLL->PLLCON0 |= (uint32_t)SCU_PLL_PLLCON0_FINDIS_Msk;
 8000d88:	4a3d      	ldr	r2, [pc, #244]	; (8000e80 <XMC_SCU_CLOCK_StartSystemPll+0x164>)
 8000d8a:	4b3d      	ldr	r3, [pc, #244]	; (8000e80 <XMC_SCU_CLOCK_StartSystemPll+0x164>)
 8000d8c:	685b      	ldr	r3, [r3, #4]
 8000d8e:	f043 0310 	orr.w	r3, r3, #16
 8000d92:	6053      	str	r3, [r2, #4]

    /* Setup divider settings for main PLL */
    SCU_PLL->PLLCON1 = (uint32_t)((SCU_PLL->PLLCON1 & ~(SCU_PLL_PLLCON1_NDIV_Msk | SCU_PLL_PLLCON1_K2DIV_Msk |
 8000d94:	493a      	ldr	r1, [pc, #232]	; (8000e80 <XMC_SCU_CLOCK_StartSystemPll+0x164>)
 8000d96:	4b3a      	ldr	r3, [pc, #232]	; (8000e80 <XMC_SCU_CLOCK_StartSystemPll+0x164>)
 8000d98:	689a      	ldr	r2, [r3, #8]
 8000d9a:	4b3a      	ldr	r3, [pc, #232]	; (8000e84 <XMC_SCU_CLOCK_StartSystemPll+0x168>)
 8000d9c:	4013      	ands	r3, r2
                                   SCU_PLL_PLLCON1_PDIV_Msk)) | ((ndiv - 1UL) << SCU_PLL_PLLCON1_NDIV_Pos) |
 8000d9e:	687a      	ldr	r2, [r7, #4]
 8000da0:	3a01      	subs	r2, #1
 8000da2:	0212      	lsls	r2, r2, #8
 8000da4:	431a      	orrs	r2, r3
                                   ((kdiv_temp - 1UL) << SCU_PLL_PLLCON1_K2DIV_Pos) |
 8000da6:	693b      	ldr	r3, [r7, #16]
 8000da8:	3b01      	subs	r3, #1
 8000daa:	041b      	lsls	r3, r3, #16
    /* disconnect Oscillator from PLL */
    SCU_PLL->PLLCON0 |= (uint32_t)SCU_PLL_PLLCON0_FINDIS_Msk;

    /* Setup divider settings for main PLL */
    SCU_PLL->PLLCON1 = (uint32_t)((SCU_PLL->PLLCON1 & ~(SCU_PLL_PLLCON1_NDIV_Msk | SCU_PLL_PLLCON1_K2DIV_Msk |
                                   SCU_PLL_PLLCON1_PDIV_Msk)) | ((ndiv - 1UL) << SCU_PLL_PLLCON1_NDIV_Pos) |
 8000dac:	431a      	orrs	r2, r3
                                   ((kdiv_temp - 1UL) << SCU_PLL_PLLCON1_K2DIV_Pos) |
                                   ((pdiv - 1UL)<< SCU_PLL_PLLCON1_PDIV_Pos));
 8000dae:	68bb      	ldr	r3, [r7, #8]
 8000db0:	3b01      	subs	r3, #1
 8000db2:	061b      	lsls	r3, r3, #24

    /* disconnect Oscillator from PLL */
    SCU_PLL->PLLCON0 |= (uint32_t)SCU_PLL_PLLCON0_FINDIS_Msk;

    /* Setup divider settings for main PLL */
    SCU_PLL->PLLCON1 = (uint32_t)((SCU_PLL->PLLCON1 & ~(SCU_PLL_PLLCON1_NDIV_Msk | SCU_PLL_PLLCON1_K2DIV_Msk |
 8000db4:	4313      	orrs	r3, r2
 8000db6:	608b      	str	r3, [r1, #8]
                                   SCU_PLL_PLLCON1_PDIV_Msk)) | ((ndiv - 1UL) << SCU_PLL_PLLCON1_NDIV_Pos) |
                                   ((kdiv_temp - 1UL) << SCU_PLL_PLLCON1_K2DIV_Pos) |
                                   ((pdiv - 1UL)<< SCU_PLL_PLLCON1_PDIV_Pos));

    /* Set OSCDISCDIS, OSC clock remains connected to the VCO in case of loss of lock */
    SCU_PLL->PLLCON0 |= (uint32_t)SCU_PLL_PLLCON0_OSCDISCDIS_Msk;
 8000db8:	4a31      	ldr	r2, [pc, #196]	; (8000e80 <XMC_SCU_CLOCK_StartSystemPll+0x164>)
 8000dba:	4b31      	ldr	r3, [pc, #196]	; (8000e80 <XMC_SCU_CLOCK_StartSystemPll+0x164>)
 8000dbc:	685b      	ldr	r3, [r3, #4]
 8000dbe:	f043 0340 	orr.w	r3, r3, #64	; 0x40
 8000dc2:	6053      	str	r3, [r2, #4]

    /* connect Oscillator to PLL */
    SCU_PLL->PLLCON0 &= (uint32_t)~SCU_PLL_PLLCON0_FINDIS_Msk;
 8000dc4:	4a2e      	ldr	r2, [pc, #184]	; (8000e80 <XMC_SCU_CLOCK_StartSystemPll+0x164>)
 8000dc6:	4b2e      	ldr	r3, [pc, #184]	; (8000e80 <XMC_SCU_CLOCK_StartSystemPll+0x164>)
 8000dc8:	685b      	ldr	r3, [r3, #4]
 8000dca:	f023 0310 	bic.w	r3, r3, #16
 8000dce:	6053      	str	r3, [r2, #4]

    /* restart PLL Lock detection */
    SCU_PLL->PLLCON0 |= (uint32_t)SCU_PLL_PLLCON0_RESLD_Msk;
 8000dd0:	4a2b      	ldr	r2, [pc, #172]	; (8000e80 <XMC_SCU_CLOCK_StartSystemPll+0x164>)
 8000dd2:	4b2b      	ldr	r3, [pc, #172]	; (8000e80 <XMC_SCU_CLOCK_StartSystemPll+0x164>)
 8000dd4:	685b      	ldr	r3, [r3, #4]
 8000dd6:	f443 2380 	orr.w	r3, r3, #262144	; 0x40000
 8000dda:	6053      	str	r3, [r2, #4]
    while ((SCU_PLL->PLLSTAT & SCU_PLL_PLLSTAT_VCOLOCK_Msk) == 0U)
 8000ddc:	bf00      	nop
 8000dde:	4b28      	ldr	r3, [pc, #160]	; (8000e80 <XMC_SCU_CLOCK_StartSystemPll+0x164>)
 8000de0:	681b      	ldr	r3, [r3, #0]
 8000de2:	f003 0304 	and.w	r3, r3, #4
 8000de6:	2b00      	cmp	r3, #0
 8000de8:	d0f9      	beq.n	8000dde <XMC_SCU_CLOCK_StartSystemPll+0xc2>
    {
      /* wait for PLL Lock */
    }

    /* Switch to normal mode */
    SCU_PLL->PLLCON0 &= (uint32_t)~SCU_PLL_PLLCON0_VCOBYP_Msk;
 8000dea:	4a25      	ldr	r2, [pc, #148]	; (8000e80 <XMC_SCU_CLOCK_StartSystemPll+0x164>)
 8000dec:	4b24      	ldr	r3, [pc, #144]	; (8000e80 <XMC_SCU_CLOCK_StartSystemPll+0x164>)
 8000dee:	685b      	ldr	r3, [r3, #4]
 8000df0:	f023 0301 	bic.w	r3, r3, #1
 8000df4:	6053      	str	r3, [r2, #4]
    while ((SCU_PLL->PLLSTAT & SCU_PLL_PLLSTAT_VCOBYST_Msk) != 0U)
 8000df6:	bf00      	nop
 8000df8:	4b21      	ldr	r3, [pc, #132]	; (8000e80 <XMC_SCU_CLOCK_StartSystemPll+0x164>)
 8000dfa:	681b      	ldr	r3, [r3, #0]
 8000dfc:	f003 0301 	and.w	r3, r3, #1
 8000e00:	2b00      	cmp	r3, #0
 8000e02:	d1f9      	bne.n	8000df8 <XMC_SCU_CLOCK_StartSystemPll+0xdc>
    {
      /* wait for normal mode */
    }

    /* Ramp up PLL frequency in steps */
    kdiv_temp = (vco_frequency / 60UL) >> 22;
 8000e04:	697b      	ldr	r3, [r7, #20]
 8000e06:	4a20      	ldr	r2, [pc, #128]	; (8000e88 <XMC_SCU_CLOCK_StartSystemPll+0x16c>)
 8000e08:	fba2 2303 	umull	r2, r3, r2, r3
 8000e0c:	095b      	lsrs	r3, r3, #5
 8000e0e:	0d9b      	lsrs	r3, r3, #22
 8000e10:	613b      	str	r3, [r7, #16]
    if (kdiv < kdiv_temp)
 8000e12:	6a3a      	ldr	r2, [r7, #32]
 8000e14:	693b      	ldr	r3, [r7, #16]
 8000e16:	429a      	cmp	r2, r3
 8000e18:	d202      	bcs.n	8000e20 <XMC_SCU_CLOCK_StartSystemPll+0x104>
    {
      XMC_SCU_CLOCK_StepSystemPllFrequency(kdiv_temp);
 8000e1a:	6938      	ldr	r0, [r7, #16]
 8000e1c:	f000 f838 	bl	8000e90 <XMC_SCU_CLOCK_StepSystemPllFrequency>
    }

    kdiv_temp = (vco_frequency / 90UL) >> 22;
 8000e20:	697b      	ldr	r3, [r7, #20]
 8000e22:	085b      	lsrs	r3, r3, #1
 8000e24:	4a19      	ldr	r2, [pc, #100]	; (8000e8c <XMC_SCU_CLOCK_StartSystemPll+0x170>)
 8000e26:	fba2 2303 	umull	r2, r3, r2, r3
 8000e2a:	095b      	lsrs	r3, r3, #5
 8000e2c:	0d9b      	lsrs	r3, r3, #22
 8000e2e:	613b      	str	r3, [r7, #16]
    if (kdiv < kdiv_temp)
 8000e30:	6a3a      	ldr	r2, [r7, #32]
 8000e32:	693b      	ldr	r3, [r7, #16]
 8000e34:	429a      	cmp	r2, r3
 8000e36:	d202      	bcs.n	8000e3e <XMC_SCU_CLOCK_StartSystemPll+0x122>
    {
      XMC_SCU_CLOCK_StepSystemPllFrequency(kdiv_temp);
 8000e38:	6938      	ldr	r0, [r7, #16]
 8000e3a:	f000 f829 	bl	8000e90 <XMC_SCU_CLOCK_StepSystemPllFrequency>
    }

    XMC_SCU_CLOCK_StepSystemPllFrequency(kdiv);
 8000e3e:	6a38      	ldr	r0, [r7, #32]
 8000e40:	f000 f826 	bl	8000e90 <XMC_SCU_CLOCK_StepSystemPllFrequency>
 8000e44:	e015      	b.n	8000e72 <XMC_SCU_CLOCK_StartSystemPll+0x156>
  }
  else
  {
    SCU_PLL->PLLCON1 = (uint32_t)((SCU_PLL->PLLCON1 & ~SCU_PLL_PLLCON1_K1DIV_Msk) |
 8000e46:	490e      	ldr	r1, [pc, #56]	; (8000e80 <XMC_SCU_CLOCK_StartSystemPll+0x164>)
 8000e48:	4b0d      	ldr	r3, [pc, #52]	; (8000e80 <XMC_SCU_CLOCK_StartSystemPll+0x164>)
 8000e4a:	689b      	ldr	r3, [r3, #8]
 8000e4c:	f023 027f 	bic.w	r2, r3, #127	; 0x7f
                       ((kdiv -1UL) << SCU_PLL_PLLCON1_K1DIV_Pos));
 8000e50:	6a3b      	ldr	r3, [r7, #32]
 8000e52:	3b01      	subs	r3, #1

    XMC_SCU_CLOCK_StepSystemPllFrequency(kdiv);
  }
  else
  {
    SCU_PLL->PLLCON1 = (uint32_t)((SCU_PLL->PLLCON1 & ~SCU_PLL_PLLCON1_K1DIV_Msk) |
 8000e54:	4313      	orrs	r3, r2
 8000e56:	608b      	str	r3, [r1, #8]
                       ((kdiv -1UL) << SCU_PLL_PLLCON1_K1DIV_Pos));

    /* Switch to prescaler mode */
    SCU_PLL->PLLCON0 |= (uint32_t)SCU_PLL_PLLCON0_VCOBYP_Msk;
 8000e58:	4a09      	ldr	r2, [pc, #36]	; (8000e80 <XMC_SCU_CLOCK_StartSystemPll+0x164>)
 8000e5a:	4b09      	ldr	r3, [pc, #36]	; (8000e80 <XMC_SCU_CLOCK_StartSystemPll+0x164>)
 8000e5c:	685b      	ldr	r3, [r3, #4]
 8000e5e:	f043 0301 	orr.w	r3, r3, #1
 8000e62:	6053      	str	r3, [r2, #4]

    while ((SCU_PLL->PLLSTAT & SCU_PLL_PLLSTAT_VCOBYST_Msk) == 0U)
 8000e64:	bf00      	nop
 8000e66:	4b06      	ldr	r3, [pc, #24]	; (8000e80 <XMC_SCU_CLOCK_StartSystemPll+0x164>)
 8000e68:	681b      	ldr	r3, [r3, #0]
 8000e6a:	f003 0301 	and.w	r3, r3, #1
 8000e6e:	2b00      	cmp	r3, #0
 8000e70:	d0f9      	beq.n	8000e66 <XMC_SCU_CLOCK_StartSystemPll+0x14a>
    {
      /* wait for prescaler mode */
    }
  }
}
 8000e72:	3718      	adds	r7, #24
 8000e74:	46bd      	mov	sp, r7
 8000e76:	bd80      	pop	{r7, pc}
 8000e78:	431bde83 	.word	0x431bde83
 8000e7c:	aaaaaaab 	.word	0xaaaaaaab
 8000e80:	50004710 	.word	0x50004710
 8000e84:	f08080ff 	.word	0xf08080ff
 8000e88:	88888889 	.word	0x88888889
 8000e8c:	b60b60b7 	.word	0xb60b60b7

08000e90 <XMC_SCU_CLOCK_StepSystemPllFrequency>:
  SCU_PLL->PLLCON0 |= (uint32_t)SCU_PLL_PLLCON0_PLLPWD_Msk;
}

/* API to step up/down the main PLL frequency */
void XMC_SCU_CLOCK_StepSystemPllFrequency(uint32_t kdiv)
{
 8000e90:	b580      	push	{r7, lr}
 8000e92:	b082      	sub	sp, #8
 8000e94:	af00      	add	r7, sp, #0
 8000e96:	6078      	str	r0, [r7, #4]
  SCU_PLL->PLLCON1 = (uint32_t)((SCU_PLL->PLLCON1 & ~SCU_PLL_PLLCON1_K2DIV_Msk) |
 8000e98:	4907      	ldr	r1, [pc, #28]	; (8000eb8 <XMC_SCU_CLOCK_StepSystemPllFrequency+0x28>)
 8000e9a:	4b07      	ldr	r3, [pc, #28]	; (8000eb8 <XMC_SCU_CLOCK_StepSystemPllFrequency+0x28>)
 8000e9c:	689b      	ldr	r3, [r3, #8]
 8000e9e:	f423 02fe 	bic.w	r2, r3, #8323072	; 0x7f0000
                     ((kdiv - 1UL) << SCU_PLL_PLLCON1_K2DIV_Pos));
 8000ea2:	687b      	ldr	r3, [r7, #4]
 8000ea4:	3b01      	subs	r3, #1
 8000ea6:	041b      	lsls	r3, r3, #16
}

/* API to step up/down the main PLL frequency */
void XMC_SCU_CLOCK_StepSystemPllFrequency(uint32_t kdiv)
{
  SCU_PLL->PLLCON1 = (uint32_t)((SCU_PLL->PLLCON1 & ~SCU_PLL_PLLCON1_K2DIV_Msk) |
 8000ea8:	4313      	orrs	r3, r2
 8000eaa:	608b      	str	r3, [r1, #8]
                     ((kdiv - 1UL) << SCU_PLL_PLLCON1_K2DIV_Pos));

  XMC_SCU_lDelay(50U);
 8000eac:	2032      	movs	r0, #50	; 0x32
 8000eae:	f7ff fb9d 	bl	80005ec <XMC_SCU_lDelay>
}
 8000eb2:	3708      	adds	r7, #8
 8000eb4:	46bd      	mov	sp, r7
 8000eb6:	bd80      	pop	{r7, pc}
 8000eb8:	50004710 	.word	0x50004710

08000ebc <XMC_ERU_ETL_Init>:
 ********************************************************************************************************************/
/* Initializes the selected ERU_ETLx channel with the config structure.  */
void XMC_ERU_ETL_Init(XMC_ERU_t *const eru,
                      const uint8_t channel,
                      const XMC_ERU_ETL_CONFIG_t *const config)
{ 
 8000ebc:	b580      	push	{r7, lr}
 8000ebe:	b084      	sub	sp, #16
 8000ec0:	af00      	add	r7, sp, #0
 8000ec2:	60f8      	str	r0, [r7, #12]
 8000ec4:	460b      	mov	r3, r1
 8000ec6:	607a      	str	r2, [r7, #4]
 8000ec8:	72fb      	strb	r3, [r7, #11]
  XMC_ASSERT("XMC_ERU_ETL_Init:Invalid Module Pointer", XMC_ERU_CHECK_MODULE_PTR(eru));
  XMC_ASSERT("XMC_ERU_ETL_Init:Invalid Channel Number", (channel < 4U));

  XMC_ERU_Enable(eru);
 8000eca:	68f8      	ldr	r0, [r7, #12]
 8000ecc:	f7ff faba 	bl	8000444 <XMC_ERU_Enable>

  eru->EXISEL = (eru->EXISEL & 
 8000ed0:	68fb      	ldr	r3, [r7, #12]
 8000ed2:	681a      	ldr	r2, [r3, #0]
                 ~((uint32_t)(ERU_EXISEL_EXS0A_Msk | ERU_EXISEL_EXS0B_Msk) << (channel * ERU_EXISEL_BITSIZE))) |
 8000ed4:	7afb      	ldrb	r3, [r7, #11]
 8000ed6:	009b      	lsls	r3, r3, #2
 8000ed8:	4619      	mov	r1, r3
 8000eda:	230f      	movs	r3, #15
 8000edc:	408b      	lsls	r3, r1
 8000ede:	43db      	mvns	r3, r3
  XMC_ASSERT("XMC_ERU_ETL_Init:Invalid Module Pointer", XMC_ERU_CHECK_MODULE_PTR(eru));
  XMC_ASSERT("XMC_ERU_ETL_Init:Invalid Channel Number", (channel < 4U));

  XMC_ERU_Enable(eru);

  eru->EXISEL = (eru->EXISEL & 
 8000ee0:	401a      	ands	r2, r3
                 ~((uint32_t)(ERU_EXISEL_EXS0A_Msk | ERU_EXISEL_EXS0B_Msk) << (channel * ERU_EXISEL_BITSIZE))) |
                (config->input << (channel * (uint32_t)ERU_EXISEL_BITSIZE));
 8000ee2:	687b      	ldr	r3, [r7, #4]
 8000ee4:	681b      	ldr	r3, [r3, #0]
 8000ee6:	7af9      	ldrb	r1, [r7, #11]
 8000ee8:	0089      	lsls	r1, r1, #2
 8000eea:	408b      	lsls	r3, r1
  XMC_ASSERT("XMC_ERU_ETL_Init:Invalid Channel Number", (channel < 4U));

  XMC_ERU_Enable(eru);

  eru->EXISEL = (eru->EXISEL & 
                 ~((uint32_t)(ERU_EXISEL_EXS0A_Msk | ERU_EXISEL_EXS0B_Msk) << (channel * ERU_EXISEL_BITSIZE))) |
 8000eec:	431a      	orrs	r2, r3
  XMC_ASSERT("XMC_ERU_ETL_Init:Invalid Module Pointer", XMC_ERU_CHECK_MODULE_PTR(eru));
  XMC_ASSERT("XMC_ERU_ETL_Init:Invalid Channel Number", (channel < 4U));

  XMC_ERU_Enable(eru);

  eru->EXISEL = (eru->EXISEL & 
 8000eee:	68fb      	ldr	r3, [r7, #12]
 8000ef0:	601a      	str	r2, [r3, #0]
                 ~((uint32_t)(ERU_EXISEL_EXS0A_Msk | ERU_EXISEL_EXS0B_Msk) << (channel * ERU_EXISEL_BITSIZE))) |
                (config->input << (channel * (uint32_t)ERU_EXISEL_BITSIZE));
  
  eru->EXICON[channel] = config->raw;
 8000ef2:	7afa      	ldrb	r2, [r7, #11]
 8000ef4:	687b      	ldr	r3, [r7, #4]
 8000ef6:	6859      	ldr	r1, [r3, #4]
 8000ef8:	68fb      	ldr	r3, [r7, #12]
 8000efa:	3204      	adds	r2, #4
 8000efc:	f843 1022 	str.w	r1, [r3, r2, lsl #2]
}
 8000f00:	3710      	adds	r7, #16
 8000f02:	46bd      	mov	sp, r7
 8000f04:	bd80      	pop	{r7, pc}
 8000f06:	bf00      	nop

08000f08 <XMC_ERU_OGU_SetServiceRequestMode>:

/* Configures the gating scheme for service request generation by setting (GP) bit. */
void XMC_ERU_OGU_SetServiceRequestMode(XMC_ERU_t *const eru,
                                       const uint8_t channel,
                                       const XMC_ERU_OGU_SERVICE_REQUEST_t mode)
{
 8000f08:	b480      	push	{r7}
 8000f0a:	b083      	sub	sp, #12
 8000f0c:	af00      	add	r7, sp, #0
 8000f0e:	6078      	str	r0, [r7, #4]
 8000f10:	460b      	mov	r3, r1
 8000f12:	70fb      	strb	r3, [r7, #3]
 8000f14:	4613      	mov	r3, r2
 8000f16:	70bb      	strb	r3, [r7, #2]
  XMC_ASSERT("XMC_ERU_OGU_SetServiceRequestMode:Invalid Module Pointer", XMC_ERU_CHECK_MODULE_PTR(eru));
  XMC_ASSERT("XMC_ERU_OGU_SetServiceRequestMode:Invalid Channel Number", (channel < 4U));
  XMC_ASSERT("XMC_ERU_OGU_SetServiceRequestMode:Invalid Service Request Mode", XMC_ERU_OGU_CHECK_SERIVCE_REQUEST(mode));

  eru->EXOCON_b[channel].GP = (uint8_t)mode;
 8000f18:	78fa      	ldrb	r2, [r7, #3]
 8000f1a:	78bb      	ldrb	r3, [r7, #2]
 8000f1c:	f003 0303 	and.w	r3, r3, #3
 8000f20:	b2d9      	uxtb	r1, r3
 8000f22:	687b      	ldr	r3, [r7, #4]
 8000f24:	3208      	adds	r2, #8
 8000f26:	f001 0103 	and.w	r1, r1, #3
 8000f2a:	0109      	lsls	r1, r1, #4
 8000f2c:	f853 0022 	ldr.w	r0, [r3, r2, lsl #2]
 8000f30:	f020 0030 	bic.w	r0, r0, #48	; 0x30
 8000f34:	4301      	orrs	r1, r0
 8000f36:	f843 1022 	str.w	r1, [r3, r2, lsl #2]

}
 8000f3a:	370c      	adds	r7, #12
 8000f3c:	46bd      	mov	sp, r7
 8000f3e:	f85d 7b04 	ldr.w	r7, [sp], #4
 8000f42:	4770      	bx	lr

08000f44 <XMC_GPIO_SetHardwareControl>:
  port->IOCR[(uint32_t)pin >> 2U] &= ~(uint32_t)((uint32_t)PORT_IOCR_PC_Msk << ((uint32_t)PORT_IOCR_PC_Size * ((uint32_t)pin & 0x3U)));
  port->IOCR[(uint32_t)pin >> 2U] |= (uint32_t)mode << ((uint32_t)PORT_IOCR_PC_Size * ((uint32_t)pin & 0x3U));
}

void XMC_GPIO_SetHardwareControl(XMC_GPIO_PORT_t *const port, const uint8_t pin, const XMC_GPIO_HWCTRL_t hwctrl)
{
 8000f44:	b480      	push	{r7}
 8000f46:	b083      	sub	sp, #12
 8000f48:	af00      	add	r7, sp, #0
 8000f4a:	6078      	str	r0, [r7, #4]
 8000f4c:	460b      	mov	r3, r1
 8000f4e:	70fb      	strb	r3, [r7, #3]
 8000f50:	4613      	mov	r3, r2
 8000f52:	70bb      	strb	r3, [r7, #2]
  XMC_ASSERT("XMC_GPIO_SetHardwareControl: Invalid port", XMC_GPIO_CHECK_PORT(port));
  XMC_ASSERT("XMC_GPIO_SetHardwareControl: Invalid hwctrl", XMC_GPIO_CHECK_HWCTRL(hwctrl));

  port->HWSEL &= ~(uint32_t)((uint32_t)PORT_HWSEL_Msk << ((uint32_t)pin << 1U));
 8000f54:	687b      	ldr	r3, [r7, #4]
 8000f56:	6f5a      	ldr	r2, [r3, #116]	; 0x74
 8000f58:	78fb      	ldrb	r3, [r7, #3]
 8000f5a:	005b      	lsls	r3, r3, #1
 8000f5c:	4619      	mov	r1, r3
 8000f5e:	2303      	movs	r3, #3
 8000f60:	408b      	lsls	r3, r1
 8000f62:	43db      	mvns	r3, r3
 8000f64:	401a      	ands	r2, r3
 8000f66:	687b      	ldr	r3, [r7, #4]
 8000f68:	675a      	str	r2, [r3, #116]	; 0x74
  port->HWSEL |= (uint32_t)hwctrl << ((uint32_t)pin << 1U);
 8000f6a:	687b      	ldr	r3, [r7, #4]
 8000f6c:	6f5a      	ldr	r2, [r3, #116]	; 0x74
 8000f6e:	78bb      	ldrb	r3, [r7, #2]
 8000f70:	78f9      	ldrb	r1, [r7, #3]
 8000f72:	0049      	lsls	r1, r1, #1
 8000f74:	408b      	lsls	r3, r1
 8000f76:	431a      	orrs	r2, r3
 8000f78:	687b      	ldr	r3, [r7, #4]
 8000f7a:	675a      	str	r2, [r3, #116]	; 0x74
}
 8000f7c:	370c      	adds	r7, #12
 8000f7e:	46bd      	mov	sp, r7
 8000f80:	f85d 7b04 	ldr.w	r7, [sp], #4
 8000f84:	4770      	bx	lr
 8000f86:	bf00      	nop

08000f88 <XMC_SPI_CH_Init>:
 * API IMPLEMENTATION
 ********************************************************************************************************************/
 
/* Initializes the selected SPI channel with the config structure. */
void XMC_SPI_CH_Init(XMC_USIC_CH_t *const channel, const XMC_SPI_CH_CONFIG_t *const config)
{
 8000f88:	b580      	push	{r7, lr}
 8000f8a:	b082      	sub	sp, #8
 8000f8c:	af00      	add	r7, sp, #0
 8000f8e:	6078      	str	r0, [r7, #4]
 8000f90:	6039      	str	r1, [r7, #0]
  XMC_USIC_CH_Enable(channel);
 8000f92:	6878      	ldr	r0, [r7, #4]
 8000f94:	f000 f884 	bl	80010a0 <XMC_USIC_CH_Enable>
  
  if(config->bus_mode == XMC_SPI_CH_BUS_MODE_MASTER)
 8000f98:	683b      	ldr	r3, [r7, #0]
 8000f9a:	795b      	ldrb	r3, [r3, #5]
 8000f9c:	2b00      	cmp	r3, #0
 8000f9e:	d112      	bne.n	8000fc6 <XMC_SPI_CH_Init+0x3e>
  {
    /* Configure baud rate */
    if (config->normal_divider_mode)
 8000fa0:	683b      	ldr	r3, [r7, #0]
 8000fa2:	791b      	ldrb	r3, [r3, #4]
 8000fa4:	2b00      	cmp	r3, #0
 8000fa6:	d007      	beq.n	8000fb8 <XMC_SPI_CH_Init+0x30>
    {
      /* Normal divider mode */
      (void)XMC_USIC_CH_SetBaudrateEx(channel, config->baudrate, XMC_SPI_CH_OVERSAMPLING); 
 8000fa8:	683b      	ldr	r3, [r7, #0]
 8000faa:	681b      	ldr	r3, [r3, #0]
 8000fac:	6878      	ldr	r0, [r7, #4]
 8000fae:	4619      	mov	r1, r3
 8000fb0:	2202      	movs	r2, #2
 8000fb2:	f000 f931 	bl	8001218 <XMC_USIC_CH_SetBaudrateEx>
 8000fb6:	e006      	b.n	8000fc6 <XMC_SPI_CH_Init+0x3e>
    }
    else
    {
      /* Fractional divider mode */
      (void)XMC_USIC_CH_SetBaudrate(channel, config->baudrate, XMC_SPI_CH_OVERSAMPLING); 
 8000fb8:	683b      	ldr	r3, [r7, #0]
 8000fba:	681b      	ldr	r3, [r3, #0]
 8000fbc:	6878      	ldr	r0, [r7, #4]
 8000fbe:	4619      	mov	r1, r3
 8000fc0:	2202      	movs	r2, #2
 8000fc2:	f000 f8b9 	bl	8001138 <XMC_USIC_CH_SetBaudrate>
  }
  
  /* Configuration of USIC Shift Control */
  /* Transmission Mode (TRM) = 1  */
  /* Passive Data Level (PDL) = 1 */
  channel->SCTR = USIC_CH_SCTR_PDL_Msk |
 8000fc6:	687b      	ldr	r3, [r7, #4]
 8000fc8:	4a0e      	ldr	r2, [pc, #56]	; (8001004 <XMC_SPI_CH_Init+0x7c>)
 8000fca:	635a      	str	r2, [r3, #52]	; 0x34
                  (0x7UL << USIC_CH_SCTR_WLE_Pos);

  /* Configuration of USIC Transmit Control/Status Register */
  /* TBUF Data Enable (TDEN) = 1 */
  /* TBUF Data Single Shot Mode (TDSSM) = 1 */
  channel->TCSR = (uint32_t)(USIC_CH_TCSR_HPCMD_Msk |
 8000fcc:	687b      	ldr	r3, [r7, #4]
 8000fce:	f44f 62a2 	mov.w	r2, #1296	; 0x510
 8000fd2:	639a      	str	r2, [r3, #56]	; 0x38
                  (0x01UL  << USIC_CH_TCSR_TDEN_Pos) |
                  USIC_CH_TCSR_TDSSM_Msk);

  if(config->bus_mode == XMC_SPI_CH_BUS_MODE_MASTER)
 8000fd4:	683b      	ldr	r3, [r7, #0]
 8000fd6:	795b      	ldrb	r3, [r3, #5]
 8000fd8:	2b00      	cmp	r3, #0
 8000fda:	d107      	bne.n	8000fec <XMC_SPI_CH_Init+0x64>
  {
    /* Configuration of Protocol Control Register */
    channel->PCR_SSCMode = (uint32_t)(USIC_CH_PCR_SSCMode_MSLSEN_Msk |
                           USIC_CH_PCR_SSCMode_SELCTR_Msk |
                           (uint32_t)config->selo_inversion |
 8000fdc:	683b      	ldr	r3, [r7, #0]
 8000fde:	799b      	ldrb	r3, [r3, #6]
                  USIC_CH_TCSR_TDSSM_Msk);

  if(config->bus_mode == XMC_SPI_CH_BUS_MODE_MASTER)
  {
    /* Configuration of Protocol Control Register */
    channel->PCR_SSCMode = (uint32_t)(USIC_CH_PCR_SSCMode_MSLSEN_Msk |
 8000fe0:	f043 030b 	orr.w	r3, r3, #11
 8000fe4:	b2db      	uxtb	r3, r3
 8000fe6:	461a      	mov	r2, r3
 8000fe8:	687b      	ldr	r3, [r7, #4]
 8000fea:	63da      	str	r2, [r3, #60]	; 0x3c
                           (uint32_t)config->selo_inversion |
                           USIC_CH_PCR_SSCMode_FEM_Msk);
  }

  /* Clear protocol status */
  channel->PSCR = 0xFFFFFFFFUL;
 8000fec:	687b      	ldr	r3, [r7, #4]
 8000fee:	f04f 32ff 	mov.w	r2, #4294967295
 8000ff2:	64da      	str	r2, [r3, #76]	; 0x4c

  /* Set parity settings */
  channel->CCR = (uint32_t)config->parity_mode;
 8000ff4:	683b      	ldr	r3, [r7, #0]
 8000ff6:	891b      	ldrh	r3, [r3, #8]
 8000ff8:	461a      	mov	r2, r3
 8000ffa:	687b      	ldr	r3, [r7, #4]
 8000ffc:	641a      	str	r2, [r3, #64]	; 0x40
}
 8000ffe:	3708      	adds	r7, #8
 8001000:	46bd      	mov	sp, r7
 8001002:	bd80      	pop	{r7, pc}
 8001004:	073f0102 	.word	0x073f0102

08001008 <XMC_SPI_CH_EnableSlaveSelect>:
  return (XMC_SPI_CH_STATUS_t)status;
}

/* Enable the selected slave signal by setting (SELO) bits in PCR register. */
void XMC_SPI_CH_EnableSlaveSelect(XMC_USIC_CH_t *const channel, const XMC_SPI_CH_SLAVE_SELECT_t slave)
{
 8001008:	b480      	push	{r7}
 800100a:	b083      	sub	sp, #12
 800100c:	af00      	add	r7, sp, #0
 800100e:	6078      	str	r0, [r7, #4]
 8001010:	6039      	str	r1, [r7, #0]
  /* Configuration of Protocol Control Register */
  channel->PCR_SSCMode &= (uint32_t)~USIC_CH_PCR_SSCMode_SELO_Msk;
 8001012:	687b      	ldr	r3, [r7, #4]
 8001014:	6bdb      	ldr	r3, [r3, #60]	; 0x3c
 8001016:	f423 027f 	bic.w	r2, r3, #16711680	; 0xff0000
 800101a:	687b      	ldr	r3, [r7, #4]
 800101c:	63da      	str	r2, [r3, #60]	; 0x3c
  channel->PCR_SSCMode |= (uint32_t)slave;
 800101e:	687b      	ldr	r3, [r7, #4]
 8001020:	6bda      	ldr	r2, [r3, #60]	; 0x3c
 8001022:	683b      	ldr	r3, [r7, #0]
 8001024:	431a      	orrs	r2, r3
 8001026:	687b      	ldr	r3, [r7, #4]
 8001028:	63da      	str	r2, [r3, #60]	; 0x3c
}
 800102a:	370c      	adds	r7, #12
 800102c:	46bd      	mov	sp, r7
 800102e:	f85d 7b04 	ldr.w	r7, [sp], #4
 8001032:	4770      	bx	lr

08001034 <XMC_SPI_CH_GetReceivedData>:
  }
}

/* Reads the data from the buffers based on the FIFO mode selection. */
uint16_t XMC_SPI_CH_GetReceivedData(XMC_USIC_CH_t *const channel)
{
 8001034:	b480      	push	{r7}
 8001036:	b085      	sub	sp, #20
 8001038:	af00      	add	r7, sp, #0
 800103a:	6078      	str	r0, [r7, #4]
  uint16_t retval;

  /* Check FIFO size */
  if ((channel->RBCTR & USIC_CH_RBCTR_SIZE_Msk) == 0U)
 800103c:	687b      	ldr	r3, [r7, #4]
 800103e:	f8d3 310c 	ldr.w	r3, [r3, #268]	; 0x10c
 8001042:	f003 63e0 	and.w	r3, r3, #117440512	; 0x7000000
 8001046:	2b00      	cmp	r3, #0
 8001048:	d103      	bne.n	8001052 <XMC_SPI_CH_GetReceivedData+0x1e>
  {
    retval = (uint16_t)channel->RBUF;
 800104a:	687b      	ldr	r3, [r7, #4]
 800104c:	6d5b      	ldr	r3, [r3, #84]	; 0x54
 800104e:	81fb      	strh	r3, [r7, #14]
 8001050:	e003      	b.n	800105a <XMC_SPI_CH_GetReceivedData+0x26>
  }
  else
  {
    retval = (uint16_t)channel->OUTR;
 8001052:	687b      	ldr	r3, [r7, #4]
 8001054:	f8d3 311c 	ldr.w	r3, [r3, #284]	; 0x11c
 8001058:	81fb      	strh	r3, [r7, #14]
  }

  return retval;
 800105a:	89fb      	ldrh	r3, [r7, #14]
}
 800105c:	4618      	mov	r0, r3
 800105e:	3714      	adds	r7, #20
 8001060:	46bd      	mov	sp, r7
 8001062:	f85d 7b04 	ldr.w	r7, [sp], #4
 8001066:	4770      	bx	lr

08001068 <XMC_SPI_CH_DisableEvent>:
  channel->CCR |= (event&0x1fc00U);
  channel->PCR_SSCMode |= ((event << 13U) & 0xe000U);
}

void XMC_SPI_CH_DisableEvent(XMC_USIC_CH_t *const channel, const uint32_t event)
{
 8001068:	b480      	push	{r7}
 800106a:	b083      	sub	sp, #12
 800106c:	af00      	add	r7, sp, #0
 800106e:	6078      	str	r0, [r7, #4]
 8001070:	6039      	str	r1, [r7, #0]
  channel->CCR &= (uint32_t)~(event&0x1fc00U);
 8001072:	687b      	ldr	r3, [r7, #4]
 8001074:	6c1a      	ldr	r2, [r3, #64]	; 0x40
 8001076:	683b      	ldr	r3, [r7, #0]
 8001078:	f403 33fe 	and.w	r3, r3, #130048	; 0x1fc00
 800107c:	43db      	mvns	r3, r3
 800107e:	401a      	ands	r2, r3
 8001080:	687b      	ldr	r3, [r7, #4]
 8001082:	641a      	str	r2, [r3, #64]	; 0x40
  channel->PCR_SSCMode &= (uint32_t)~((event << 13U) & 0xe000U);
 8001084:	687b      	ldr	r3, [r7, #4]
 8001086:	6bda      	ldr	r2, [r3, #60]	; 0x3c
 8001088:	683b      	ldr	r3, [r7, #0]
 800108a:	035b      	lsls	r3, r3, #13
 800108c:	b29b      	uxth	r3, r3
 800108e:	43db      	mvns	r3, r3
 8001090:	401a      	ands	r2, r3
 8001092:	687b      	ldr	r3, [r7, #4]
 8001094:	63da      	str	r2, [r3, #60]	; 0x3c
}
 8001096:	370c      	adds	r7, #12
 8001098:	46bd      	mov	sp, r7
 800109a:	f85d 7b04 	ldr.w	r7, [sp], #4
 800109e:	4770      	bx	lr

080010a0 <XMC_USIC_CH_Enable>:
/*******************************************************************************
 * API IMPLEMENTATION
 *******************************************************************************/

void XMC_USIC_CH_Enable(XMC_USIC_CH_t *const channel)
{
 80010a0:	b580      	push	{r7, lr}
 80010a2:	b082      	sub	sp, #8
 80010a4:	af00      	add	r7, sp, #0
 80010a6:	6078      	str	r0, [r7, #4]
  XMC_ASSERT("XMC_USIC_CH_Enable: channel not valid", XMC_USIC_IsChannelValid(channel));

  if ((channel == XMC_USIC0_CH0) || (channel == XMC_USIC0_CH1))
 80010a8:	687b      	ldr	r3, [r7, #4]
 80010aa:	4a1a      	ldr	r2, [pc, #104]	; (8001114 <XMC_USIC_CH_Enable+0x74>)
 80010ac:	4293      	cmp	r3, r2
 80010ae:	d003      	beq.n	80010b8 <XMC_USIC_CH_Enable+0x18>
 80010b0:	687b      	ldr	r3, [r7, #4]
 80010b2:	4a19      	ldr	r2, [pc, #100]	; (8001118 <XMC_USIC_CH_Enable+0x78>)
 80010b4:	4293      	cmp	r3, r2
 80010b6:	d103      	bne.n	80010c0 <XMC_USIC_CH_Enable+0x20>
  {
    XMC_USIC_Enable(XMC_USIC0);
 80010b8:	4818      	ldr	r0, [pc, #96]	; (800111c <XMC_USIC_CH_Enable+0x7c>)
 80010ba:	f000 f9f9 	bl	80014b0 <XMC_USIC_Enable>
 80010be:	e016      	b.n	80010ee <XMC_USIC_CH_Enable+0x4e>
  }
#if defined(USIC1)
  else if((channel == XMC_USIC1_CH0) || (channel == XMC_USIC1_CH1))
 80010c0:	687b      	ldr	r3, [r7, #4]
 80010c2:	4a17      	ldr	r2, [pc, #92]	; (8001120 <XMC_USIC_CH_Enable+0x80>)
 80010c4:	4293      	cmp	r3, r2
 80010c6:	d003      	beq.n	80010d0 <XMC_USIC_CH_Enable+0x30>
 80010c8:	687b      	ldr	r3, [r7, #4]
 80010ca:	4a16      	ldr	r2, [pc, #88]	; (8001124 <XMC_USIC_CH_Enable+0x84>)
 80010cc:	4293      	cmp	r3, r2
 80010ce:	d103      	bne.n	80010d8 <XMC_USIC_CH_Enable+0x38>
  {
    XMC_USIC_Enable(XMC_USIC1);
 80010d0:	4815      	ldr	r0, [pc, #84]	; (8001128 <XMC_USIC_CH_Enable+0x88>)
 80010d2:	f000 f9ed 	bl	80014b0 <XMC_USIC_Enable>
 80010d6:	e00a      	b.n	80010ee <XMC_USIC_CH_Enable+0x4e>
  }
#endif
#if defined(USIC2)
  else if((channel == XMC_USIC2_CH0) || (channel == XMC_USIC2_CH1))
 80010d8:	687b      	ldr	r3, [r7, #4]
 80010da:	4a14      	ldr	r2, [pc, #80]	; (800112c <XMC_USIC_CH_Enable+0x8c>)
 80010dc:	4293      	cmp	r3, r2
 80010de:	d003      	beq.n	80010e8 <XMC_USIC_CH_Enable+0x48>
 80010e0:	687b      	ldr	r3, [r7, #4]
 80010e2:	4a13      	ldr	r2, [pc, #76]	; (8001130 <XMC_USIC_CH_Enable+0x90>)
 80010e4:	4293      	cmp	r3, r2
 80010e6:	d102      	bne.n	80010ee <XMC_USIC_CH_Enable+0x4e>
  {
    XMC_USIC_Enable(XMC_USIC2);
 80010e8:	4812      	ldr	r0, [pc, #72]	; (8001134 <XMC_USIC_CH_Enable+0x94>)
 80010ea:	f000 f9e1 	bl	80014b0 <XMC_USIC_Enable>
  {
    XMC_ASSERT("USIC module not available", 0U/*Always*/);
  }

  /* USIC channel switched on*/
  channel->KSCFG = (USIC_CH_KSCFG_MODEN_Msk | USIC_CH_KSCFG_BPMODEN_Msk);
 80010ee:	687b      	ldr	r3, [r7, #4]
 80010f0:	2203      	movs	r2, #3
 80010f2:	60da      	str	r2, [r3, #12]
  while ((channel->KSCFG & USIC_CH_KSCFG_MODEN_Msk) == 0U)
 80010f4:	bf00      	nop
 80010f6:	687b      	ldr	r3, [r7, #4]
 80010f8:	68db      	ldr	r3, [r3, #12]
 80010fa:	f003 0301 	and.w	r3, r3, #1
 80010fe:	2b00      	cmp	r3, #0
 8001100:	d0f9      	beq.n	80010f6 <XMC_USIC_CH_Enable+0x56>
  {
    /* Wait till the channel is enabled */
  }

  /* Set USIC channel in IDLE mode */
  channel->CCR &= (uint32_t)~USIC_CH_CCR_MODE_Msk;
 8001102:	687b      	ldr	r3, [r7, #4]
 8001104:	6c1b      	ldr	r3, [r3, #64]	; 0x40
 8001106:	f023 020f 	bic.w	r2, r3, #15
 800110a:	687b      	ldr	r3, [r7, #4]
 800110c:	641a      	str	r2, [r3, #64]	; 0x40
}
 800110e:	3708      	adds	r7, #8
 8001110:	46bd      	mov	sp, r7
 8001112:	bd80      	pop	{r7, pc}
 8001114:	40030000 	.word	0x40030000
 8001118:	40030200 	.word	0x40030200
 800111c:	40030008 	.word	0x40030008
 8001120:	48020000 	.word	0x48020000
 8001124:	48020200 	.word	0x48020200
 8001128:	48020008 	.word	0x48020008
 800112c:	48024000 	.word	0x48024000
 8001130:	48024200 	.word	0x48024200
 8001134:	48024008 	.word	0x48024008

08001138 <XMC_USIC_CH_SetBaudrate>:
{
  channel->KSCFG = (uint32_t)((channel->KSCFG & (~USIC_CH_KSCFG_MODEN_Msk)) | USIC_CH_KSCFG_BPMODEN_Msk);
}

XMC_USIC_CH_STATUS_t XMC_USIC_CH_SetBaudrate(XMC_USIC_CH_t *const channel, uint32_t rate, uint32_t oversampling)
{
 8001138:	b580      	push	{r7, lr}
 800113a:	b08e      	sub	sp, #56	; 0x38
 800113c:	af00      	add	r7, sp, #0
 800113e:	60f8      	str	r0, [r7, #12]
 8001140:	60b9      	str	r1, [r7, #8]
 8001142:	607a      	str	r2, [r7, #4]
  
  uint32_t pdiv_frac;
  uint32_t pdiv_frac_min;

  /* The rate and peripheral clock are divided by 100 to be able to use only 32bit arithmetic */
  if ((rate >= 100U) && (oversampling != 0U))
 8001144:	68bb      	ldr	r3, [r7, #8]
 8001146:	2b63      	cmp	r3, #99	; 0x63
 8001148:	d958      	bls.n	80011fc <XMC_USIC_CH_SetBaudrate+0xc4>
 800114a:	687b      	ldr	r3, [r7, #4]
 800114c:	2b00      	cmp	r3, #0
 800114e:	d055      	beq.n	80011fc <XMC_USIC_CH_SetBaudrate+0xc4>
  {
    peripheral_clock = XMC_SCU_CLOCK_GetPeripheralClockFrequency() / 100U;
 8001150:	f7ff fb3e 	bl	80007d0 <XMC_SCU_CLOCK_GetPeripheralClockFrequency>
 8001154:	4602      	mov	r2, r0
 8001156:	4b2e      	ldr	r3, [pc, #184]	; (8001210 <XMC_USIC_CH_SetBaudrate+0xd8>)
 8001158:	fba3 2302 	umull	r2, r3, r3, r2
 800115c:	095b      	lsrs	r3, r3, #5
 800115e:	623b      	str	r3, [r7, #32]
    rate = rate / 100U;
 8001160:	68bb      	ldr	r3, [r7, #8]
 8001162:	4a2b      	ldr	r2, [pc, #172]	; (8001210 <XMC_USIC_CH_SetBaudrate+0xd8>)
 8001164:	fba2 2303 	umull	r2, r3, r2, r3
 8001168:	095b      	lsrs	r3, r3, #5
 800116a:	60bb      	str	r3, [r7, #8]

    clock_divider_min = 1U;
 800116c:	2301      	movs	r3, #1
 800116e:	62fb      	str	r3, [r7, #44]	; 0x2c
    pdiv_int_min = 1U;
 8001170:	2301      	movs	r3, #1
 8001172:	62bb      	str	r3, [r7, #40]	; 0x28
    pdiv_frac_min = 0x3ffU;
 8001174:	f240 33ff 	movw	r3, #1023	; 0x3ff
 8001178:	627b      	str	r3, [r7, #36]	; 0x24

    for(clock_divider = 1023U; clock_divider > 0U; --clock_divider)
 800117a:	f240 33ff 	movw	r3, #1023	; 0x3ff
 800117e:	633b      	str	r3, [r7, #48]	; 0x30
 8001180:	e022      	b.n	80011c8 <XMC_USIC_CH_SetBaudrate+0x90>
    {
      pdiv = ((peripheral_clock * clock_divider) / (rate * oversampling));
 8001182:	6a3b      	ldr	r3, [r7, #32]
 8001184:	6b3a      	ldr	r2, [r7, #48]	; 0x30
 8001186:	fb02 f203 	mul.w	r2, r2, r3
 800118a:	68bb      	ldr	r3, [r7, #8]
 800118c:	6879      	ldr	r1, [r7, #4]
 800118e:	fb01 f303 	mul.w	r3, r1, r3
 8001192:	fbb2 f3f3 	udiv	r3, r2, r3
 8001196:	61fb      	str	r3, [r7, #28]
      pdiv_int = pdiv >> 10U;
 8001198:	69fb      	ldr	r3, [r7, #28]
 800119a:	0a9b      	lsrs	r3, r3, #10
 800119c:	61bb      	str	r3, [r7, #24]
      pdiv_frac = pdiv & 0x3ffU;
 800119e:	69fb      	ldr	r3, [r7, #28]
 80011a0:	f3c3 0309 	ubfx	r3, r3, #0, #10
 80011a4:	617b      	str	r3, [r7, #20]

      if ((pdiv_int < 1024U) && (pdiv_frac < pdiv_frac_min))
 80011a6:	69bb      	ldr	r3, [r7, #24]
 80011a8:	f5b3 6f80 	cmp.w	r3, #1024	; 0x400
 80011ac:	d209      	bcs.n	80011c2 <XMC_USIC_CH_SetBaudrate+0x8a>
 80011ae:	697a      	ldr	r2, [r7, #20]
 80011b0:	6a7b      	ldr	r3, [r7, #36]	; 0x24
 80011b2:	429a      	cmp	r2, r3
 80011b4:	d205      	bcs.n	80011c2 <XMC_USIC_CH_SetBaudrate+0x8a>
      {
        pdiv_frac_min = pdiv_frac;
 80011b6:	697b      	ldr	r3, [r7, #20]
 80011b8:	627b      	str	r3, [r7, #36]	; 0x24
        pdiv_int_min = pdiv_int;
 80011ba:	69bb      	ldr	r3, [r7, #24]
 80011bc:	62bb      	str	r3, [r7, #40]	; 0x28
        clock_divider_min = clock_divider;
 80011be:	6b3b      	ldr	r3, [r7, #48]	; 0x30
 80011c0:	62fb      	str	r3, [r7, #44]	; 0x2c

    clock_divider_min = 1U;
    pdiv_int_min = 1U;
    pdiv_frac_min = 0x3ffU;

    for(clock_divider = 1023U; clock_divider > 0U; --clock_divider)
 80011c2:	6b3b      	ldr	r3, [r7, #48]	; 0x30
 80011c4:	3b01      	subs	r3, #1
 80011c6:	633b      	str	r3, [r7, #48]	; 0x30
 80011c8:	6b3b      	ldr	r3, [r7, #48]	; 0x30
 80011ca:	2b00      	cmp	r3, #0
 80011cc:	d1d9      	bne.n	8001182 <XMC_USIC_CH_SetBaudrate+0x4a>
        pdiv_int_min = pdiv_int;
        clock_divider_min = clock_divider;
      }
    }

    channel->FDR = XMC_USIC_CH_BRG_CLOCK_DIVIDER_MODE_FRACTIONAL |
 80011ce:	6afb      	ldr	r3, [r7, #44]	; 0x2c
 80011d0:	f443 4200 	orr.w	r2, r3, #32768	; 0x8000
 80011d4:	68fb      	ldr	r3, [r7, #12]
 80011d6:	611a      	str	r2, [r3, #16]
                   (clock_divider_min << USIC_CH_FDR_STEP_Pos);

    channel->BRG = (channel->BRG & ~(USIC_CH_BRG_DCTQ_Msk |
 80011d8:	68fb      	ldr	r3, [r7, #12]
 80011da:	695a      	ldr	r2, [r3, #20]
 80011dc:	4b0d      	ldr	r3, [pc, #52]	; (8001214 <XMC_USIC_CH_SetBaudrate+0xdc>)
 80011de:	4013      	ands	r3, r2
                                     USIC_CH_BRG_PDIV_Msk |
                                     USIC_CH_BRG_PCTQ_Msk |
                                     USIC_CH_BRG_PPPEN_Msk)) |
                   ((oversampling - 1U) << USIC_CH_BRG_DCTQ_Pos) |
 80011e0:	687a      	ldr	r2, [r7, #4]
 80011e2:	3a01      	subs	r2, #1
 80011e4:	0292      	lsls	r2, r2, #10
                   (clock_divider_min << USIC_CH_FDR_STEP_Pos);

    channel->BRG = (channel->BRG & ~(USIC_CH_BRG_DCTQ_Msk |
                                     USIC_CH_BRG_PDIV_Msk |
                                     USIC_CH_BRG_PCTQ_Msk |
                                     USIC_CH_BRG_PPPEN_Msk)) |
 80011e6:	431a      	orrs	r2, r3
                   ((oversampling - 1U) << USIC_CH_BRG_DCTQ_Pos) |
                   ((pdiv_int_min - 1U) << USIC_CH_BRG_PDIV_Pos);
 80011e8:	6abb      	ldr	r3, [r7, #40]	; 0x28
 80011ea:	3b01      	subs	r3, #1
 80011ec:	041b      	lsls	r3, r3, #16

    channel->BRG = (channel->BRG & ~(USIC_CH_BRG_DCTQ_Msk |
                                     USIC_CH_BRG_PDIV_Msk |
                                     USIC_CH_BRG_PCTQ_Msk |
                                     USIC_CH_BRG_PPPEN_Msk)) |
                   ((oversampling - 1U) << USIC_CH_BRG_DCTQ_Pos) |
 80011ee:	431a      	orrs	r2, r3
    }

    channel->FDR = XMC_USIC_CH_BRG_CLOCK_DIVIDER_MODE_FRACTIONAL |
                   (clock_divider_min << USIC_CH_FDR_STEP_Pos);

    channel->BRG = (channel->BRG & ~(USIC_CH_BRG_DCTQ_Msk |
 80011f0:	68fb      	ldr	r3, [r7, #12]
 80011f2:	615a      	str	r2, [r3, #20]
                                     USIC_CH_BRG_PCTQ_Msk |
                                     USIC_CH_BRG_PPPEN_Msk)) |
                   ((oversampling - 1U) << USIC_CH_BRG_DCTQ_Pos) |
                   ((pdiv_int_min - 1U) << USIC_CH_BRG_PDIV_Pos);
                    
    status = XMC_USIC_CH_STATUS_OK;
 80011f4:	2300      	movs	r3, #0
 80011f6:	f887 3037 	strb.w	r3, [r7, #55]	; 0x37
 80011fa:	e002      	b.n	8001202 <XMC_USIC_CH_SetBaudrate+0xca>
  }
  else 
  {
    status = XMC_USIC_CH_STATUS_ERROR;
 80011fc:	2301      	movs	r3, #1
 80011fe:	f887 3037 	strb.w	r3, [r7, #55]	; 0x37
  }
  
  return status;
 8001202:	f897 3037 	ldrb.w	r3, [r7, #55]	; 0x37
}
 8001206:	4618      	mov	r0, r3
 8001208:	3738      	adds	r7, #56	; 0x38
 800120a:	46bd      	mov	sp, r7
 800120c:	bd80      	pop	{r7, pc}
 800120e:	bf00      	nop
 8001210:	51eb851f 	.word	0x51eb851f
 8001214:	fc0080ef 	.word	0xfc0080ef

08001218 <XMC_USIC_CH_SetBaudrateEx>:

XMC_USIC_CH_STATUS_t XMC_USIC_CH_SetBaudrateEx(XMC_USIC_CH_t *const channel, int32_t rate, int32_t oversampling)
{
 8001218:	b580      	push	{r7, lr}
 800121a:	b08c      	sub	sp, #48	; 0x30
 800121c:	af00      	add	r7, sp, #0
 800121e:	60f8      	str	r0, [r7, #12]
 8001220:	60b9      	str	r1, [r7, #8]
 8001222:	607a      	str	r2, [r7, #4]
  int32_t peripheral_clock = XMC_SCU_CLOCK_GetPeripheralClockFrequency();
 8001224:	f7ff fad4 	bl	80007d0 <XMC_SCU_CLOCK_GetPeripheralClockFrequency>
 8001228:	4603      	mov	r3, r0
 800122a:	623b      	str	r3, [r7, #32]
  int32_t brg_clock = rate * oversampling;
 800122c:	68bb      	ldr	r3, [r7, #8]
 800122e:	687a      	ldr	r2, [r7, #4]
 8001230:	fb02 f303 	mul.w	r3, r2, r3
 8001234:	61fb      	str	r3, [r7, #28]
  int32_t actual_rate_upper;
  int32_t actual_rate_lower;
  uint32_t pdiv = 1;
 8001236:	2301      	movs	r3, #1
 8001238:	62fb      	str	r3, [r7, #44]	; 0x2c
  uint32_t divider_step;
  XMC_USIC_CH_STATUS_t status;

  if (peripheral_clock > brg_clock)
 800123a:	6a3a      	ldr	r2, [r7, #32]
 800123c:	69fb      	ldr	r3, [r7, #28]
 800123e:	429a      	cmp	r2, r3
 8001240:	dd5f      	ble.n	8001302 <XMC_USIC_CH_SetBaudrateEx+0xea>
  {
    divider_step = peripheral_clock / brg_clock; // integer division gets truncated
 8001242:	6a3a      	ldr	r2, [r7, #32]
 8001244:	69fb      	ldr	r3, [r7, #28]
 8001246:	fb92 f3f3 	sdiv	r3, r2, r3
 800124a:	62bb      	str	r3, [r7, #40]	; 0x28
    while (divider_step >= 1023)
 800124c:	e010      	b.n	8001270 <XMC_USIC_CH_SetBaudrateEx+0x58>
    {
      pdiv++;
 800124e:	6afb      	ldr	r3, [r7, #44]	; 0x2c
 8001250:	3301      	adds	r3, #1
 8001252:	62fb      	str	r3, [r7, #44]	; 0x2c
      brg_clock = rate * oversampling * pdiv;
 8001254:	68bb      	ldr	r3, [r7, #8]
 8001256:	687a      	ldr	r2, [r7, #4]
 8001258:	fb02 f303 	mul.w	r3, r2, r3
 800125c:	461a      	mov	r2, r3
 800125e:	6afb      	ldr	r3, [r7, #44]	; 0x2c
 8001260:	fb03 f302 	mul.w	r3, r3, r2
 8001264:	61fb      	str	r3, [r7, #28]
      divider_step = peripheral_clock / brg_clock; // integer division gets truncated
 8001266:	6a3a      	ldr	r2, [r7, #32]
 8001268:	69fb      	ldr	r3, [r7, #28]
 800126a:	fb92 f3f3 	sdiv	r3, r2, r3
 800126e:	62bb      	str	r3, [r7, #40]	; 0x28
  XMC_USIC_CH_STATUS_t status;

  if (peripheral_clock > brg_clock)
  {
    divider_step = peripheral_clock / brg_clock; // integer division gets truncated
    while (divider_step >= 1023)
 8001270:	6abb      	ldr	r3, [r7, #40]	; 0x28
 8001272:	f240 32fe 	movw	r2, #1022	; 0x3fe
 8001276:	4293      	cmp	r3, r2
 8001278:	d8e9      	bhi.n	800124e <XMC_USIC_CH_SetBaudrateEx+0x36>
    {
      pdiv++;
      brg_clock = rate * oversampling * pdiv;
      divider_step = peripheral_clock / brg_clock; // integer division gets truncated
    }
    actual_rate_upper = peripheral_clock / (divider_step * oversampling * pdiv);
 800127a:	6a3a      	ldr	r2, [r7, #32]
 800127c:	687b      	ldr	r3, [r7, #4]
 800127e:	6ab9      	ldr	r1, [r7, #40]	; 0x28
 8001280:	fb01 f303 	mul.w	r3, r1, r3
 8001284:	6af9      	ldr	r1, [r7, #44]	; 0x2c
 8001286:	fb01 f303 	mul.w	r3, r1, r3
 800128a:	fbb2 f3f3 	udiv	r3, r2, r3
 800128e:	61bb      	str	r3, [r7, #24]
    actual_rate_lower = peripheral_clock / ((divider_step + 1) * oversampling * pdiv);
 8001290:	6a3a      	ldr	r2, [r7, #32]
 8001292:	6abb      	ldr	r3, [r7, #40]	; 0x28
 8001294:	3301      	adds	r3, #1
 8001296:	6879      	ldr	r1, [r7, #4]
 8001298:	fb01 f303 	mul.w	r3, r1, r3
 800129c:	6af9      	ldr	r1, [r7, #44]	; 0x2c
 800129e:	fb01 f303 	mul.w	r3, r1, r3
 80012a2:	fbb2 f3f3 	udiv	r3, r2, r3
 80012a6:	617b      	str	r3, [r7, #20]

    // choose better approximation if the peripheral frequency is not a multiple of the baudrate
    if (abs(rate - actual_rate_lower) < abs(rate - actual_rate_upper))
 80012a8:	68ba      	ldr	r2, [r7, #8]
 80012aa:	697b      	ldr	r3, [r7, #20]
 80012ac:	1ad3      	subs	r3, r2, r3
 80012ae:	ea83 72e3 	eor.w	r2, r3, r3, asr #31
 80012b2:	eba2 72e3 	sub.w	r2, r2, r3, asr #31
 80012b6:	68b9      	ldr	r1, [r7, #8]
 80012b8:	69bb      	ldr	r3, [r7, #24]
 80012ba:	1acb      	subs	r3, r1, r3
 80012bc:	2b00      	cmp	r3, #0
 80012be:	bfb8      	it	lt
 80012c0:	425b      	neglt	r3, r3
 80012c2:	429a      	cmp	r2, r3
 80012c4:	da02      	bge.n	80012cc <XMC_USIC_CH_SetBaudrateEx+0xb4>
    {
      divider_step += 1;
 80012c6:	6abb      	ldr	r3, [r7, #40]	; 0x28
 80012c8:	3301      	adds	r3, #1
 80012ca:	62bb      	str	r3, [r7, #40]	; 0x28
    }

    divider_step = 1024 - divider_step;
 80012cc:	6abb      	ldr	r3, [r7, #40]	; 0x28
 80012ce:	f5c3 6380 	rsb	r3, r3, #1024	; 0x400
 80012d2:	62bb      	str	r3, [r7, #40]	; 0x28


    channel->FDR = XMC_USIC_CH_BRG_CLOCK_DIVIDER_MODE_NORMAL |
 80012d4:	6abb      	ldr	r3, [r7, #40]	; 0x28
 80012d6:	f443 4280 	orr.w	r2, r3, #16384	; 0x4000
 80012da:	68fb      	ldr	r3, [r7, #12]
 80012dc:	611a      	str	r2, [r3, #16]
                   (divider_step << USIC_CH_FDR_STEP_Pos);

    channel->BRG = (channel->BRG & ~(USIC_CH_BRG_DCTQ_Msk |
 80012de:	68fb      	ldr	r3, [r7, #12]
 80012e0:	695a      	ldr	r2, [r3, #20]
 80012e2:	4b0c      	ldr	r3, [pc, #48]	; (8001314 <XMC_USIC_CH_SetBaudrateEx+0xfc>)
 80012e4:	4013      	ands	r3, r2
                                     USIC_CH_BRG_PDIV_Msk |
                                     USIC_CH_BRG_PCTQ_Msk |
                                     USIC_CH_BRG_PPPEN_Msk)) |
                   ((oversampling - 1U) << USIC_CH_BRG_DCTQ_Pos) |
 80012e6:	687a      	ldr	r2, [r7, #4]
 80012e8:	3a01      	subs	r2, #1
 80012ea:	0292      	lsls	r2, r2, #10
                   (divider_step << USIC_CH_FDR_STEP_Pos);

    channel->BRG = (channel->BRG & ~(USIC_CH_BRG_DCTQ_Msk |
                                     USIC_CH_BRG_PDIV_Msk |
                                     USIC_CH_BRG_PCTQ_Msk |
                                     USIC_CH_BRG_PPPEN_Msk)) |
 80012ec:	431a      	orrs	r2, r3
                   ((oversampling - 1U) << USIC_CH_BRG_DCTQ_Pos) |
				   ((pdiv -1) << USIC_CH_BRG_PDIV_Pos);
 80012ee:	6afb      	ldr	r3, [r7, #44]	; 0x2c
 80012f0:	3b01      	subs	r3, #1
 80012f2:	041b      	lsls	r3, r3, #16

    channel->BRG = (channel->BRG & ~(USIC_CH_BRG_DCTQ_Msk |
                                     USIC_CH_BRG_PDIV_Msk |
                                     USIC_CH_BRG_PCTQ_Msk |
                                     USIC_CH_BRG_PPPEN_Msk)) |
                   ((oversampling - 1U) << USIC_CH_BRG_DCTQ_Pos) |
 80012f4:	431a      	orrs	r2, r3


    channel->FDR = XMC_USIC_CH_BRG_CLOCK_DIVIDER_MODE_NORMAL |
                   (divider_step << USIC_CH_FDR_STEP_Pos);

    channel->BRG = (channel->BRG & ~(USIC_CH_BRG_DCTQ_Msk |
 80012f6:	68fb      	ldr	r3, [r7, #12]
 80012f8:	615a      	str	r2, [r3, #20]
                                     USIC_CH_BRG_PCTQ_Msk |
                                     USIC_CH_BRG_PPPEN_Msk)) |
                   ((oversampling - 1U) << USIC_CH_BRG_DCTQ_Pos) |
				   ((pdiv -1) << USIC_CH_BRG_PDIV_Pos);

    status = XMC_USIC_CH_STATUS_OK;
 80012fa:	2300      	movs	r3, #0
 80012fc:	f887 3027 	strb.w	r3, [r7, #39]	; 0x27
 8001300:	e002      	b.n	8001308 <XMC_USIC_CH_SetBaudrateEx+0xf0>
  }
  else
  {
    status = XMC_USIC_CH_STATUS_ERROR;
 8001302:	2301      	movs	r3, #1
 8001304:	f887 3027 	strb.w	r3, [r7, #39]	; 0x27
  }

  return status;
 8001308:	f897 3027 	ldrb.w	r3, [r7, #39]	; 0x27
}
 800130c:	4618      	mov	r0, r3
 800130e:	3730      	adds	r7, #48	; 0x30
 8001310:	46bd      	mov	sp, r7
 8001312:	bd80      	pop	{r7, pc}
 8001314:	fc0080ef 	.word	0xfc0080ef

08001318 <XMC_USIC_CH_TXFIFO_Configure>:

void XMC_USIC_CH_TXFIFO_Configure(XMC_USIC_CH_t *const channel,
                                  const uint32_t data_pointer,
                                  const XMC_USIC_CH_FIFO_SIZE_t size,
                                  const uint32_t limit)
{
 8001318:	b480      	push	{r7}
 800131a:	b085      	sub	sp, #20
 800131c:	af00      	add	r7, sp, #0
 800131e:	60f8      	str	r0, [r7, #12]
 8001320:	60b9      	str	r1, [r7, #8]
 8001322:	603b      	str	r3, [r7, #0]
 8001324:	4613      	mov	r3, r2
 8001326:	71fb      	strb	r3, [r7, #7]
  /* Disable FIFO */
  channel->TBCTR &= (uint32_t)~USIC_CH_TBCTR_SIZE_Msk;
 8001328:	68fb      	ldr	r3, [r7, #12]
 800132a:	f8d3 3108 	ldr.w	r3, [r3, #264]	; 0x108
 800132e:	f023 62e0 	bic.w	r2, r3, #117440512	; 0x7000000
 8001332:	68fb      	ldr	r3, [r7, #12]
 8001334:	f8c3 2108 	str.w	r2, [r3, #264]	; 0x108
  /* LOF = 0, A standard transmit buffer event occurs when the filling level equals the limit value and gets
   * lower due to transmission of a data word
   * STBTEN = 0, the trigger of the standard transmit buffer event is based on the transition of the fill level
   *  from equal to below the limit, not the fact being below
   */
  channel->TBCTR = (uint32_t)(channel->TBCTR & (uint32_t)~(USIC_CH_TBCTR_LIMIT_Msk |
 8001338:	68fb      	ldr	r3, [r7, #12]
 800133a:	f8d3 2108 	ldr.w	r2, [r3, #264]	; 0x108
 800133e:	4b09      	ldr	r3, [pc, #36]	; (8001364 <XMC_USIC_CH_TXFIFO_Configure+0x4c>)
 8001340:	4013      	ands	r3, r2
                                                           USIC_CH_TBCTR_DPTR_Msk |
                                                           USIC_CH_TBCTR_SIZE_Msk)) |
                   (uint32_t)((limit << USIC_CH_TBCTR_LIMIT_Pos) |
 8001342:	683a      	ldr	r2, [r7, #0]
 8001344:	0211      	lsls	r1, r2, #8
 8001346:	68ba      	ldr	r2, [r7, #8]
 8001348:	4311      	orrs	r1, r2
                   (data_pointer << USIC_CH_TBCTR_DPTR_Pos) |
                   ((uint32_t)size << USIC_CH_TBCTR_SIZE_Pos));
 800134a:	79fa      	ldrb	r2, [r7, #7]
 800134c:	0612      	lsls	r2, r2, #24
   *  from equal to below the limit, not the fact being below
   */
  channel->TBCTR = (uint32_t)(channel->TBCTR & (uint32_t)~(USIC_CH_TBCTR_LIMIT_Msk |
                                                           USIC_CH_TBCTR_DPTR_Msk |
                                                           USIC_CH_TBCTR_SIZE_Msk)) |
                   (uint32_t)((limit << USIC_CH_TBCTR_LIMIT_Pos) |
 800134e:	430a      	orrs	r2, r1
   * STBTEN = 0, the trigger of the standard transmit buffer event is based on the transition of the fill level
   *  from equal to below the limit, not the fact being below
   */
  channel->TBCTR = (uint32_t)(channel->TBCTR & (uint32_t)~(USIC_CH_TBCTR_LIMIT_Msk |
                                                           USIC_CH_TBCTR_DPTR_Msk |
                                                           USIC_CH_TBCTR_SIZE_Msk)) |
 8001350:	431a      	orrs	r2, r3
  /* LOF = 0, A standard transmit buffer event occurs when the filling level equals the limit value and gets
   * lower due to transmission of a data word
   * STBTEN = 0, the trigger of the standard transmit buffer event is based on the transition of the fill level
   *  from equal to below the limit, not the fact being below
   */
  channel->TBCTR = (uint32_t)(channel->TBCTR & (uint32_t)~(USIC_CH_TBCTR_LIMIT_Msk |
 8001352:	68fb      	ldr	r3, [r7, #12]
 8001354:	f8c3 2108 	str.w	r2, [r3, #264]	; 0x108
                                                           USIC_CH_TBCTR_DPTR_Msk |
                                                           USIC_CH_TBCTR_SIZE_Msk)) |
                   (uint32_t)((limit << USIC_CH_TBCTR_LIMIT_Pos) |
                   (data_pointer << USIC_CH_TBCTR_DPTR_Pos) |
                   ((uint32_t)size << USIC_CH_TBCTR_SIZE_Pos));
}
 8001358:	3714      	adds	r7, #20
 800135a:	46bd      	mov	sp, r7
 800135c:	f85d 7b04 	ldr.w	r7, [sp], #4
 8001360:	4770      	bx	lr
 8001362:	bf00      	nop
 8001364:	f8ffc0c0 	.word	0xf8ffc0c0

08001368 <XMC_USIC_CH_RXFIFO_Configure>:

void XMC_USIC_CH_RXFIFO_Configure(XMC_USIC_CH_t *const channel,
                                  const uint32_t data_pointer,
                                  const XMC_USIC_CH_FIFO_SIZE_t size,
                                  const uint32_t limit)
{
 8001368:	b480      	push	{r7}
 800136a:	b085      	sub	sp, #20
 800136c:	af00      	add	r7, sp, #0
 800136e:	60f8      	str	r0, [r7, #12]
 8001370:	60b9      	str	r1, [r7, #8]
 8001372:	603b      	str	r3, [r7, #0]
 8001374:	4613      	mov	r3, r2
 8001376:	71fb      	strb	r3, [r7, #7]
  /* Disable FIFO */
  channel->RBCTR &= (uint32_t)~USIC_CH_RBCTR_SIZE_Msk;
 8001378:	68fb      	ldr	r3, [r7, #12]
 800137a:	f8d3 310c 	ldr.w	r3, [r3, #268]	; 0x10c
 800137e:	f023 62e0 	bic.w	r2, r3, #117440512	; 0x7000000
 8001382:	68fb      	ldr	r3, [r7, #12]
 8001384:	f8c3 210c 	str.w	r2, [r3, #268]	; 0x10c

  /* LOF = 1, A standard receive buffer event occurs when the filling level equals the limit value and gets bigger
   *  due to the reception of a new data word
   */
  channel->RBCTR = (uint32_t)((channel->RBCTR & (uint32_t)~(USIC_CH_RBCTR_LIMIT_Msk |
 8001388:	68fb      	ldr	r3, [r7, #12]
 800138a:	f8d3 210c 	ldr.w	r2, [r3, #268]	; 0x10c
 800138e:	4b0a      	ldr	r3, [pc, #40]	; (80013b8 <XMC_USIC_CH_RXFIFO_Configure+0x50>)
 8001390:	4013      	ands	r3, r2
                                                            USIC_CH_RBCTR_DPTR_Msk |
                                                            USIC_CH_RBCTR_LOF_Msk)) |
                   ((limit << USIC_CH_RBCTR_LIMIT_Pos) |
 8001392:	683a      	ldr	r2, [r7, #0]
 8001394:	0211      	lsls	r1, r2, #8
 8001396:	68ba      	ldr	r2, [r7, #8]
 8001398:	4311      	orrs	r1, r2
                   (data_pointer << USIC_CH_RBCTR_DPTR_Pos) |
                   ((uint32_t)size << USIC_CH_RBCTR_SIZE_Pos) |
 800139a:	79fa      	ldrb	r2, [r7, #7]
 800139c:	0612      	lsls	r2, r2, #24
   */
  channel->RBCTR = (uint32_t)((channel->RBCTR & (uint32_t)~(USIC_CH_RBCTR_LIMIT_Msk |
                                                            USIC_CH_RBCTR_DPTR_Msk |
                                                            USIC_CH_RBCTR_LOF_Msk)) |
                   ((limit << USIC_CH_RBCTR_LIMIT_Pos) |
                   (data_pointer << USIC_CH_RBCTR_DPTR_Pos) |
 800139e:	430a      	orrs	r2, r1
  channel->RBCTR &= (uint32_t)~USIC_CH_RBCTR_SIZE_Msk;

  /* LOF = 1, A standard receive buffer event occurs when the filling level equals the limit value and gets bigger
   *  due to the reception of a new data word
   */
  channel->RBCTR = (uint32_t)((channel->RBCTR & (uint32_t)~(USIC_CH_RBCTR_LIMIT_Msk |
 80013a0:	4313      	orrs	r3, r2
 80013a2:	f043 5280 	orr.w	r2, r3, #268435456	; 0x10000000
 80013a6:	68fb      	ldr	r3, [r7, #12]
 80013a8:	f8c3 210c 	str.w	r2, [r3, #268]	; 0x10c
                                                            USIC_CH_RBCTR_LOF_Msk)) |
                   ((limit << USIC_CH_RBCTR_LIMIT_Pos) |
                   (data_pointer << USIC_CH_RBCTR_DPTR_Pos) |
                   ((uint32_t)size << USIC_CH_RBCTR_SIZE_Pos) |
                   (uint32_t)USIC_CH_RBCTR_LOF_Msk));
}
 80013ac:	3714      	adds	r7, #20
 80013ae:	46bd      	mov	sp, r7
 80013b0:	f85d 7b04 	ldr.w	r7, [sp], #4
 80013b4:	4770      	bx	lr
 80013b6:	bf00      	nop
 80013b8:	efffc0c0 	.word	0xefffc0c0

080013bc <XMC_USIC_CH_RXFIFO_SetSizeTriggerLimit>:
}

void XMC_USIC_CH_RXFIFO_SetSizeTriggerLimit(XMC_USIC_CH_t *const channel,
                                            const XMC_USIC_CH_FIFO_SIZE_t size,
                                            const uint32_t limit)
{
 80013bc:	b480      	push	{r7}
 80013be:	b085      	sub	sp, #20
 80013c0:	af00      	add	r7, sp, #0
 80013c2:	60f8      	str	r0, [r7, #12]
 80013c4:	460b      	mov	r3, r1
 80013c6:	607a      	str	r2, [r7, #4]
 80013c8:	72fb      	strb	r3, [r7, #11]
  /* Disable FIFO */
  channel->RBCTR &= (uint32_t)~USIC_CH_RBCTR_SIZE_Msk;
 80013ca:	68fb      	ldr	r3, [r7, #12]
 80013cc:	f8d3 310c 	ldr.w	r3, [r3, #268]	; 0x10c
 80013d0:	f023 62e0 	bic.w	r2, r3, #117440512	; 0x7000000
 80013d4:	68fb      	ldr	r3, [r7, #12]
 80013d6:	f8c3 210c 	str.w	r2, [r3, #268]	; 0x10c

  channel->RBCTR = (uint32_t)((uint32_t)(channel->RBCTR & (uint32_t)~USIC_CH_RBCTR_LIMIT_Msk) |
 80013da:	68fb      	ldr	r3, [r7, #12]
 80013dc:	f8d3 310c 	ldr.w	r3, [r3, #268]	; 0x10c
 80013e0:	f423 527c 	bic.w	r2, r3, #16128	; 0x3f00
                   (limit << USIC_CH_RBCTR_LIMIT_Pos) |
 80013e4:	687b      	ldr	r3, [r7, #4]
 80013e6:	021b      	lsls	r3, r3, #8
                                            const uint32_t limit)
{
  /* Disable FIFO */
  channel->RBCTR &= (uint32_t)~USIC_CH_RBCTR_SIZE_Msk;

  channel->RBCTR = (uint32_t)((uint32_t)(channel->RBCTR & (uint32_t)~USIC_CH_RBCTR_LIMIT_Msk) |
 80013e8:	431a      	orrs	r2, r3
                   (limit << USIC_CH_RBCTR_LIMIT_Pos) |
                   ((uint32_t)size << USIC_CH_RBCTR_SIZE_Pos));
 80013ea:	7afb      	ldrb	r3, [r7, #11]
 80013ec:	061b      	lsls	r3, r3, #24
                                            const uint32_t limit)
{
  /* Disable FIFO */
  channel->RBCTR &= (uint32_t)~USIC_CH_RBCTR_SIZE_Msk;

  channel->RBCTR = (uint32_t)((uint32_t)(channel->RBCTR & (uint32_t)~USIC_CH_RBCTR_LIMIT_Msk) |
 80013ee:	431a      	orrs	r2, r3
 80013f0:	68fb      	ldr	r3, [r7, #12]
 80013f2:	f8c3 210c 	str.w	r2, [r3, #268]	; 0x10c
                   (limit << USIC_CH_RBCTR_LIMIT_Pos) |
                   ((uint32_t)size << USIC_CH_RBCTR_SIZE_Pos));
}
 80013f6:	3714      	adds	r7, #20
 80013f8:	46bd      	mov	sp, r7
 80013fa:	f85d 7b04 	ldr.w	r7, [sp], #4
 80013fe:	4770      	bx	lr

08001400 <XMC_USIC_CH_SetInterruptNodePointer>:

void XMC_USIC_CH_SetInterruptNodePointer(XMC_USIC_CH_t *const channel,
                                         const XMC_USIC_CH_INTERRUPT_NODE_POINTER_t interrupt_node,
                                         const uint32_t service_request)
{
 8001400:	b480      	push	{r7}
 8001402:	b085      	sub	sp, #20
 8001404:	af00      	add	r7, sp, #0
 8001406:	60f8      	str	r0, [r7, #12]
 8001408:	460b      	mov	r3, r1
 800140a:	607a      	str	r2, [r7, #4]
 800140c:	72fb      	strb	r3, [r7, #11]
  channel->INPR = (uint32_t)((channel->INPR & (~(uint32_t)(USIC_CH_INPR_Msk << (uint32_t)interrupt_node))) |
 800140e:	68fb      	ldr	r3, [r7, #12]
 8001410:	699a      	ldr	r2, [r3, #24]
 8001412:	7afb      	ldrb	r3, [r7, #11]
 8001414:	2107      	movs	r1, #7
 8001416:	fa01 f303 	lsl.w	r3, r1, r3
 800141a:	43db      	mvns	r3, r3
 800141c:	401a      	ands	r2, r3
                  (service_request << (uint32_t)interrupt_node));
 800141e:	7afb      	ldrb	r3, [r7, #11]
 8001420:	6879      	ldr	r1, [r7, #4]
 8001422:	fa01 f303 	lsl.w	r3, r1, r3

void XMC_USIC_CH_SetInterruptNodePointer(XMC_USIC_CH_t *const channel,
                                         const XMC_USIC_CH_INTERRUPT_NODE_POINTER_t interrupt_node,
                                         const uint32_t service_request)
{
  channel->INPR = (uint32_t)((channel->INPR & (~(uint32_t)(USIC_CH_INPR_Msk << (uint32_t)interrupt_node))) |
 8001426:	431a      	orrs	r2, r3
 8001428:	68fb      	ldr	r3, [r7, #12]
 800142a:	619a      	str	r2, [r3, #24]
                  (service_request << (uint32_t)interrupt_node));
}
 800142c:	3714      	adds	r7, #20
 800142e:	46bd      	mov	sp, r7
 8001430:	f85d 7b04 	ldr.w	r7, [sp], #4
 8001434:	4770      	bx	lr
 8001436:	bf00      	nop

08001438 <XMC_USIC_CH_TXFIFO_SetInterruptNodePointer>:

void XMC_USIC_CH_TXFIFO_SetInterruptNodePointer(XMC_USIC_CH_t *const channel,
                                                const XMC_USIC_CH_TXFIFO_INTERRUPT_NODE_POINTER_t interrupt_node,
                                                const uint32_t service_request)
{
 8001438:	b480      	push	{r7}
 800143a:	b085      	sub	sp, #20
 800143c:	af00      	add	r7, sp, #0
 800143e:	60f8      	str	r0, [r7, #12]
 8001440:	460b      	mov	r3, r1
 8001442:	607a      	str	r2, [r7, #4]
 8001444:	72fb      	strb	r3, [r7, #11]
  channel->TBCTR = (uint32_t)((channel->TBCTR & (~(uint32_t)(USIC_CH_INPR_Msk << (uint32_t)interrupt_node))) |
 8001446:	68fb      	ldr	r3, [r7, #12]
 8001448:	f8d3 2108 	ldr.w	r2, [r3, #264]	; 0x108
 800144c:	7afb      	ldrb	r3, [r7, #11]
 800144e:	2107      	movs	r1, #7
 8001450:	fa01 f303 	lsl.w	r3, r1, r3
 8001454:	43db      	mvns	r3, r3
 8001456:	401a      	ands	r2, r3
                   (service_request << (uint32_t)interrupt_node));
 8001458:	7afb      	ldrb	r3, [r7, #11]
 800145a:	6879      	ldr	r1, [r7, #4]
 800145c:	fa01 f303 	lsl.w	r3, r1, r3

void XMC_USIC_CH_TXFIFO_SetInterruptNodePointer(XMC_USIC_CH_t *const channel,
                                                const XMC_USIC_CH_TXFIFO_INTERRUPT_NODE_POINTER_t interrupt_node,
                                                const uint32_t service_request)
{
  channel->TBCTR = (uint32_t)((channel->TBCTR & (~(uint32_t)(USIC_CH_INPR_Msk << (uint32_t)interrupt_node))) |
 8001460:	431a      	orrs	r2, r3
 8001462:	68fb      	ldr	r3, [r7, #12]
 8001464:	f8c3 2108 	str.w	r2, [r3, #264]	; 0x108
                   (service_request << (uint32_t)interrupt_node));
}
 8001468:	3714      	adds	r7, #20
 800146a:	46bd      	mov	sp, r7
 800146c:	f85d 7b04 	ldr.w	r7, [sp], #4
 8001470:	4770      	bx	lr
 8001472:	bf00      	nop

08001474 <XMC_USIC_CH_RXFIFO_SetInterruptNodePointer>:

void XMC_USIC_CH_RXFIFO_SetInterruptNodePointer(XMC_USIC_CH_t *const channel,
                                                const XMC_USIC_CH_RXFIFO_INTERRUPT_NODE_POINTER_t interrupt_node,
                                                const uint32_t service_request)
{
 8001474:	b480      	push	{r7}
 8001476:	b085      	sub	sp, #20
 8001478:	af00      	add	r7, sp, #0
 800147a:	60f8      	str	r0, [r7, #12]
 800147c:	460b      	mov	r3, r1
 800147e:	607a      	str	r2, [r7, #4]
 8001480:	72fb      	strb	r3, [r7, #11]
  channel->RBCTR = (uint32_t)((channel->RBCTR & (~(uint32_t)(USIC_CH_INPR_Msk << (uint32_t)interrupt_node))) |
 8001482:	68fb      	ldr	r3, [r7, #12]
 8001484:	f8d3 210c 	ldr.w	r2, [r3, #268]	; 0x10c
 8001488:	7afb      	ldrb	r3, [r7, #11]
 800148a:	2107      	movs	r1, #7
 800148c:	fa01 f303 	lsl.w	r3, r1, r3
 8001490:	43db      	mvns	r3, r3
 8001492:	401a      	ands	r2, r3
                   (service_request << (uint32_t)interrupt_node));
 8001494:	7afb      	ldrb	r3, [r7, #11]
 8001496:	6879      	ldr	r1, [r7, #4]
 8001498:	fa01 f303 	lsl.w	r3, r1, r3

void XMC_USIC_CH_RXFIFO_SetInterruptNodePointer(XMC_USIC_CH_t *const channel,
                                                const XMC_USIC_CH_RXFIFO_INTERRUPT_NODE_POINTER_t interrupt_node,
                                                const uint32_t service_request)
{
  channel->RBCTR = (uint32_t)((channel->RBCTR & (~(uint32_t)(USIC_CH_INPR_Msk << (uint32_t)interrupt_node))) |
 800149c:	431a      	orrs	r2, r3
 800149e:	68fb      	ldr	r3, [r7, #12]
 80014a0:	f8c3 210c 	str.w	r2, [r3, #268]	; 0x10c
                   (service_request << (uint32_t)interrupt_node));
}
 80014a4:	3714      	adds	r7, #20
 80014a6:	46bd      	mov	sp, r7
 80014a8:	f85d 7b04 	ldr.w	r7, [sp], #4
 80014ac:	4770      	bx	lr
 80014ae:	bf00      	nop

080014b0 <XMC_USIC_Enable>:

void XMC_USIC_Enable(XMC_USIC_t *const usic)
{
 80014b0:	b580      	push	{r7, lr}
 80014b2:	b082      	sub	sp, #8
 80014b4:	af00      	add	r7, sp, #0
 80014b6:	6078      	str	r0, [r7, #4]
  if (usic == USIC0)
 80014b8:	687b      	ldr	r3, [r7, #4]
 80014ba:	4a28      	ldr	r2, [pc, #160]	; (800155c <XMC_USIC_Enable+0xac>)
 80014bc:	4293      	cmp	r3, r2
 80014be:	d118      	bne.n	80014f2 <XMC_USIC_Enable+0x42>
  {
#if defined(CLOCK_GATING_SUPPORTED)
    XMC_SCU_CLOCK_UngatePeripheralClock(XMC_SCU_PERIPHERAL_CLOCK_USIC0);
 80014c0:	f44f 6000 	mov.w	r0, #2048	; 0x800
 80014c4:	f7ff fab8 	bl	8000a38 <XMC_SCU_CLOCK_UngatePeripheralClock>
    while (XMC_SCU_CLOCK_IsPeripheralClockGated(XMC_SCU_PERIPHERAL_CLOCK_USIC0));
 80014c8:	bf00      	nop
 80014ca:	f44f 6000 	mov.w	r0, #2048	; 0x800
 80014ce:	f7ff facf 	bl	8000a70 <XMC_SCU_CLOCK_IsPeripheralClockGated>
 80014d2:	4603      	mov	r3, r0
 80014d4:	2b00      	cmp	r3, #0
 80014d6:	d1f8      	bne.n	80014ca <XMC_USIC_Enable+0x1a>
#endif
#if defined(PERIPHERAL_RESET_SUPPORTED)
    XMC_SCU_RESET_DeassertPeripheralReset(XMC_SCU_PERIPHERAL_RESET_USIC0);
 80014d8:	f44f 6000 	mov.w	r0, #2048	; 0x800
 80014dc:	f7ff f938 	bl	8000750 <XMC_SCU_RESET_DeassertPeripheralReset>
    while (XMC_SCU_RESET_IsPeripheralResetAsserted(XMC_SCU_PERIPHERAL_RESET_USIC0));
 80014e0:	bf00      	nop
 80014e2:	f44f 6000 	mov.w	r0, #2048	; 0x800
 80014e6:	f7ff f94f 	bl	8000788 <XMC_SCU_RESET_IsPeripheralResetAsserted>
 80014ea:	4603      	mov	r3, r0
 80014ec:	2b00      	cmp	r3, #0
 80014ee:	d1f8      	bne.n	80014e2 <XMC_USIC_Enable+0x32>
 80014f0:	e030      	b.n	8001554 <XMC_USIC_Enable+0xa4>
#endif 
  }
#if defined(USIC1)  
  else if (usic == USIC1)
 80014f2:	687b      	ldr	r3, [r7, #4]
 80014f4:	4a1a      	ldr	r2, [pc, #104]	; (8001560 <XMC_USIC_Enable+0xb0>)
 80014f6:	4293      	cmp	r3, r2
 80014f8:	d114      	bne.n	8001524 <XMC_USIC_Enable+0x74>
  {
#if defined(CLOCK_GATING_SUPPORTED)
    XMC_SCU_CLOCK_UngatePeripheralClock(XMC_SCU_PERIPHERAL_CLOCK_USIC1);
 80014fa:	481a      	ldr	r0, [pc, #104]	; (8001564 <XMC_USIC_Enable+0xb4>)
 80014fc:	f7ff fa9c 	bl	8000a38 <XMC_SCU_CLOCK_UngatePeripheralClock>
    while (XMC_SCU_CLOCK_IsPeripheralClockGated(XMC_SCU_PERIPHERAL_CLOCK_USIC1));
 8001500:	bf00      	nop
 8001502:	4818      	ldr	r0, [pc, #96]	; (8001564 <XMC_USIC_Enable+0xb4>)
 8001504:	f7ff fab4 	bl	8000a70 <XMC_SCU_CLOCK_IsPeripheralClockGated>
 8001508:	4603      	mov	r3, r0
 800150a:	2b00      	cmp	r3, #0
 800150c:	d1f9      	bne.n	8001502 <XMC_USIC_Enable+0x52>
#endif 
#if defined(PERIPHERAL_RESET_SUPPORTED)
    XMC_SCU_RESET_DeassertPeripheralReset(XMC_SCU_PERIPHERAL_RESET_USIC1);
 800150e:	4815      	ldr	r0, [pc, #84]	; (8001564 <XMC_USIC_Enable+0xb4>)
 8001510:	f7ff f91e 	bl	8000750 <XMC_SCU_RESET_DeassertPeripheralReset>
    while (XMC_SCU_RESET_IsPeripheralResetAsserted(XMC_SCU_PERIPHERAL_RESET_USIC1));
 8001514:	bf00      	nop
 8001516:	4813      	ldr	r0, [pc, #76]	; (8001564 <XMC_USIC_Enable+0xb4>)
 8001518:	f7ff f936 	bl	8000788 <XMC_SCU_RESET_IsPeripheralResetAsserted>
 800151c:	4603      	mov	r3, r0
 800151e:	2b00      	cmp	r3, #0
 8001520:	d1f9      	bne.n	8001516 <XMC_USIC_Enable+0x66>
 8001522:	e017      	b.n	8001554 <XMC_USIC_Enable+0xa4>
#endif 
  }
#endif  
#if defined(USIC2)  
  else if (usic == USIC2)
 8001524:	687b      	ldr	r3, [r7, #4]
 8001526:	4a10      	ldr	r2, [pc, #64]	; (8001568 <XMC_USIC_Enable+0xb8>)
 8001528:	4293      	cmp	r3, r2
 800152a:	d113      	bne.n	8001554 <XMC_USIC_Enable+0xa4>
  {
#if defined(CLOCK_GATING_SUPPORTED) 
    XMC_SCU_CLOCK_UngatePeripheralClock(XMC_SCU_PERIPHERAL_CLOCK_USIC2);
 800152c:	480f      	ldr	r0, [pc, #60]	; (800156c <XMC_USIC_Enable+0xbc>)
 800152e:	f7ff fa83 	bl	8000a38 <XMC_SCU_CLOCK_UngatePeripheralClock>
    while (XMC_SCU_CLOCK_IsPeripheralClockGated(XMC_SCU_PERIPHERAL_CLOCK_USIC2));
 8001532:	bf00      	nop
 8001534:	480d      	ldr	r0, [pc, #52]	; (800156c <XMC_USIC_Enable+0xbc>)
 8001536:	f7ff fa9b 	bl	8000a70 <XMC_SCU_CLOCK_IsPeripheralClockGated>
 800153a:	4603      	mov	r3, r0
 800153c:	2b00      	cmp	r3, #0
 800153e:	d1f9      	bne.n	8001534 <XMC_USIC_Enable+0x84>
#endif
#if defined(PERIPHERAL_RESET_SUPPORTED)
    XMC_SCU_RESET_DeassertPeripheralReset(XMC_SCU_PERIPHERAL_RESET_USIC2);
 8001540:	480a      	ldr	r0, [pc, #40]	; (800156c <XMC_USIC_Enable+0xbc>)
 8001542:	f7ff f905 	bl	8000750 <XMC_SCU_RESET_DeassertPeripheralReset>
    while (XMC_SCU_RESET_IsPeripheralResetAsserted(XMC_SCU_PERIPHERAL_RESET_USIC2));
 8001546:	bf00      	nop
 8001548:	4808      	ldr	r0, [pc, #32]	; (800156c <XMC_USIC_Enable+0xbc>)
 800154a:	f7ff f91d 	bl	8000788 <XMC_SCU_RESET_IsPeripheralResetAsserted>
 800154e:	4603      	mov	r3, r0
 8001550:	2b00      	cmp	r3, #0
 8001552:	d1f9      	bne.n	8001548 <XMC_USIC_Enable+0x98>
#endif  
  else
  {
    XMC_ASSERT("USIC module not available", 0/*Always*/);
  }
}
 8001554:	3708      	adds	r7, #8
 8001556:	46bd      	mov	sp, r7
 8001558:	bd80      	pop	{r7, pc}
 800155a:	bf00      	nop
 800155c:	40030008 	.word	0x40030008
 8001560:	48020008 	.word	0x48020008
 8001564:	10000080 	.word	0x10000080
 8001568:	48024008 	.word	0x48024008
 800156c:	10000100 	.word	0x10000100

08001570 <_sbrk>:

// defined in linker script
extern caddr_t Heap_Bank1_Start;
extern caddr_t Heap_Bank1_End;
caddr_t _sbrk(int nbytes)
{
 8001570:	b580      	push	{r7, lr}
 8001572:	b084      	sub	sp, #16
 8001574:	af00      	add	r7, sp, #0
 8001576:	6078      	str	r0, [r7, #4]
  static caddr_t heap_ptr = NULL;
  caddr_t base;

  if (heap_ptr == NULL) {
 8001578:	4b14      	ldr	r3, [pc, #80]	; (80015cc <_sbrk+0x5c>)
 800157a:	681b      	ldr	r3, [r3, #0]
 800157c:	2b00      	cmp	r3, #0
 800157e:	d102      	bne.n	8001586 <_sbrk+0x16>
    heap_ptr = (caddr_t)&Heap_Bank1_Start;
 8001580:	4b12      	ldr	r3, [pc, #72]	; (80015cc <_sbrk+0x5c>)
 8001582:	4a13      	ldr	r2, [pc, #76]	; (80015d0 <_sbrk+0x60>)
 8001584:	601a      	str	r2, [r3, #0]
  }

  base = heap_ptr;
 8001586:	4b11      	ldr	r3, [pc, #68]	; (80015cc <_sbrk+0x5c>)
 8001588:	681b      	ldr	r3, [r3, #0]
 800158a:	60fb      	str	r3, [r7, #12]

  /* heap word alignment */
  nbytes = (nbytes + 3) & ~0x3U;
 800158c:	687b      	ldr	r3, [r7, #4]
 800158e:	3303      	adds	r3, #3
 8001590:	f023 0303 	bic.w	r3, r3, #3
 8001594:	607b      	str	r3, [r7, #4]
  if ((caddr_t)&Heap_Bank1_End > (heap_ptr + nbytes))
 8001596:	4b0d      	ldr	r3, [pc, #52]	; (80015cc <_sbrk+0x5c>)
 8001598:	681a      	ldr	r2, [r3, #0]
 800159a:	687b      	ldr	r3, [r7, #4]
 800159c:	4413      	add	r3, r2
 800159e:	4a0d      	ldr	r2, [pc, #52]	; (80015d4 <_sbrk+0x64>)
 80015a0:	4293      	cmp	r3, r2
 80015a2:	d207      	bcs.n	80015b4 <_sbrk+0x44>
  {
    heap_ptr += nbytes;
 80015a4:	4b09      	ldr	r3, [pc, #36]	; (80015cc <_sbrk+0x5c>)
 80015a6:	681a      	ldr	r2, [r3, #0]
 80015a8:	687b      	ldr	r3, [r7, #4]
 80015aa:	4413      	add	r3, r2
 80015ac:	4a07      	ldr	r2, [pc, #28]	; (80015cc <_sbrk+0x5c>)
 80015ae:	6013      	str	r3, [r2, #0]
    return (base);
 80015b0:	68fb      	ldr	r3, [r7, #12]
 80015b2:	e006      	b.n	80015c2 <_sbrk+0x52>
  }
  else
  {
    /* Heap overflow */
    errno = ENOMEM;
 80015b4:	f004 f838 	bl	8005628 <__errno>
 80015b8:	4602      	mov	r2, r0
 80015ba:	230c      	movs	r3, #12
 80015bc:	6013      	str	r3, [r2, #0]
    return ((caddr_t)-1);
 80015be:	f04f 33ff 	mov.w	r3, #4294967295
  }
}
 80015c2:	4618      	mov	r0, r3
 80015c4:	3710      	adds	r7, #16
 80015c6:	46bd      	mov	sp, r7
 80015c8:	bd80      	pop	{r7, pc}
 80015ca:	bf00      	nop
 80015cc:	1ffe88b8 	.word	0x1ffe88b8
 80015d0:	20000000 	.word	0x20000000
 80015d4:	2003ffc0 	.word	0x2003ffc0

080015d8 <_init>:

/* Init */
void _init(void)
{}
 80015d8:	b480      	push	{r7}
 80015da:	af00      	add	r7, sp, #0
 80015dc:	46bd      	mov	sp, r7
 80015de:	f85d 7b04 	ldr.w	r7, [sp], #4
 80015e2:	4770      	bx	lr

080015e4 <XMC_USIC_CH_WriteToTBUFTCI>:
 * XMC_USIC_CH_WriteToTBUF() \n\n\n
 */
__STATIC_INLINE void XMC_USIC_CH_WriteToTBUFTCI(XMC_USIC_CH_t *const channel,
                                             const uint16_t data,
                                             const uint32_t transmit_control_information)
{
 80015e4:	b480      	push	{r7}
 80015e6:	b085      	sub	sp, #20
 80015e8:	af00      	add	r7, sp, #0
 80015ea:	60f8      	str	r0, [r7, #12]
 80015ec:	460b      	mov	r3, r1
 80015ee:	607a      	str	r2, [r7, #4]
 80015f0:	817b      	strh	r3, [r7, #10]
  channel->TBUF[transmit_control_information] = data;
 80015f2:	8979      	ldrh	r1, [r7, #10]
 80015f4:	68fb      	ldr	r3, [r7, #12]
 80015f6:	687a      	ldr	r2, [r7, #4]
 80015f8:	3220      	adds	r2, #32
 80015fa:	f843 1022 	str.w	r1, [r3, r2, lsl #2]
}
 80015fe:	3714      	adds	r7, #20
 8001600:	46bd      	mov	sp, r7
 8001602:	f85d 7b04 	ldr.w	r7, [sp], #4
 8001606:	4770      	bx	lr

08001608 <XMC_USIC_CH_EnableEvent>:
 *
 * \par<b>Related APIs:</b><BR>
 * XMC_USIC_CH_DisableEvent(), XMC_USIC_CH_SetInterruptNodePointer() \n\n\n
 */
__STATIC_INLINE void XMC_USIC_CH_EnableEvent(XMC_USIC_CH_t *const channel, const uint32_t event)
{
 8001608:	b480      	push	{r7}
 800160a:	b083      	sub	sp, #12
 800160c:	af00      	add	r7, sp, #0
 800160e:	6078      	str	r0, [r7, #4]
 8001610:	6039      	str	r1, [r7, #0]
  channel->CCR |= event;
 8001612:	687b      	ldr	r3, [r7, #4]
 8001614:	6c1a      	ldr	r2, [r3, #64]	; 0x40
 8001616:	683b      	ldr	r3, [r7, #0]
 8001618:	431a      	orrs	r2, r3
 800161a:	687b      	ldr	r3, [r7, #4]
 800161c:	641a      	str	r2, [r3, #64]	; 0x40
}
 800161e:	370c      	adds	r7, #12
 8001620:	46bd      	mov	sp, r7
 8001622:	f85d 7b04 	ldr.w	r7, [sp], #4
 8001626:	4770      	bx	lr

08001628 <XMC_USIC_CH_DisableEvent>:
 *
 * \par<b>Related APIs:</b><BR>
 * XMC_USIC_CH_EnableEvent(), XMC_USIC_CH_SetInterruptNodePointer() \n\n\n
*/
__STATIC_INLINE void XMC_USIC_CH_DisableEvent(XMC_USIC_CH_t *const channel, const uint32_t event)
{
 8001628:	b480      	push	{r7}
 800162a:	b083      	sub	sp, #12
 800162c:	af00      	add	r7, sp, #0
 800162e:	6078      	str	r0, [r7, #4]
 8001630:	6039      	str	r1, [r7, #0]
  channel->CCR &= (uint32_t)~event;
 8001632:	687b      	ldr	r3, [r7, #4]
 8001634:	6c1a      	ldr	r2, [r3, #64]	; 0x40
 8001636:	683b      	ldr	r3, [r7, #0]
 8001638:	43db      	mvns	r3, r3
 800163a:	401a      	ands	r2, r3
 800163c:	687b      	ldr	r3, [r7, #4]
 800163e:	641a      	str	r2, [r3, #64]	; 0x40
}
 8001640:	370c      	adds	r7, #12
 8001642:	46bd      	mov	sp, r7
 8001644:	f85d 7b04 	ldr.w	r7, [sp], #4
 8001648:	4770      	bx	lr
 800164a:	bf00      	nop

0800164c <XMC_USIC_CH_GetTransmitBufferStatus>:
 *
 * \par<b>Related APIs:</b><BR>
 * XMC_USIC_CH_SetDataOutputMode() \n\n\n
 */
__STATIC_INLINE XMC_USIC_CH_TBUF_STATUS_t XMC_USIC_CH_GetTransmitBufferStatus(XMC_USIC_CH_t *const channel)
{
 800164c:	b480      	push	{r7}
 800164e:	b083      	sub	sp, #12
 8001650:	af00      	add	r7, sp, #0
 8001652:	6078      	str	r0, [r7, #4]
  return (XMC_USIC_CH_TBUF_STATUS_t)(channel->TCSR & USIC_CH_TCSR_TDV_Msk);
 8001654:	687b      	ldr	r3, [r7, #4]
 8001656:	6b9b      	ldr	r3, [r3, #56]	; 0x38
 8001658:	b2db      	uxtb	r3, r3
 800165a:	f023 037f 	bic.w	r3, r3, #127	; 0x7f
 800165e:	b2db      	uxtb	r3, r3
}
 8001660:	4618      	mov	r0, r3
 8001662:	370c      	adds	r7, #12
 8001664:	46bd      	mov	sp, r7
 8001666:	f85d 7b04 	ldr.w	r7, [sp], #4
 800166a:	4770      	bx	lr

0800166c <XMC_USIC_CH_GetReceiveBufferStatus>:
 * can be read from RBUF.
 * \par<b>Related APIs:</b><BR>
 * XMC_USIC_CH_GetTransmitBufferStatus() \n\n\n
 */
__STATIC_INLINE uint32_t XMC_USIC_CH_GetReceiveBufferStatus(XMC_USIC_CH_t *const channel)
{
 800166c:	b480      	push	{r7}
 800166e:	b083      	sub	sp, #12
 8001670:	af00      	add	r7, sp, #0
 8001672:	6078      	str	r0, [r7, #4]
  return ((uint32_t) (channel->RBUFSR & (USIC_CH_RBUFSR_RDV0_Msk | USIC_CH_RBUFSR_RDV1_Msk)));
 8001674:	687b      	ldr	r3, [r7, #4]
 8001676:	6d1b      	ldr	r3, [r3, #80]	; 0x50
 8001678:	f403 43c0 	and.w	r3, r3, #24576	; 0x6000
}
 800167c:	4618      	mov	r0, r3
 800167e:	370c      	adds	r7, #12
 8001680:	46bd      	mov	sp, r7
 8001682:	f85d 7b04 	ldr.w	r7, [sp], #4
 8001686:	4770      	bx	lr

08001688 <XMC_USIC_CH_TriggerServiceRequest>:
 *
 * \par<b>Related APIs:</b><BR>
 * XMC_USIC_CH_SetInterruptNodePointer() \n\n\n
 */
__STATIC_INLINE void XMC_USIC_CH_TriggerServiceRequest(XMC_USIC_CH_t *const channel, const uint32_t service_request_line)
{
 8001688:	b480      	push	{r7}
 800168a:	b083      	sub	sp, #12
 800168c:	af00      	add	r7, sp, #0
 800168e:	6078      	str	r0, [r7, #4]
 8001690:	6039      	str	r1, [r7, #0]
  channel->FMR = (uint32_t)(USIC_CH_FMR_SIO0_Msk << service_request_line);
 8001692:	683b      	ldr	r3, [r7, #0]
 8001694:	f44f 3280 	mov.w	r2, #65536	; 0x10000
 8001698:	409a      	lsls	r2, r3
 800169a:	687b      	ldr	r3, [r7, #4]
 800169c:	669a      	str	r2, [r3, #104]	; 0x68
}
 800169e:	370c      	adds	r7, #12
 80016a0:	46bd      	mov	sp, r7
 80016a2:	f85d 7b04 	ldr.w	r7, [sp], #4
 80016a6:	4770      	bx	lr

080016a8 <XMC_USIC_CH_TXFIFO_EnableEvent>:
 *
 * \par<b>Related APIs:</b><BR>
 * XMC_USIC_CH_TXFIFO_SetInterruptNodePointer() \n\n\n
 */
__STATIC_INLINE void XMC_USIC_CH_TXFIFO_EnableEvent(XMC_USIC_CH_t *const channel, const uint32_t event)
{
 80016a8:	b480      	push	{r7}
 80016aa:	b083      	sub	sp, #12
 80016ac:	af00      	add	r7, sp, #0
 80016ae:	6078      	str	r0, [r7, #4]
 80016b0:	6039      	str	r1, [r7, #0]
  channel->TBCTR |= event;
 80016b2:	687b      	ldr	r3, [r7, #4]
 80016b4:	f8d3 2108 	ldr.w	r2, [r3, #264]	; 0x108
 80016b8:	683b      	ldr	r3, [r7, #0]
 80016ba:	431a      	orrs	r2, r3
 80016bc:	687b      	ldr	r3, [r7, #4]
 80016be:	f8c3 2108 	str.w	r2, [r3, #264]	; 0x108
}
 80016c2:	370c      	adds	r7, #12
 80016c4:	46bd      	mov	sp, r7
 80016c6:	f85d 7b04 	ldr.w	r7, [sp], #4
 80016ca:	4770      	bx	lr

080016cc <XMC_USIC_CH_TXFIFO_DisableEvent>:
 *
 * \par<b>Related APIs:</b><BR>
 * XMC_USIC_CH_TXFIFO_GetEvent(), XMC_USIC_CH_TXFIFO_EnableEvent() \n\n\n
 */
__STATIC_INLINE void XMC_USIC_CH_TXFIFO_DisableEvent(XMC_USIC_CH_t *const channel, const uint32_t event)
{
 80016cc:	b480      	push	{r7}
 80016ce:	b083      	sub	sp, #12
 80016d0:	af00      	add	r7, sp, #0
 80016d2:	6078      	str	r0, [r7, #4]
 80016d4:	6039      	str	r1, [r7, #0]
  channel->TBCTR &= (uint32_t)~event;
 80016d6:	687b      	ldr	r3, [r7, #4]
 80016d8:	f8d3 2108 	ldr.w	r2, [r3, #264]	; 0x108
 80016dc:	683b      	ldr	r3, [r7, #0]
 80016de:	43db      	mvns	r3, r3
 80016e0:	401a      	ands	r2, r3
 80016e2:	687b      	ldr	r3, [r7, #4]
 80016e4:	f8c3 2108 	str.w	r2, [r3, #264]	; 0x108
}
 80016e8:	370c      	adds	r7, #12
 80016ea:	46bd      	mov	sp, r7
 80016ec:	f85d 7b04 	ldr.w	r7, [sp], #4
 80016f0:	4770      	bx	lr
 80016f2:	bf00      	nop

080016f4 <XMC_USIC_CH_TXFIFO_PutDataHPCMode>:
 * XMC_USIC_CH_EnableFrameLengthControl() \n\n\n
 */
__STATIC_INLINE void XMC_USIC_CH_TXFIFO_PutDataHPCMode(XMC_USIC_CH_t *const channel,
                                                       const uint16_t data,
                                                       const uint32_t frame_length)
{
 80016f4:	b480      	push	{r7}
 80016f6:	b085      	sub	sp, #20
 80016f8:	af00      	add	r7, sp, #0
 80016fa:	60f8      	str	r0, [r7, #12]
 80016fc:	460b      	mov	r3, r1
 80016fe:	607a      	str	r2, [r7, #4]
 8001700:	817b      	strh	r3, [r7, #10]
  channel->IN[frame_length] = data;
 8001702:	8979      	ldrh	r1, [r7, #10]
 8001704:	68fb      	ldr	r3, [r7, #12]
 8001706:	687a      	ldr	r2, [r7, #4]
 8001708:	3260      	adds	r2, #96	; 0x60
 800170a:	f843 1022 	str.w	r1, [r3, r2, lsl #2]
}
 800170e:	3714      	adds	r7, #20
 8001710:	46bd      	mov	sp, r7
 8001712:	f85d 7b04 	ldr.w	r7, [sp], #4
 8001716:	4770      	bx	lr

08001718 <XMC_USIC_CH_TXFIFO_Flush>:
 * 
 * \par<b>Related APIs:</b><BR>
 * XMC_USIC_CH_TXFIFO_GetLevel() \n\n\n
 */
__STATIC_INLINE void XMC_USIC_CH_TXFIFO_Flush(XMC_USIC_CH_t *const channel)
{
 8001718:	b480      	push	{r7}
 800171a:	b083      	sub	sp, #12
 800171c:	af00      	add	r7, sp, #0
 800171e:	6078      	str	r0, [r7, #4]
  channel->TRBSCR = (uint32_t)USIC_CH_TRBSCR_FLUSHTB_Msk;
 8001720:	687b      	ldr	r3, [r7, #4]
 8001722:	f44f 4200 	mov.w	r2, #32768	; 0x8000
 8001726:	f8c3 2118 	str.w	r2, [r3, #280]	; 0x118
}
 800172a:	370c      	adds	r7, #12
 800172c:	46bd      	mov	sp, r7
 800172e:	f85d 7b04 	ldr.w	r7, [sp], #4
 8001732:	4770      	bx	lr

08001734 <XMC_USIC_CH_TXFIFO_IsFull>:
 * 
 * \par<b>Related APIs:</b><BR>
 * XMC_USIC_CH_TXFIFO_IsEmpty(), XMC_USIC_CH_TXFIFO_Flush() \n\n\n
 */
__STATIC_INLINE bool XMC_USIC_CH_TXFIFO_IsFull(XMC_USIC_CH_t *const channel)
{
 8001734:	b480      	push	{r7}
 8001736:	b083      	sub	sp, #12
 8001738:	af00      	add	r7, sp, #0
 800173a:	6078      	str	r0, [r7, #4]
  return (bool)(channel->TRBSR & USIC_CH_TRBSR_TFULL_Msk);
 800173c:	687b      	ldr	r3, [r7, #4]
 800173e:	f8d3 3114 	ldr.w	r3, [r3, #276]	; 0x114
 8001742:	f403 5380 	and.w	r3, r3, #4096	; 0x1000
 8001746:	2b00      	cmp	r3, #0
 8001748:	bf14      	ite	ne
 800174a:	2301      	movne	r3, #1
 800174c:	2300      	moveq	r3, #0
 800174e:	b2db      	uxtb	r3, r3
}
 8001750:	4618      	mov	r0, r3
 8001752:	370c      	adds	r7, #12
 8001754:	46bd      	mov	sp, r7
 8001756:	f85d 7b04 	ldr.w	r7, [sp], #4
 800175a:	4770      	bx	lr

0800175c <XMC_USIC_CH_TXFIFO_IsEmpty>:
 * 
 * \par<b>Related APIs:</b><BR>
 * XMC_USIC_CH_TXFIFO_Flush(), XMC_USIC_CH_TXFIFO_PutData() \n\n\n
 */
__STATIC_INLINE bool XMC_USIC_CH_TXFIFO_IsEmpty(XMC_USIC_CH_t *const channel)
{
 800175c:	b480      	push	{r7}
 800175e:	b083      	sub	sp, #12
 8001760:	af00      	add	r7, sp, #0
 8001762:	6078      	str	r0, [r7, #4]
  return (bool)(channel->TRBSR & USIC_CH_TRBSR_TEMPTY_Msk);
 8001764:	687b      	ldr	r3, [r7, #4]
 8001766:	f8d3 3114 	ldr.w	r3, [r3, #276]	; 0x114
 800176a:	f403 6300 	and.w	r3, r3, #2048	; 0x800
 800176e:	2b00      	cmp	r3, #0
 8001770:	bf14      	ite	ne
 8001772:	2301      	movne	r3, #1
 8001774:	2300      	moveq	r3, #0
 8001776:	b2db      	uxtb	r3, r3
}
 8001778:	4618      	mov	r0, r3
 800177a:	370c      	adds	r7, #12
 800177c:	46bd      	mov	sp, r7
 800177e:	f85d 7b04 	ldr.w	r7, [sp], #4
 8001782:	4770      	bx	lr

08001784 <XMC_USIC_CH_RXFIFO_EnableEvent>:
 *
 * \par<b>Related APIs:</b><BR>
 * XMC_USIC_CH_RXFIFO_SetInterruptNodePointer() \n\n\n
 */
__STATIC_INLINE void XMC_USIC_CH_RXFIFO_EnableEvent(XMC_USIC_CH_t *const channel, const uint32_t event)
{
 8001784:	b480      	push	{r7}
 8001786:	b083      	sub	sp, #12
 8001788:	af00      	add	r7, sp, #0
 800178a:	6078      	str	r0, [r7, #4]
 800178c:	6039      	str	r1, [r7, #0]
  channel->RBCTR |= event;
 800178e:	687b      	ldr	r3, [r7, #4]
 8001790:	f8d3 210c 	ldr.w	r2, [r3, #268]	; 0x10c
 8001794:	683b      	ldr	r3, [r7, #0]
 8001796:	431a      	orrs	r2, r3
 8001798:	687b      	ldr	r3, [r7, #4]
 800179a:	f8c3 210c 	str.w	r2, [r3, #268]	; 0x10c
}
 800179e:	370c      	adds	r7, #12
 80017a0:	46bd      	mov	sp, r7
 80017a2:	f85d 7b04 	ldr.w	r7, [sp], #4
 80017a6:	4770      	bx	lr

080017a8 <XMC_USIC_CH_RXFIFO_DisableEvent>:
 *
 * \par<b>Related APIs:</b><BR>
 * XMC_USIC_CH_RXFIFO_GetEvent(), XMC_USIC_CH_RXFIFO_EnableEvent() \n\n\n
 */
__STATIC_INLINE void XMC_USIC_CH_RXFIFO_DisableEvent(XMC_USIC_CH_t *const channel, const uint32_t event)
{
 80017a8:	b480      	push	{r7}
 80017aa:	b083      	sub	sp, #12
 80017ac:	af00      	add	r7, sp, #0
 80017ae:	6078      	str	r0, [r7, #4]
 80017b0:	6039      	str	r1, [r7, #0]
  channel->RBCTR &= (uint32_t)~event;
 80017b2:	687b      	ldr	r3, [r7, #4]
 80017b4:	f8d3 210c 	ldr.w	r2, [r3, #268]	; 0x10c
 80017b8:	683b      	ldr	r3, [r7, #0]
 80017ba:	43db      	mvns	r3, r3
 80017bc:	401a      	ands	r2, r3
 80017be:	687b      	ldr	r3, [r7, #4]
 80017c0:	f8c3 210c 	str.w	r2, [r3, #268]	; 0x10c
}
 80017c4:	370c      	adds	r7, #12
 80017c6:	46bd      	mov	sp, r7
 80017c8:	f85d 7b04 	ldr.w	r7, [sp], #4
 80017cc:	4770      	bx	lr
 80017ce:	bf00      	nop

080017d0 <XMC_USIC_CH_RXFIFO_Flush>:
 * 
 * \par<b>Related APIs:</b><BR>
 * XMC_USIC_CH_RXFIFO_GetLevel() \n\n\n
 */
__STATIC_INLINE void XMC_USIC_CH_RXFIFO_Flush(XMC_USIC_CH_t *const channel)
{
 80017d0:	b480      	push	{r7}
 80017d2:	b083      	sub	sp, #12
 80017d4:	af00      	add	r7, sp, #0
 80017d6:	6078      	str	r0, [r7, #4]
  channel->TRBSCR = (uint32_t)USIC_CH_TRBSCR_FLUSHRB_Msk;
 80017d8:	687b      	ldr	r3, [r7, #4]
 80017da:	f44f 4280 	mov.w	r2, #16384	; 0x4000
 80017de:	f8c3 2118 	str.w	r2, [r3, #280]	; 0x118
}
 80017e2:	370c      	adds	r7, #12
 80017e4:	46bd      	mov	sp, r7
 80017e6:	f85d 7b04 	ldr.w	r7, [sp], #4
 80017ea:	4770      	bx	lr

080017ec <XMC_USIC_CH_RXFIFO_IsEmpty>:
 * 
 * \par<b>Related APIs:</b><BR>
 * XMC_USIC_CH_RXFIFO_Flush(), XMC_USIC_CH_RXFIFO_PutData() \n\n\n
 */
__STATIC_INLINE bool XMC_USIC_CH_RXFIFO_IsEmpty(XMC_USIC_CH_t *const channel)
{
 80017ec:	b480      	push	{r7}
 80017ee:	b083      	sub	sp, #12
 80017f0:	af00      	add	r7, sp, #0
 80017f2:	6078      	str	r0, [r7, #4]
  return (bool)(channel->TRBSR & USIC_CH_TRBSR_REMPTY_Msk);
 80017f4:	687b      	ldr	r3, [r7, #4]
 80017f6:	f8d3 3114 	ldr.w	r3, [r3, #276]	; 0x114
 80017fa:	f003 0308 	and.w	r3, r3, #8
 80017fe:	2b00      	cmp	r3, #0
 8001800:	bf14      	ite	ne
 8001802:	2301      	movne	r3, #1
 8001804:	2300      	moveq	r3, #0
 8001806:	b2db      	uxtb	r3, r3
}
 8001808:	4618      	mov	r0, r3
 800180a:	370c      	adds	r7, #12
 800180c:	46bd      	mov	sp, r7
 800180e:	f85d 7b04 	ldr.w	r7, [sp], #4
 8001812:	4770      	bx	lr

08001814 <XMC_SPI_CH_SetTransmitMode>:
 * 
 * \par<b>Related APIs:</b><BR>
 * XMC_SPI_CH_Transmit()
 */
__STATIC_INLINE void XMC_SPI_CH_SetTransmitMode(XMC_USIC_CH_t *const channel, const XMC_SPI_CH_MODE_t mode)
{
 8001814:	b480      	push	{r7}
 8001816:	b083      	sub	sp, #12
 8001818:	af00      	add	r7, sp, #0
 800181a:	6078      	str	r0, [r7, #4]
 800181c:	460b      	mov	r3, r1
 800181e:	70fb      	strb	r3, [r7, #3]
  channel->CCR = (channel->CCR & (uint32_t)(~USIC_CH_CCR_HPCEN_Msk)) |
 8001820:	687b      	ldr	r3, [r7, #4]
 8001822:	6c1b      	ldr	r3, [r3, #64]	; 0x40
 8001824:	f023 02c0 	bic.w	r2, r3, #192	; 0xc0
                  (((uint32_t) mode << USIC_CH_CCR_HPCEN_Pos) & (uint32_t)USIC_CH_CCR_HPCEN_Msk);
 8001828:	78fb      	ldrb	r3, [r7, #3]
 800182a:	019b      	lsls	r3, r3, #6
 800182c:	b2db      	uxtb	r3, r3
 * \par<b>Related APIs:</b><BR>
 * XMC_SPI_CH_Transmit()
 */
__STATIC_INLINE void XMC_SPI_CH_SetTransmitMode(XMC_USIC_CH_t *const channel, const XMC_SPI_CH_MODE_t mode)
{
  channel->CCR = (channel->CCR & (uint32_t)(~USIC_CH_CCR_HPCEN_Msk)) |
 800182e:	431a      	orrs	r2, r3
 8001830:	687b      	ldr	r3, [r7, #4]
 8001832:	641a      	str	r2, [r3, #64]	; 0x40
                  (((uint32_t) mode << USIC_CH_CCR_HPCEN_Pos) & (uint32_t)USIC_CH_CCR_HPCEN_Msk);
}
 8001834:	370c      	adds	r7, #12
 8001836:	46bd      	mov	sp, r7
 8001838:	f85d 7b04 	ldr.w	r7, [sp], #4
 800183c:	4770      	bx	lr
 800183e:	bf00      	nop

08001840 <SPI_MASTER_Init>:

/*
 * This function initializes the SPI channel, based on UI configuration.
 */
SPI_MASTER_STATUS_t SPI_MASTER_Init(SPI_MASTER_t* const handle)
{
 8001840:	b580      	push	{r7, lr}
 8001842:	b084      	sub	sp, #16
 8001844:	af00      	add	r7, sp, #0
 8001846:	6078      	str	r0, [r7, #4]
  SPI_MASTER_STATUS_t status;

  XMC_ASSERT("SPI_MASTER_Init:handle NULL" , (handle != NULL));

  /* Configure the port registers and data input registers of SPI channel */
  status = handle->config->fptr_spi_master_config();
 8001848:	687b      	ldr	r3, [r7, #4]
 800184a:	685b      	ldr	r3, [r3, #4]
 800184c:	685b      	ldr	r3, [r3, #4]
 800184e:	4798      	blx	r3
 8001850:	4603      	mov	r3, r0
 8001852:	73fb      	strb	r3, [r7, #15]

  return status;
 8001854:	7bfb      	ldrb	r3, [r7, #15]
}
 8001856:	4618      	mov	r0, r3
 8001858:	3710      	adds	r7, #16
 800185a:	46bd      	mov	sp, r7
 800185c:	bd80      	pop	{r7, pc}
 800185e:	bf00      	nop

08001860 <SPI_MASTER_Transmit>:

  return status;
}

SPI_MASTER_STATUS_t SPI_MASTER_Transmit(const SPI_MASTER_t *const handle, uint8_t* dataptr, uint32_t count)
{
 8001860:	b580      	push	{r7, lr}
 8001862:	b086      	sub	sp, #24
 8001864:	af00      	add	r7, sp, #0
 8001866:	60f8      	str	r0, [r7, #12]
 8001868:	60b9      	str	r1, [r7, #8]
 800186a:	607a      	str	r2, [r7, #4]
  SPI_MASTER_STATUS_t status;
  
   status = SPI_MASTER_STATUS_FAILURE;
 800186c:	2301      	movs	r3, #1
 800186e:	75fb      	strb	r3, [r7, #23]

#if (SPI_MASTER_INTERRUPT_TRANSMIT_MODE == 1U)
  if (handle->config->transmit_mode == SPI_MASTER_TRANSFER_MODE_INTERRUPT)
 8001870:	68fb      	ldr	r3, [r7, #12]
 8001872:	685b      	ldr	r3, [r3, #4]
 8001874:	f893 3084 	ldrb.w	r3, [r3, #132]	; 0x84
 8001878:	2b00      	cmp	r3, #0
 800187a:	d106      	bne.n	800188a <SPI_MASTER_Transmit+0x2a>
  {
    status = SPI_MASTER_StartTransmitIRQ(handle, dataptr, count);
 800187c:	68f8      	ldr	r0, [r7, #12]
 800187e:	68b9      	ldr	r1, [r7, #8]
 8001880:	687a      	ldr	r2, [r7, #4]
 8001882:	f000 f807 	bl	8001894 <SPI_MASTER_StartTransmitIRQ>
 8001886:	4603      	mov	r3, r0
 8001888:	75fb      	strb	r3, [r7, #23]
  {
    status = SPI_MASTER_lStartTransmitPolling(handle, dataptr, count);
  }
#endif

  return status;
 800188a:	7dfb      	ldrb	r3, [r7, #23]
}
 800188c:	4618      	mov	r0, r3
 800188e:	3718      	adds	r7, #24
 8001890:	46bd      	mov	sp, r7
 8001892:	bd80      	pop	{r7, pc}

08001894 <SPI_MASTER_StartTransmitIRQ>:
#if (SPI_MASTER_INTERRUPT_TRANSMIT_MODE == 1U)
/*
 * Transmit the number of data words specified.
 */
SPI_MASTER_STATUS_t SPI_MASTER_StartTransmitIRQ(const SPI_MASTER_t *const handle, uint8_t* dataptr, uint32_t count)
{
 8001894:	b580      	push	{r7, lr}
 8001896:	b088      	sub	sp, #32
 8001898:	af00      	add	r7, sp, #0
 800189a:	60f8      	str	r0, [r7, #12]
 800189c:	60b9      	str	r1, [r7, #8]
 800189e:	607a      	str	r2, [r7, #4]
  SPI_MASTER_STATUS_t status;
  uint32_t bytes_per_word = SPI_MASTER_1_BYTE_PER_WORD; /* This is to support the word length 8 and 16.
 80018a0:	2301      	movs	r3, #1
 80018a2:	61bb      	str	r3, [r7, #24]
                                                           Specify the number of bytes for the configured word length */
  SPI_MASTER_RUNTIME_t * runtime_handle;

  XMC_ASSERT("SPI_MASTER_StartTransmitIRQ:handle NULL" , (handle != NULL));

  status = SPI_MASTER_STATUS_MODE_MISMATCH;
 80018a4:	2304      	movs	r3, #4
 80018a6:	77fb      	strb	r3, [r7, #31]
  runtime_handle = handle->runtime;
 80018a8:	68fb      	ldr	r3, [r7, #12]
 80018aa:	689b      	ldr	r3, [r3, #8]
 80018ac:	617b      	str	r3, [r7, #20]

  if (handle->config->transmit_mode == SPI_MASTER_TRANSFER_MODE_INTERRUPT)
 80018ae:	68fb      	ldr	r3, [r7, #12]
 80018b0:	685b      	ldr	r3, [r3, #4]
 80018b2:	f893 3084 	ldrb.w	r3, [r3, #132]	; 0x84
 80018b6:	2b00      	cmp	r3, #0
 80018b8:	d15c      	bne.n	8001974 <SPI_MASTER_StartTransmitIRQ+0xe0>
  {
    /* Check whether SPI channel is free or not */
    if ((dataptr != NULL) && (count > 0U))
 80018ba:	68bb      	ldr	r3, [r7, #8]
 80018bc:	2b00      	cmp	r3, #0
 80018be:	d057      	beq.n	8001970 <SPI_MASTER_StartTransmitIRQ+0xdc>
 80018c0:	687b      	ldr	r3, [r7, #4]
 80018c2:	2b00      	cmp	r3, #0
 80018c4:	d054      	beq.n	8001970 <SPI_MASTER_StartTransmitIRQ+0xdc>
    {
      status = SPI_MASTER_STATUS_BUSY;
 80018c6:	2302      	movs	r3, #2
 80018c8:	77fb      	strb	r3, [r7, #31]
      /*Check data pointer is valid or not*/
      if (false == runtime_handle->tx_busy)
 80018ca:	697b      	ldr	r3, [r7, #20]
 80018cc:	f893 3020 	ldrb.w	r3, [r3, #32]
 80018d0:	b2db      	uxtb	r3, r3
 80018d2:	f083 0301 	eor.w	r3, r3, #1
 80018d6:	b2db      	uxtb	r3, r3
 80018d8:	2b00      	cmp	r3, #0
 80018da:	d048      	beq.n	800196e <SPI_MASTER_StartTransmitIRQ+0xda>
      {
        if (handle->runtime->word_length > SPI_MASTER_WORD_LENGTH_8_BIT)
 80018dc:	68fb      	ldr	r3, [r7, #12]
 80018de:	689b      	ldr	r3, [r3, #8]
 80018e0:	681b      	ldr	r3, [r3, #0]
 80018e2:	2b08      	cmp	r3, #8
 80018e4:	d901      	bls.n	80018ea <SPI_MASTER_StartTransmitIRQ+0x56>
        {
          bytes_per_word = SPI_MASTER_2_BYTES_PER_WORD; /* Word length is 16-bits */
 80018e6:	2302      	movs	r3, #2
 80018e8:	61bb      	str	r3, [r7, #24]
        }

        /* Obtain the address of data, size of data */
        runtime_handle->tx_data = dataptr;
 80018ea:	697b      	ldr	r3, [r7, #20]
 80018ec:	68ba      	ldr	r2, [r7, #8]
 80018ee:	619a      	str	r2, [r3, #24]
        runtime_handle->tx_data_count = (uint32_t)count << (bytes_per_word - 1U);
 80018f0:	69bb      	ldr	r3, [r7, #24]
 80018f2:	3b01      	subs	r3, #1
 80018f4:	461a      	mov	r2, r3
 80018f6:	687b      	ldr	r3, [r7, #4]
 80018f8:	fa03 f202 	lsl.w	r2, r3, r2
 80018fc:	697b      	ldr	r3, [r7, #20]
 80018fe:	605a      	str	r2, [r3, #4]
        /* Initialize to first index and set the busy flag */
        runtime_handle->tx_data_index = 0U;
 8001900:	697b      	ldr	r3, [r7, #20]
 8001902:	2200      	movs	r2, #0
 8001904:	609a      	str	r2, [r3, #8]
        runtime_handle->tx_busy = true;
 8001906:	697b      	ldr	r3, [r7, #20]
 8001908:	2201      	movs	r2, #1
 800190a:	f883 2020 	strb.w	r2, [r3, #32]

        /* Enable the transmit buffer event */
        if ((uint32_t)handle->config->tx_fifo_size > 0U)
 800190e:	68fb      	ldr	r3, [r7, #12]
 8001910:	685b      	ldr	r3, [r3, #4]
 8001912:	f893 307c 	ldrb.w	r3, [r3, #124]	; 0x7c
 8001916:	2b00      	cmp	r3, #0
 8001918:	d00c      	beq.n	8001934 <SPI_MASTER_StartTransmitIRQ+0xa0>
        {
          /* Flush the Transmit FIFO */
          XMC_USIC_CH_TXFIFO_Flush(handle->channel);
 800191a:	68fb      	ldr	r3, [r7, #12]
 800191c:	681b      	ldr	r3, [r3, #0]
 800191e:	4618      	mov	r0, r3
 8001920:	f7ff fefa 	bl	8001718 <XMC_USIC_CH_TXFIFO_Flush>
          XMC_USIC_CH_TXFIFO_EnableEvent(handle->channel,(uint32_t)XMC_USIC_CH_TXFIFO_EVENT_CONF_STANDARD);
 8001924:	68fb      	ldr	r3, [r7, #12]
 8001926:	681b      	ldr	r3, [r3, #0]
 8001928:	4618      	mov	r0, r3
 800192a:	f04f 4180 	mov.w	r1, #1073741824	; 0x40000000
 800192e:	f7ff febb 	bl	80016a8 <XMC_USIC_CH_TXFIFO_EnableEvent>
 8001932:	e006      	b.n	8001942 <SPI_MASTER_StartTransmitIRQ+0xae>
        }
        else
        {
          XMC_USIC_CH_EnableEvent(handle->channel,(uint32_t)XMC_USIC_CH_EVENT_TRANSMIT_BUFFER);
 8001934:	68fb      	ldr	r3, [r7, #12]
 8001936:	681b      	ldr	r3, [r3, #0]
 8001938:	4618      	mov	r0, r3
 800193a:	f44f 5100 	mov.w	r1, #8192	; 0x2000
 800193e:	f7ff fe63 	bl	8001608 <XMC_USIC_CH_EnableEvent>
        }
        XMC_SPI_CH_SetTransmitMode(handle->channel, runtime_handle->spi_master_mode);
 8001942:	68fb      	ldr	r3, [r7, #12]
 8001944:	681a      	ldr	r2, [r3, #0]
 8001946:	697b      	ldr	r3, [r7, #20]
 8001948:	7f1b      	ldrb	r3, [r3, #28]
 800194a:	b2db      	uxtb	r3, r3
 800194c:	4610      	mov	r0, r2
 800194e:	4619      	mov	r1, r3
 8001950:	f7ff ff60 	bl	8001814 <XMC_SPI_CH_SetTransmitMode>
        status = SPI_MASTER_STATUS_SUCCESS;
 8001954:	2300      	movs	r3, #0
 8001956:	77fb      	strb	r3, [r7, #31]

        /* Trigger the transmit buffer interrupt */
        XMC_USIC_CH_TriggerServiceRequest(handle->channel, (uint32_t)handle->config->tx_sr);
 8001958:	68fb      	ldr	r3, [r7, #12]
 800195a:	681a      	ldr	r2, [r3, #0]
 800195c:	68fb      	ldr	r3, [r7, #12]
 800195e:	685b      	ldr	r3, [r3, #4]
 8001960:	f893 3089 	ldrb.w	r3, [r3, #137]	; 0x89
 8001964:	4610      	mov	r0, r2
 8001966:	4619      	mov	r1, r3
 8001968:	f7ff fe8e 	bl	8001688 <XMC_USIC_CH_TriggerServiceRequest>
    /* Check whether SPI channel is free or not */
    if ((dataptr != NULL) && (count > 0U))
    {
      status = SPI_MASTER_STATUS_BUSY;
      /*Check data pointer is valid or not*/
      if (false == runtime_handle->tx_busy)
 800196c:	e002      	b.n	8001974 <SPI_MASTER_StartTransmitIRQ+0xe0>
 800196e:	e001      	b.n	8001974 <SPI_MASTER_StartTransmitIRQ+0xe0>
        XMC_USIC_CH_TriggerServiceRequest(handle->channel, (uint32_t)handle->config->tx_sr);
      }
    }
    else
    {
      status = SPI_MASTER_STATUS_BUFFER_INVALID;
 8001970:	2303      	movs	r3, #3
 8001972:	77fb      	strb	r3, [r7, #31]
    }
  }
  return status;
 8001974:	7ffb      	ldrb	r3, [r7, #31]
}
 8001976:	4618      	mov	r0, r3
 8001978:	3720      	adds	r7, #32
 800197a:	46bd      	mov	sp, r7
 800197c:	bd80      	pop	{r7, pc}
 800197e:	bf00      	nop

08001980 <SPI_MASTER_Transfer>:
 */
SPI_MASTER_STATUS_t SPI_MASTER_Transfer(const SPI_MASTER_t *const handle,
                                        uint8_t* tx_dataptr,
                                        uint8_t* rx_dataptr,
                                        uint32_t count)
{
 8001980:	b580      	push	{r7, lr}
 8001982:	b086      	sub	sp, #24
 8001984:	af00      	add	r7, sp, #0
 8001986:	60f8      	str	r0, [r7, #12]
 8001988:	60b9      	str	r1, [r7, #8]
 800198a:	607a      	str	r2, [r7, #4]
 800198c:	603b      	str	r3, [r7, #0]
  SPI_MASTER_STATUS_t status;
  SPI_MASTER_RUNTIME_t * runtime_handle;

  XMC_ASSERT("SPI_MASTER_Transfer:handle NULL" , (handle != NULL));

  status = SPI_MASTER_STATUS_BUSY;
 800198e:	2302      	movs	r3, #2
 8001990:	75fb      	strb	r3, [r7, #23]
  runtime_handle = handle->runtime;
 8001992:	68fb      	ldr	r3, [r7, #12]
 8001994:	689b      	ldr	r3, [r3, #8]
 8001996:	613b      	str	r3, [r7, #16]

  if (XMC_SPI_CH_MODE_STANDARD == runtime_handle->spi_master_mode)
 8001998:	693b      	ldr	r3, [r7, #16]
 800199a:	7f1b      	ldrb	r3, [r3, #28]
 800199c:	b2db      	uxtb	r3, r3
 800199e:	2b00      	cmp	r3, #0
 80019a0:	d13f      	bne.n	8001a22 <SPI_MASTER_Transfer+0xa2>
  {
    /* Check whether SPI channel is free or not */
    if ((tx_dataptr != NULL) && (rx_dataptr != NULL) && (count > 0U))
 80019a2:	68bb      	ldr	r3, [r7, #8]
 80019a4:	2b00      	cmp	r3, #0
 80019a6:	d038      	beq.n	8001a1a <SPI_MASTER_Transfer+0x9a>
 80019a8:	687b      	ldr	r3, [r7, #4]
 80019aa:	2b00      	cmp	r3, #0
 80019ac:	d035      	beq.n	8001a1a <SPI_MASTER_Transfer+0x9a>
 80019ae:	683b      	ldr	r3, [r7, #0]
 80019b0:	2b00      	cmp	r3, #0
 80019b2:	d032      	beq.n	8001a1a <SPI_MASTER_Transfer+0x9a>
    {
      /*Check data pointer is valid or not*/
      if ((false == runtime_handle->rx_busy) && (false == runtime_handle->tx_busy))
 80019b4:	693b      	ldr	r3, [r7, #16]
 80019b6:	7fdb      	ldrb	r3, [r3, #31]
 80019b8:	b2db      	uxtb	r3, r3
 80019ba:	f083 0301 	eor.w	r3, r3, #1
 80019be:	b2db      	uxtb	r3, r3
 80019c0:	2b00      	cmp	r3, #0
 80019c2:	d029      	beq.n	8001a18 <SPI_MASTER_Transfer+0x98>
 80019c4:	693b      	ldr	r3, [r7, #16]
 80019c6:	f893 3020 	ldrb.w	r3, [r3, #32]
 80019ca:	b2db      	uxtb	r3, r3
 80019cc:	f083 0301 	eor.w	r3, r3, #1
 80019d0:	b2db      	uxtb	r3, r3
 80019d2:	2b00      	cmp	r3, #0
 80019d4:	d020      	beq.n	8001a18 <SPI_MASTER_Transfer+0x98>
      {
        runtime_handle->rx_busy = true;
 80019d6:	693b      	ldr	r3, [r7, #16]
 80019d8:	2201      	movs	r2, #1
 80019da:	77da      	strb	r2, [r3, #31]
        runtime_handle->rx_data = rx_dataptr;
 80019dc:	693b      	ldr	r3, [r7, #16]
 80019de:	687a      	ldr	r2, [r7, #4]
 80019e0:	615a      	str	r2, [r3, #20]
        runtime_handle->tx_data = tx_dataptr;
 80019e2:	693b      	ldr	r3, [r7, #16]
 80019e4:	68ba      	ldr	r2, [r7, #8]
 80019e6:	619a      	str	r2, [r3, #24]
        runtime_handle->tx_data_count = count;
 80019e8:	693b      	ldr	r3, [r7, #16]
 80019ea:	683a      	ldr	r2, [r7, #0]
 80019ec:	605a      	str	r2, [r3, #4]
        runtime_handle->tx_data_dummy = false;
 80019ee:	693b      	ldr	r3, [r7, #16]
 80019f0:	2200      	movs	r2, #0
 80019f2:	f883 2021 	strb.w	r2, [r3, #33]	; 0x21
        runtime_handle->rx_data_dummy = false;
 80019f6:	693b      	ldr	r3, [r7, #16]
 80019f8:	2200      	movs	r2, #0
 80019fa:	f883 2022 	strb.w	r2, [r3, #34]	; 0x22

#if (SPI_MASTER_INTERRUPT_RECEIVE_MODE == 1U)
        if (handle->config->receive_mode == SPI_MASTER_TRANSFER_MODE_INTERRUPT)
 80019fe:	68fb      	ldr	r3, [r7, #12]
 8001a00:	685b      	ldr	r3, [r3, #4]
 8001a02:	f893 3085 	ldrb.w	r3, [r3, #133]	; 0x85
 8001a06:	2b00      	cmp	r3, #0
 8001a08:	d106      	bne.n	8001a18 <SPI_MASTER_Transfer+0x98>
        {
          status = SPI_MASTER_lReceiveIRQ(handle, count);
 8001a0a:	68f8      	ldr	r0, [r7, #12]
 8001a0c:	6839      	ldr	r1, [r7, #0]
 8001a0e:	f000 f8f3 	bl	8001bf8 <SPI_MASTER_lReceiveIRQ>
 8001a12:	4603      	mov	r3, r0
 8001a14:	75fb      	strb	r3, [r7, #23]
  {
    /* Check whether SPI channel is free or not */
    if ((tx_dataptr != NULL) && (rx_dataptr != NULL) && (count > 0U))
    {
      /*Check data pointer is valid or not*/
      if ((false == runtime_handle->rx_busy) && (false == runtime_handle->tx_busy))
 8001a16:	e003      	b.n	8001a20 <SPI_MASTER_Transfer+0xa0>
 8001a18:	e002      	b.n	8001a20 <SPI_MASTER_Transfer+0xa0>
#endif
      }
    }
    else
    {
      status = SPI_MASTER_STATUS_BUFFER_INVALID;
 8001a1a:	2303      	movs	r3, #3
 8001a1c:	75fb      	strb	r3, [r7, #23]
 8001a1e:	e002      	b.n	8001a26 <SPI_MASTER_Transfer+0xa6>
 8001a20:	e001      	b.n	8001a26 <SPI_MASTER_Transfer+0xa6>
    }
  }
  else
  {
    status = SPI_MASTER_STATUS_FAILURE;
 8001a22:	2301      	movs	r3, #1
 8001a24:	75fb      	strb	r3, [r7, #23]
  }

  return status;
 8001a26:	7dfb      	ldrb	r3, [r7, #23]
}
 8001a28:	4618      	mov	r0, r3
 8001a2a:	3718      	adds	r7, #24
 8001a2c:	46bd      	mov	sp, r7
 8001a2e:	bd80      	pop	{r7, pc}

08001a30 <SPI_MASTER_lTransmitHandler>:
 * Transmit interrupt handler for the APP.
 * This is a common interrupt handling function called for different instances of the APP.
 *
 */
void SPI_MASTER_lTransmitHandler(const SPI_MASTER_t * const handle)
{
 8001a30:	b590      	push	{r4, r7, lr}
 8001a32:	b087      	sub	sp, #28
 8001a34:	af00      	add	r7, sp, #0
 8001a36:	6078      	str	r0, [r7, #4]
  uint16_t data; /* Data to be loaded into the TBUF */
  uint32_t bytes_per_word = SPI_MASTER_1_BYTE_PER_WORD; /* This is to support the word length 8 and 16.*/
 8001a38:	2301      	movs	r3, #1
 8001a3a:	613b      	str	r3, [r7, #16]
  SPI_MASTER_RUNTIME_t * runtime_handle = handle->runtime;
 8001a3c:	687b      	ldr	r3, [r7, #4]
 8001a3e:	689b      	ldr	r3, [r3, #8]
 8001a40:	60fb      	str	r3, [r7, #12]

  if (handle->runtime->word_length > SPI_MASTER_WORD_LENGTH_8_BIT)
 8001a42:	687b      	ldr	r3, [r7, #4]
 8001a44:	689b      	ldr	r3, [r3, #8]
 8001a46:	681b      	ldr	r3, [r3, #0]
 8001a48:	2b08      	cmp	r3, #8
 8001a4a:	d901      	bls.n	8001a50 <SPI_MASTER_lTransmitHandler+0x20>
  {
    bytes_per_word = SPI_MASTER_2_BYTES_PER_WORD; /* Word length is 16-bits */
 8001a4c:	2302      	movs	r3, #2
 8001a4e:	613b      	str	r3, [r7, #16]
  }

  if (runtime_handle->tx_data_index < runtime_handle->tx_data_count)
 8001a50:	68fb      	ldr	r3, [r7, #12]
 8001a52:	689a      	ldr	r2, [r3, #8]
 8001a54:	68fb      	ldr	r3, [r7, #12]
 8001a56:	685b      	ldr	r3, [r3, #4]
 8001a58:	429a      	cmp	r2, r3
 8001a5a:	f080 808b 	bcs.w	8001b74 <SPI_MASTER_lTransmitHandler+0x144>
  {
    data = 0U;
 8001a5e:	2300      	movs	r3, #0
 8001a60:	82fb      	strh	r3, [r7, #22]
    /*When Transmit FIFO is enabled*/
    if ((uint32_t)handle->config->tx_fifo_size > 0U)
 8001a62:	687b      	ldr	r3, [r7, #4]
 8001a64:	685b      	ldr	r3, [r3, #4]
 8001a66:	f893 307c 	ldrb.w	r3, [r3, #124]	; 0x7c
 8001a6a:	2b00      	cmp	r3, #0
 8001a6c:	d04b      	beq.n	8001b06 <SPI_MASTER_lTransmitHandler+0xd6>
    {
      /*Fill the transmit FIFO */
      while (XMC_USIC_CH_TXFIFO_IsFull(handle->channel) == false)
 8001a6e:	e03e      	b.n	8001aee <SPI_MASTER_lTransmitHandler+0xbe>
      {
        if (runtime_handle->tx_data_index < runtime_handle->tx_data_count)
 8001a70:	68fb      	ldr	r3, [r7, #12]
 8001a72:	689a      	ldr	r2, [r3, #8]
 8001a74:	68fb      	ldr	r3, [r7, #12]
 8001a76:	685b      	ldr	r3, [r3, #4]
 8001a78:	429a      	cmp	r2, r3
 8001a7a:	d236      	bcs.n	8001aea <SPI_MASTER_lTransmitHandler+0xba>
        {
          /*Load the FIFO byte by byte till either FIFO is full or all data is loaded*/
          if (runtime_handle->tx_data_dummy == true)
 8001a7c:	68fb      	ldr	r3, [r7, #12]
 8001a7e:	f893 3021 	ldrb.w	r3, [r3, #33]	; 0x21
 8001a82:	b2db      	uxtb	r3, r3
 8001a84:	2b00      	cmp	r3, #0
 8001a86:	d00b      	beq.n	8001aa0 <SPI_MASTER_lTransmitHandler+0x70>
          {
            XMC_USIC_CH_TXFIFO_PutDataHPCMode(handle->channel, 0xFFFFU, (uint32_t)runtime_handle->spi_master_mode);
 8001a88:	687b      	ldr	r3, [r7, #4]
 8001a8a:	681a      	ldr	r2, [r3, #0]
 8001a8c:	68fb      	ldr	r3, [r7, #12]
 8001a8e:	7f1b      	ldrb	r3, [r3, #28]
 8001a90:	b2db      	uxtb	r3, r3
 8001a92:	4610      	mov	r0, r2
 8001a94:	f64f 71ff 	movw	r1, #65535	; 0xffff
 8001a98:	461a      	mov	r2, r3
 8001a9a:	f7ff fe2b 	bl	80016f4 <XMC_USIC_CH_TXFIFO_PutDataHPCMode>
 8001a9e:	e01d      	b.n	8001adc <SPI_MASTER_lTransmitHandler+0xac>
          }
          else
          {
            if(bytes_per_word == SPI_MASTER_2_BYTES_PER_WORD)
 8001aa0:	693b      	ldr	r3, [r7, #16]
 8001aa2:	2b02      	cmp	r3, #2
 8001aa4:	d107      	bne.n	8001ab6 <SPI_MASTER_lTransmitHandler+0x86>
            {
              data = *((uint16_t*)&runtime_handle->tx_data[runtime_handle->tx_data_index]);
 8001aa6:	68fb      	ldr	r3, [r7, #12]
 8001aa8:	699a      	ldr	r2, [r3, #24]
 8001aaa:	68fb      	ldr	r3, [r7, #12]
 8001aac:	689b      	ldr	r3, [r3, #8]
 8001aae:	4413      	add	r3, r2
 8001ab0:	881b      	ldrh	r3, [r3, #0]
 8001ab2:	82fb      	strh	r3, [r7, #22]
 8001ab4:	e006      	b.n	8001ac4 <SPI_MASTER_lTransmitHandler+0x94>
            }
            else
            {
              data = runtime_handle->tx_data[runtime_handle->tx_data_index];
 8001ab6:	68fb      	ldr	r3, [r7, #12]
 8001ab8:	699a      	ldr	r2, [r3, #24]
 8001aba:	68fb      	ldr	r3, [r7, #12]
 8001abc:	689b      	ldr	r3, [r3, #8]
 8001abe:	4413      	add	r3, r2
 8001ac0:	781b      	ldrb	r3, [r3, #0]
 8001ac2:	82fb      	strh	r3, [r7, #22]
            }
            XMC_USIC_CH_TXFIFO_PutDataHPCMode(handle->channel, data, (uint32_t)runtime_handle->spi_master_mode);
 8001ac4:	687b      	ldr	r3, [r7, #4]
 8001ac6:	681a      	ldr	r2, [r3, #0]
 8001ac8:	68fb      	ldr	r3, [r7, #12]
 8001aca:	7f1b      	ldrb	r3, [r3, #28]
 8001acc:	b2db      	uxtb	r3, r3
 8001ace:	461c      	mov	r4, r3
 8001ad0:	8afb      	ldrh	r3, [r7, #22]
 8001ad2:	4610      	mov	r0, r2
 8001ad4:	4619      	mov	r1, r3
 8001ad6:	4622      	mov	r2, r4
 8001ad8:	f7ff fe0c 	bl	80016f4 <XMC_USIC_CH_TXFIFO_PutDataHPCMode>
          }
          (runtime_handle->tx_data_index)+= bytes_per_word;
 8001adc:	68fb      	ldr	r3, [r7, #12]
 8001ade:	689a      	ldr	r2, [r3, #8]
 8001ae0:	693b      	ldr	r3, [r7, #16]
 8001ae2:	441a      	add	r2, r3
 8001ae4:	68fb      	ldr	r3, [r7, #12]
 8001ae6:	609a      	str	r2, [r3, #8]
 8001ae8:	e001      	b.n	8001aee <SPI_MASTER_lTransmitHandler+0xbe>
        }
        else
        {
          break;
 8001aea:	bf00      	nop
 8001aec:	e080      	b.n	8001bf0 <SPI_MASTER_lTransmitHandler+0x1c0>
    data = 0U;
    /*When Transmit FIFO is enabled*/
    if ((uint32_t)handle->config->tx_fifo_size > 0U)
    {
      /*Fill the transmit FIFO */
      while (XMC_USIC_CH_TXFIFO_IsFull(handle->channel) == false)
 8001aee:	687b      	ldr	r3, [r7, #4]
 8001af0:	681b      	ldr	r3, [r3, #0]
 8001af2:	4618      	mov	r0, r3
 8001af4:	f7ff fe1e 	bl	8001734 <XMC_USIC_CH_TXFIFO_IsFull>
 8001af8:	4603      	mov	r3, r0
 8001afa:	f083 0301 	eor.w	r3, r3, #1
 8001afe:	b2db      	uxtb	r3, r3
 8001b00:	2b00      	cmp	r3, #0
 8001b02:	d1b5      	bne.n	8001a70 <SPI_MASTER_lTransmitHandler+0x40>
 8001b04:	e074      	b.n	8001bf0 <SPI_MASTER_lTransmitHandler+0x1c0>
        }
      }
    }
    else/*When Transmit FIFO is disabled*/
    {
      if (runtime_handle->tx_data_dummy == true)
 8001b06:	68fb      	ldr	r3, [r7, #12]
 8001b08:	f893 3021 	ldrb.w	r3, [r3, #33]	; 0x21
 8001b0c:	b2db      	uxtb	r3, r3
 8001b0e:	2b00      	cmp	r3, #0
 8001b10:	d00b      	beq.n	8001b2a <SPI_MASTER_lTransmitHandler+0xfa>
      {
        XMC_USIC_CH_WriteToTBUFTCI(handle->channel, 0xFFFFU, (uint32_t)runtime_handle->spi_master_mode);
 8001b12:	687b      	ldr	r3, [r7, #4]
 8001b14:	681a      	ldr	r2, [r3, #0]
 8001b16:	68fb      	ldr	r3, [r7, #12]
 8001b18:	7f1b      	ldrb	r3, [r3, #28]
 8001b1a:	b2db      	uxtb	r3, r3
 8001b1c:	4610      	mov	r0, r2
 8001b1e:	f64f 71ff 	movw	r1, #65535	; 0xffff
 8001b22:	461a      	mov	r2, r3
 8001b24:	f7ff fd5e 	bl	80015e4 <XMC_USIC_CH_WriteToTBUFTCI>
 8001b28:	e01d      	b.n	8001b66 <SPI_MASTER_lTransmitHandler+0x136>
      }
      else
      {
        if(bytes_per_word == SPI_MASTER_2_BYTES_PER_WORD)
 8001b2a:	693b      	ldr	r3, [r7, #16]
 8001b2c:	2b02      	cmp	r3, #2
 8001b2e:	d107      	bne.n	8001b40 <SPI_MASTER_lTransmitHandler+0x110>
        {
          data = *((uint16_t*)&runtime_handle->tx_data[runtime_handle->tx_data_index]);
 8001b30:	68fb      	ldr	r3, [r7, #12]
 8001b32:	699a      	ldr	r2, [r3, #24]
 8001b34:	68fb      	ldr	r3, [r7, #12]
 8001b36:	689b      	ldr	r3, [r3, #8]
 8001b38:	4413      	add	r3, r2
 8001b3a:	881b      	ldrh	r3, [r3, #0]
 8001b3c:	82fb      	strh	r3, [r7, #22]
 8001b3e:	e006      	b.n	8001b4e <SPI_MASTER_lTransmitHandler+0x11e>
        }
        else
        {
          data = runtime_handle->tx_data[runtime_handle->tx_data_index];
 8001b40:	68fb      	ldr	r3, [r7, #12]
 8001b42:	699a      	ldr	r2, [r3, #24]
 8001b44:	68fb      	ldr	r3, [r7, #12]
 8001b46:	689b      	ldr	r3, [r3, #8]
 8001b48:	4413      	add	r3, r2
 8001b4a:	781b      	ldrb	r3, [r3, #0]
 8001b4c:	82fb      	strh	r3, [r7, #22]
        }
        XMC_USIC_CH_WriteToTBUFTCI(handle->channel, data, (uint32_t)runtime_handle->spi_master_mode);
 8001b4e:	687b      	ldr	r3, [r7, #4]
 8001b50:	681a      	ldr	r2, [r3, #0]
 8001b52:	68fb      	ldr	r3, [r7, #12]
 8001b54:	7f1b      	ldrb	r3, [r3, #28]
 8001b56:	b2db      	uxtb	r3, r3
 8001b58:	461c      	mov	r4, r3
 8001b5a:	8afb      	ldrh	r3, [r7, #22]
 8001b5c:	4610      	mov	r0, r2
 8001b5e:	4619      	mov	r1, r3
 8001b60:	4622      	mov	r2, r4
 8001b62:	f7ff fd3f 	bl	80015e4 <XMC_USIC_CH_WriteToTBUFTCI>
      }
      (runtime_handle->tx_data_index)+= bytes_per_word;
 8001b66:	68fb      	ldr	r3, [r7, #12]
 8001b68:	689a      	ldr	r2, [r3, #8]
 8001b6a:	693b      	ldr	r3, [r7, #16]
 8001b6c:	441a      	add	r2, r3
 8001b6e:	68fb      	ldr	r3, [r7, #12]
 8001b70:	609a      	str	r2, [r3, #8]
 8001b72:	e03d      	b.n	8001bf0 <SPI_MASTER_lTransmitHandler+0x1c0>
    }
  }
  else
  {
    if (XMC_USIC_CH_TXFIFO_IsEmpty(handle->channel) == true)
 8001b74:	687b      	ldr	r3, [r7, #4]
 8001b76:	681b      	ldr	r3, [r3, #0]
 8001b78:	4618      	mov	r0, r3
 8001b7a:	f7ff fdef 	bl	800175c <XMC_USIC_CH_TXFIFO_IsEmpty>
 8001b7e:	4603      	mov	r3, r0
 8001b80:	2b00      	cmp	r3, #0
 8001b82:	d035      	beq.n	8001bf0 <SPI_MASTER_lTransmitHandler+0x1c0>
    {
      /* Clear the flag */
      if ((uint32_t)handle->config->tx_fifo_size > 0U)
 8001b84:	687b      	ldr	r3, [r7, #4]
 8001b86:	685b      	ldr	r3, [r3, #4]
 8001b88:	f893 307c 	ldrb.w	r3, [r3, #124]	; 0x7c
 8001b8c:	2b00      	cmp	r3, #0
 8001b8e:	d007      	beq.n	8001ba0 <SPI_MASTER_lTransmitHandler+0x170>
      {
        /* Clear the transmit FIFO event */
        XMC_USIC_CH_TXFIFO_DisableEvent(handle->channel,(uint32_t)XMC_USIC_CH_TXFIFO_EVENT_CONF_STANDARD);
 8001b90:	687b      	ldr	r3, [r7, #4]
 8001b92:	681b      	ldr	r3, [r3, #0]
 8001b94:	4618      	mov	r0, r3
 8001b96:	f04f 4180 	mov.w	r1, #1073741824	; 0x40000000
 8001b9a:	f7ff fd97 	bl	80016cc <XMC_USIC_CH_TXFIFO_DisableEvent>
 8001b9e:	e006      	b.n	8001bae <SPI_MASTER_lTransmitHandler+0x17e>
      }
      else
      {
        /* Clear the standard transmit event */
        XMC_USIC_CH_DisableEvent(handle->channel, (uint32_t)XMC_USIC_CH_EVENT_TRANSMIT_BUFFER);
 8001ba0:	687b      	ldr	r3, [r7, #4]
 8001ba2:	681b      	ldr	r3, [r3, #0]
 8001ba4:	4618      	mov	r0, r3
 8001ba6:	f44f 5100 	mov.w	r1, #8192	; 0x2000
 8001baa:	f7ff fd3d 	bl	8001628 <XMC_USIC_CH_DisableEvent>
      }

      /* Wait for the transmit buffer to be free to ensure that all data is transmitted */
      while (XMC_USIC_CH_GetTransmitBufferStatus(handle->channel) == XMC_USIC_CH_TBUF_STATUS_BUSY)
 8001bae:	bf00      	nop
 8001bb0:	687b      	ldr	r3, [r7, #4]
 8001bb2:	681b      	ldr	r3, [r3, #0]
 8001bb4:	4618      	mov	r0, r3
 8001bb6:	f7ff fd49 	bl	800164c <XMC_USIC_CH_GetTransmitBufferStatus>
 8001bba:	4603      	mov	r3, r0
 8001bbc:	2b80      	cmp	r3, #128	; 0x80
 8001bbe:	d0f7      	beq.n	8001bb0 <SPI_MASTER_lTransmitHandler+0x180>
      {

      }

      /* All data is transmitted */
      runtime_handle->tx_busy = false;
 8001bc0:	68fb      	ldr	r3, [r7, #12]
 8001bc2:	2200      	movs	r2, #0
 8001bc4:	f883 2020 	strb.w	r2, [r3, #32]
      runtime_handle->tx_data = NULL;
 8001bc8:	68fb      	ldr	r3, [r7, #12]
 8001bca:	2200      	movs	r2, #0
 8001bcc:	619a      	str	r2, [r3, #24]

      if ((handle->config->tx_cbhandler != NULL) && (runtime_handle->rx_busy == false))
 8001bce:	687b      	ldr	r3, [r7, #4]
 8001bd0:	685b      	ldr	r3, [r3, #4]
 8001bd2:	6f1b      	ldr	r3, [r3, #112]	; 0x70
 8001bd4:	2b00      	cmp	r3, #0
 8001bd6:	d00b      	beq.n	8001bf0 <SPI_MASTER_lTransmitHandler+0x1c0>
 8001bd8:	68fb      	ldr	r3, [r7, #12]
 8001bda:	7fdb      	ldrb	r3, [r3, #31]
 8001bdc:	b2db      	uxtb	r3, r3
 8001bde:	f083 0301 	eor.w	r3, r3, #1
 8001be2:	b2db      	uxtb	r3, r3
 8001be4:	2b00      	cmp	r3, #0
 8001be6:	d003      	beq.n	8001bf0 <SPI_MASTER_lTransmitHandler+0x1c0>
      {
        /* Execute the callback function provided in the SPI_MASTER APP UI */
        handle->config->tx_cbhandler();
 8001be8:	687b      	ldr	r3, [r7, #4]
 8001bea:	685b      	ldr	r3, [r3, #4]
 8001bec:	6f1b      	ldr	r3, [r3, #112]	; 0x70
 8001bee:	4798      	blx	r3
      }
    }
  }
}
 8001bf0:	371c      	adds	r7, #28
 8001bf2:	46bd      	mov	sp, r7
 8001bf4:	bd90      	pop	{r4, r7, pc}
 8001bf6:	bf00      	nop

08001bf8 <SPI_MASTER_lReceiveIRQ>:
#endif

#if (SPI_MASTER_INTERRUPT_RECEIVE_MODE == 1U)

SPI_MASTER_STATUS_t SPI_MASTER_lReceiveIRQ(const SPI_MASTER_t *const handle, uint32_t count)
{
 8001bf8:	b580      	push	{r7, lr}
 8001bfa:	b086      	sub	sp, #24
 8001bfc:	af00      	add	r7, sp, #0
 8001bfe:	6078      	str	r0, [r7, #4]
 8001c00:	6039      	str	r1, [r7, #0]

  SPI_MASTER_STATUS_t status;
  SPI_MASTER_RUNTIME_t * runtime_handle;
  uint32_t bytes_per_word = SPI_MASTER_1_BYTE_PER_WORD;; /* This is to support the word length 8 and 16.
 8001c02:	2301      	movs	r3, #1
 8001c04:	617b      	str	r3, [r7, #20]
                                                            Specify the number of bytes for the configured word length*/

  runtime_handle = handle->runtime;
 8001c06:	687b      	ldr	r3, [r7, #4]
 8001c08:	689b      	ldr	r3, [r3, #8]
 8001c0a:	613b      	str	r3, [r7, #16]
  runtime_handle->rx_data_index = 0U;
 8001c0c:	693b      	ldr	r3, [r7, #16]
 8001c0e:	2200      	movs	r2, #0
 8001c10:	611a      	str	r2, [r3, #16]

  if (handle->runtime->word_length > SPI_MASTER_WORD_LENGTH_8_BIT)
 8001c12:	687b      	ldr	r3, [r7, #4]
 8001c14:	689b      	ldr	r3, [r3, #8]
 8001c16:	681b      	ldr	r3, [r3, #0]
 8001c18:	2b08      	cmp	r3, #8
 8001c1a:	d901      	bls.n	8001c20 <SPI_MASTER_lReceiveIRQ+0x28>
  {
    bytes_per_word = SPI_MASTER_2_BYTES_PER_WORD; /* Word length is 16-bits */
 8001c1c:	2302      	movs	r3, #2
 8001c1e:	617b      	str	r3, [r7, #20]
  }

  /* If no active reception in progress, obtain the address of data buffer and number of data bytes to be received */
  runtime_handle->rx_data_count = (uint32_t)count << (bytes_per_word - 1U);
 8001c20:	697b      	ldr	r3, [r7, #20]
 8001c22:	3b01      	subs	r3, #1
 8001c24:	461a      	mov	r2, r3
 8001c26:	683b      	ldr	r3, [r7, #0]
 8001c28:	fa03 f202 	lsl.w	r2, r3, r2
 8001c2c:	693b      	ldr	r3, [r7, #16]
 8001c2e:	60da      	str	r2, [r3, #12]

  /* Check if FIFO is enabled */
  if ((uint32_t)handle->config->rx_fifo_size > 0U)
 8001c30:	687b      	ldr	r3, [r7, #4]
 8001c32:	685b      	ldr	r3, [r3, #4]
 8001c34:	f893 307d 	ldrb.w	r3, [r3, #125]	; 0x7d
 8001c38:	2b00      	cmp	r3, #0
 8001c3a:	d017      	beq.n	8001c6c <SPI_MASTER_lReceiveIRQ+0x74>
  {
    /* Clear the receive FIFO */
    XMC_USIC_CH_RXFIFO_Flush(handle->channel);
 8001c3c:	687b      	ldr	r3, [r7, #4]
 8001c3e:	681b      	ldr	r3, [r3, #0]
 8001c40:	4618      	mov	r0, r3
 8001c42:	f7ff fdc5 	bl	80017d0 <XMC_USIC_CH_RXFIFO_Flush>
    SPI_MASTER_lStdRBUFFlush(handle->channel);
 8001c46:	687b      	ldr	r3, [r7, #4]
 8001c48:	681b      	ldr	r3, [r3, #0]
 8001c4a:	4618      	mov	r0, r3
 8001c4c:	f000 f996 	bl	8001f7c <SPI_MASTER_lStdRBUFFlush>

    /* Configure the FIFO trigger limit based on the required data size */
    SPI_MASTER_lReconfigureRxFIFO(handle, runtime_handle->rx_data_count);
 8001c50:	693b      	ldr	r3, [r7, #16]
 8001c52:	68db      	ldr	r3, [r3, #12]
 8001c54:	6878      	ldr	r0, [r7, #4]
 8001c56:	4619      	mov	r1, r3
 8001c58:	f000 f958 	bl	8001f0c <SPI_MASTER_lReconfigureRxFIFO>

    /* Enable the receive FIFO events */
    XMC_USIC_CH_RXFIFO_EnableEvent(handle->channel,(uint32_t)SPI_MASTER_FIFO_RECEIVE_EVENT);
 8001c5c:	687b      	ldr	r3, [r7, #4]
 8001c5e:	681b      	ldr	r3, [r3, #0]
 8001c60:	4618      	mov	r0, r3
 8001c62:	f04f 41c0 	mov.w	r1, #1610612736	; 0x60000000
 8001c66:	f7ff fd8d 	bl	8001784 <XMC_USIC_CH_RXFIFO_EnableEvent>
 8001c6a:	e00b      	b.n	8001c84 <SPI_MASTER_lReceiveIRQ+0x8c>
  }
  else
  {
    /* Flush the RBUF0 and RBUF1 */
    SPI_MASTER_lStdRBUFFlush(handle->channel);
 8001c6c:	687b      	ldr	r3, [r7, #4]
 8001c6e:	681b      	ldr	r3, [r3, #0]
 8001c70:	4618      	mov	r0, r3
 8001c72:	f000 f983 	bl	8001f7c <SPI_MASTER_lStdRBUFFlush>

    /* Enable the standard receive events */
    XMC_USIC_CH_EnableEvent(handle->channel, (uint32_t)SPI_MASTER_RECEIVE_EVENT);
 8001c76:	687b      	ldr	r3, [r7, #4]
 8001c78:	681b      	ldr	r3, [r3, #0]
 8001c7a:	4618      	mov	r0, r3
 8001c7c:	f44f 4140 	mov.w	r1, #49152	; 0xc000
 8001c80:	f7ff fcc2 	bl	8001608 <XMC_USIC_CH_EnableEvent>
  }
  /* Call the transmit, to receive the data synchronously */
  status = SPI_MASTER_Transmit(handle, runtime_handle->tx_data, runtime_handle->tx_data_count);
 8001c84:	693b      	ldr	r3, [r7, #16]
 8001c86:	699a      	ldr	r2, [r3, #24]
 8001c88:	693b      	ldr	r3, [r7, #16]
 8001c8a:	685b      	ldr	r3, [r3, #4]
 8001c8c:	6878      	ldr	r0, [r7, #4]
 8001c8e:	4611      	mov	r1, r2
 8001c90:	461a      	mov	r2, r3
 8001c92:	f7ff fde5 	bl	8001860 <SPI_MASTER_Transmit>
 8001c96:	4603      	mov	r3, r0
 8001c98:	73fb      	strb	r3, [r7, #15]

  return status;
 8001c9a:	7bfb      	ldrb	r3, [r7, #15]
}
 8001c9c:	4618      	mov	r0, r3
 8001c9e:	3718      	adds	r7, #24
 8001ca0:	46bd      	mov	sp, r7
 8001ca2:	bd80      	pop	{r7, pc}

08001ca4 <SPI_MASTER_lReceiveHandler>:
/*
 * Receive interrupt handler for the APP.
 * This is a common interrupt handling function for different instances of the SPI_MASTER APP.
 */
void SPI_MASTER_lReceiveHandler(const SPI_MASTER_t * const handle)
{
 8001ca4:	b580      	push	{r7, lr}
 8001ca6:	b086      	sub	sp, #24
 8001ca8:	af00      	add	r7, sp, #0
 8001caa:	6078      	str	r0, [r7, #4]
  uint16_t data; /* Data to be loaded into the TBUF */
  uint32_t bytes_per_word = SPI_MASTER_1_BYTE_PER_WORD; /* This is to support the word length 8 and 16. */
 8001cac:	2301      	movs	r3, #1
 8001cae:	617b      	str	r3, [r7, #20]
  SPI_MASTER_RUNTIME_t * runtime_handle = handle->runtime;
 8001cb0:	687b      	ldr	r3, [r7, #4]
 8001cb2:	689b      	ldr	r3, [r3, #8]
 8001cb4:	613b      	str	r3, [r7, #16]

  data = 0U;
 8001cb6:	2300      	movs	r3, #0
 8001cb8:	81fb      	strh	r3, [r7, #14]

  if (handle->runtime->word_length > SPI_MASTER_WORD_LENGTH_8_BIT)
 8001cba:	687b      	ldr	r3, [r7, #4]
 8001cbc:	689b      	ldr	r3, [r3, #8]
 8001cbe:	681b      	ldr	r3, [r3, #0]
 8001cc0:	2b08      	cmp	r3, #8
 8001cc2:	d901      	bls.n	8001cc8 <SPI_MASTER_lReceiveHandler+0x24>
  {
    bytes_per_word = SPI_MASTER_2_BYTES_PER_WORD; /* Word length is 16-bits */
 8001cc4:	2302      	movs	r3, #2
 8001cc6:	617b      	str	r3, [r7, #20]
  }

  if ((uint32_t)handle->config->rx_fifo_size > 0U)
 8001cc8:	687b      	ldr	r3, [r7, #4]
 8001cca:	685b      	ldr	r3, [r3, #4]
 8001ccc:	f893 307d 	ldrb.w	r3, [r3, #125]	; 0x7d
 8001cd0:	2b00      	cmp	r3, #0
 8001cd2:	d01d      	beq.n	8001d10 <SPI_MASTER_lReceiveHandler+0x6c>
  {
    /* read the FIFO */
    SPI_MASTER_lFIFORead(handle, bytes_per_word);
 8001cd4:	6878      	ldr	r0, [r7, #4]
 8001cd6:	6979      	ldr	r1, [r7, #20]
 8001cd8:	f000 f8b6 	bl	8001e48 <SPI_MASTER_lFIFORead>
    /* Reconfigure the RXFIFO trigger limit based on pending receive bytes */
    if ((runtime_handle->rx_data_count - runtime_handle->rx_data_index) <= (1UL << (handle->config->rx_fifo_size - 1)))
 8001cdc:	693b      	ldr	r3, [r7, #16]
 8001cde:	68da      	ldr	r2, [r3, #12]
 8001ce0:	693b      	ldr	r3, [r7, #16]
 8001ce2:	691b      	ldr	r3, [r3, #16]
 8001ce4:	1ad2      	subs	r2, r2, r3
 8001ce6:	687b      	ldr	r3, [r7, #4]
 8001ce8:	685b      	ldr	r3, [r3, #4]
 8001cea:	f893 307d 	ldrb.w	r3, [r3, #125]	; 0x7d
 8001cee:	3b01      	subs	r3, #1
 8001cf0:	2101      	movs	r1, #1
 8001cf2:	fa01 f303 	lsl.w	r3, r1, r3
 8001cf6:	429a      	cmp	r2, r3
 8001cf8:	f200 80a2 	bhi.w	8001e40 <SPI_MASTER_lReceiveHandler+0x19c>
    {
      SPI_MASTER_lReconfigureRxFIFO(handle, (uint32_t)(runtime_handle->rx_data_count - runtime_handle->rx_data_index));
 8001cfc:	693b      	ldr	r3, [r7, #16]
 8001cfe:	68da      	ldr	r2, [r3, #12]
 8001d00:	693b      	ldr	r3, [r7, #16]
 8001d02:	691b      	ldr	r3, [r3, #16]
 8001d04:	1ad3      	subs	r3, r2, r3
 8001d06:	6878      	ldr	r0, [r7, #4]
 8001d08:	4619      	mov	r1, r3
 8001d0a:	f000 f8ff 	bl	8001f0c <SPI_MASTER_lReconfigureRxFIFO>
 8001d0e:	e097      	b.n	8001e40 <SPI_MASTER_lReceiveHandler+0x19c>
    }
  }
  else
  {
    /* When RxFIFO is disabled */
    if ((XMC_USIC_CH_GetReceiveBufferStatus(handle->channel) & (uint32_t)XMC_USIC_CH_RBUF_STATUS_DATA_VALID0) != 0U )
 8001d10:	687b      	ldr	r3, [r7, #4]
 8001d12:	681b      	ldr	r3, [r3, #0]
 8001d14:	4618      	mov	r0, r3
 8001d16:	f7ff fca9 	bl	800166c <XMC_USIC_CH_GetReceiveBufferStatus>
 8001d1a:	4603      	mov	r3, r0
 8001d1c:	f403 5300 	and.w	r3, r3, #8192	; 0x2000
 8001d20:	2b00      	cmp	r3, #0
 8001d22:	d028      	beq.n	8001d76 <SPI_MASTER_lReceiveHandler+0xd2>
    {
      if (runtime_handle->rx_data_index < runtime_handle->rx_data_count)
 8001d24:	693b      	ldr	r3, [r7, #16]
 8001d26:	691a      	ldr	r2, [r3, #16]
 8001d28:	693b      	ldr	r3, [r7, #16]
 8001d2a:	68db      	ldr	r3, [r3, #12]
 8001d2c:	429a      	cmp	r2, r3
 8001d2e:	d222      	bcs.n	8001d76 <SPI_MASTER_lReceiveHandler+0xd2>
      {
        data = XMC_SPI_CH_GetReceivedData(handle->channel);
 8001d30:	687b      	ldr	r3, [r7, #4]
 8001d32:	681b      	ldr	r3, [r3, #0]
 8001d34:	4618      	mov	r0, r3
 8001d36:	f7ff f97d 	bl	8001034 <XMC_SPI_CH_GetReceivedData>
 8001d3a:	4603      	mov	r3, r0
 8001d3c:	81fb      	strh	r3, [r7, #14]

        runtime_handle->rx_data[runtime_handle->rx_data_index] = (uint8_t)data;
 8001d3e:	693b      	ldr	r3, [r7, #16]
 8001d40:	695a      	ldr	r2, [r3, #20]
 8001d42:	693b      	ldr	r3, [r7, #16]
 8001d44:	691b      	ldr	r3, [r3, #16]
 8001d46:	4413      	add	r3, r2
 8001d48:	89fa      	ldrh	r2, [r7, #14]
 8001d4a:	b2d2      	uxtb	r2, r2
 8001d4c:	701a      	strb	r2, [r3, #0]

        if (bytes_per_word == SPI_MASTER_2_BYTES_PER_WORD)
 8001d4e:	697b      	ldr	r3, [r7, #20]
 8001d50:	2b02      	cmp	r3, #2
 8001d52:	d10a      	bne.n	8001d6a <SPI_MASTER_lReceiveHandler+0xc6>
        {
          runtime_handle->rx_data[runtime_handle->rx_data_index + 1U] = (uint8_t)((uint16_t)data >> 8);
 8001d54:	693b      	ldr	r3, [r7, #16]
 8001d56:	695a      	ldr	r2, [r3, #20]
 8001d58:	693b      	ldr	r3, [r7, #16]
 8001d5a:	691b      	ldr	r3, [r3, #16]
 8001d5c:	3301      	adds	r3, #1
 8001d5e:	4413      	add	r3, r2
 8001d60:	89fa      	ldrh	r2, [r7, #14]
 8001d62:	0a12      	lsrs	r2, r2, #8
 8001d64:	b292      	uxth	r2, r2
 8001d66:	b2d2      	uxtb	r2, r2
 8001d68:	701a      	strb	r2, [r3, #0]
        }

        (runtime_handle->rx_data_index)+= bytes_per_word;
 8001d6a:	693b      	ldr	r3, [r7, #16]
 8001d6c:	691a      	ldr	r2, [r3, #16]
 8001d6e:	697b      	ldr	r3, [r7, #20]
 8001d70:	441a      	add	r2, r3
 8001d72:	693b      	ldr	r3, [r7, #16]
 8001d74:	611a      	str	r2, [r3, #16]
      }
    }
    if ((XMC_USIC_CH_GetReceiveBufferStatus(handle->channel) & (uint32_t)XMC_USIC_CH_RBUF_STATUS_DATA_VALID1) != 0U)
 8001d76:	687b      	ldr	r3, [r7, #4]
 8001d78:	681b      	ldr	r3, [r3, #0]
 8001d7a:	4618      	mov	r0, r3
 8001d7c:	f7ff fc76 	bl	800166c <XMC_USIC_CH_GetReceiveBufferStatus>
 8001d80:	4603      	mov	r3, r0
 8001d82:	f403 4380 	and.w	r3, r3, #16384	; 0x4000
 8001d86:	2b00      	cmp	r3, #0
 8001d88:	d028      	beq.n	8001ddc <SPI_MASTER_lReceiveHandler+0x138>
    {
      if (runtime_handle->rx_data_index < runtime_handle->rx_data_count)
 8001d8a:	693b      	ldr	r3, [r7, #16]
 8001d8c:	691a      	ldr	r2, [r3, #16]
 8001d8e:	693b      	ldr	r3, [r7, #16]
 8001d90:	68db      	ldr	r3, [r3, #12]
 8001d92:	429a      	cmp	r2, r3
 8001d94:	d222      	bcs.n	8001ddc <SPI_MASTER_lReceiveHandler+0x138>
      {
        data = XMC_SPI_CH_GetReceivedData(handle->channel);
 8001d96:	687b      	ldr	r3, [r7, #4]
 8001d98:	681b      	ldr	r3, [r3, #0]
 8001d9a:	4618      	mov	r0, r3
 8001d9c:	f7ff f94a 	bl	8001034 <XMC_SPI_CH_GetReceivedData>
 8001da0:	4603      	mov	r3, r0
 8001da2:	81fb      	strh	r3, [r7, #14]

        runtime_handle->rx_data[runtime_handle->rx_data_index] = (uint8_t)data;
 8001da4:	693b      	ldr	r3, [r7, #16]
 8001da6:	695a      	ldr	r2, [r3, #20]
 8001da8:	693b      	ldr	r3, [r7, #16]
 8001daa:	691b      	ldr	r3, [r3, #16]
 8001dac:	4413      	add	r3, r2
 8001dae:	89fa      	ldrh	r2, [r7, #14]
 8001db0:	b2d2      	uxtb	r2, r2
 8001db2:	701a      	strb	r2, [r3, #0]

        if (bytes_per_word == SPI_MASTER_2_BYTES_PER_WORD)
 8001db4:	697b      	ldr	r3, [r7, #20]
 8001db6:	2b02      	cmp	r3, #2
 8001db8:	d10a      	bne.n	8001dd0 <SPI_MASTER_lReceiveHandler+0x12c>
        {
          runtime_handle->rx_data[runtime_handle->rx_data_index + 1U] = (uint8_t)((uint16_t)data >> 8);
 8001dba:	693b      	ldr	r3, [r7, #16]
 8001dbc:	695a      	ldr	r2, [r3, #20]
 8001dbe:	693b      	ldr	r3, [r7, #16]
 8001dc0:	691b      	ldr	r3, [r3, #16]
 8001dc2:	3301      	adds	r3, #1
 8001dc4:	4413      	add	r3, r2
 8001dc6:	89fa      	ldrh	r2, [r7, #14]
 8001dc8:	0a12      	lsrs	r2, r2, #8
 8001dca:	b292      	uxth	r2, r2
 8001dcc:	b2d2      	uxtb	r2, r2
 8001dce:	701a      	strb	r2, [r3, #0]
        }

        (runtime_handle->rx_data_index)+= bytes_per_word;
 8001dd0:	693b      	ldr	r3, [r7, #16]
 8001dd2:	691a      	ldr	r2, [r3, #16]
 8001dd4:	697b      	ldr	r3, [r7, #20]
 8001dd6:	441a      	add	r2, r3
 8001dd8:	693b      	ldr	r3, [r7, #16]
 8001dda:	611a      	str	r2, [r3, #16]
      }
    }

    if (runtime_handle->rx_data_index == runtime_handle->rx_data_count)
 8001ddc:	693b      	ldr	r3, [r7, #16]
 8001dde:	691a      	ldr	r2, [r3, #16]
 8001de0:	693b      	ldr	r3, [r7, #16]
 8001de2:	68db      	ldr	r3, [r3, #12]
 8001de4:	429a      	cmp	r2, r3
 8001de6:	d12b      	bne.n	8001e40 <SPI_MASTER_lReceiveHandler+0x19c>
    {
      /* Disable both standard receive and alternative receive FIFO events */
      if ((uint32_t)handle->config->rx_fifo_size > 0U)
 8001de8:	687b      	ldr	r3, [r7, #4]
 8001dea:	685b      	ldr	r3, [r3, #4]
 8001dec:	f893 307d 	ldrb.w	r3, [r3, #125]	; 0x7d
 8001df0:	2b00      	cmp	r3, #0
 8001df2:	d007      	beq.n	8001e04 <SPI_MASTER_lReceiveHandler+0x160>
      {
        /* Enable the receive FIFO events */
        XMC_USIC_CH_RXFIFO_DisableEvent(handle->channel,(uint32_t)SPI_MASTER_FIFO_RECEIVE_EVENT);
 8001df4:	687b      	ldr	r3, [r7, #4]
 8001df6:	681b      	ldr	r3, [r3, #0]
 8001df8:	4618      	mov	r0, r3
 8001dfa:	f04f 41c0 	mov.w	r1, #1610612736	; 0x60000000
 8001dfe:	f7ff fcd3 	bl	80017a8 <XMC_USIC_CH_RXFIFO_DisableEvent>
 8001e02:	e006      	b.n	8001e12 <SPI_MASTER_lReceiveHandler+0x16e>
      }
      else
      {
        XMC_SPI_CH_DisableEvent(handle->channel, (uint32_t)SPI_MASTER_RECEIVE_EVENT);
 8001e04:	687b      	ldr	r3, [r7, #4]
 8001e06:	681b      	ldr	r3, [r3, #0]
 8001e08:	4618      	mov	r0, r3
 8001e0a:	f44f 4140 	mov.w	r1, #49152	; 0xc000
 8001e0e:	f7ff f92b 	bl	8001068 <XMC_SPI_CH_DisableEvent>
      }
      /* Reception complete */
      runtime_handle->rx_busy = false;
 8001e12:	693b      	ldr	r3, [r7, #16]
 8001e14:	2200      	movs	r2, #0
 8001e16:	77da      	strb	r2, [r3, #31]
      runtime_handle->tx_data_dummy = false;
 8001e18:	693b      	ldr	r3, [r7, #16]
 8001e1a:	2200      	movs	r2, #0
 8001e1c:	f883 2021 	strb.w	r2, [r3, #33]	; 0x21
      runtime_handle->rx_data_dummy = true;
 8001e20:	693b      	ldr	r3, [r7, #16]
 8001e22:	2201      	movs	r2, #1
 8001e24:	f883 2022 	strb.w	r2, [r3, #34]	; 0x22
      runtime_handle->rx_data = NULL;
 8001e28:	693b      	ldr	r3, [r7, #16]
 8001e2a:	2200      	movs	r2, #0
 8001e2c:	615a      	str	r2, [r3, #20]

      if (handle->config->rx_cbhandler != NULL)
 8001e2e:	687b      	ldr	r3, [r7, #4]
 8001e30:	685b      	ldr	r3, [r3, #4]
 8001e32:	6f5b      	ldr	r3, [r3, #116]	; 0x74
 8001e34:	2b00      	cmp	r3, #0
 8001e36:	d003      	beq.n	8001e40 <SPI_MASTER_lReceiveHandler+0x19c>
      {
        /* Execute the 'End of reception' callback function */
        handle->config->rx_cbhandler();
 8001e38:	687b      	ldr	r3, [r7, #4]
 8001e3a:	685b      	ldr	r3, [r3, #4]
 8001e3c:	6f5b      	ldr	r3, [r3, #116]	; 0x74
 8001e3e:	4798      	blx	r3
      }
    }
  }
}
 8001e40:	3718      	adds	r7, #24
 8001e42:	46bd      	mov	sp, r7
 8001e44:	bd80      	pop	{r7, pc}
 8001e46:	bf00      	nop

08001e48 <SPI_MASTER_lFIFORead>:

/*
 * Read the data from FIFO until it becomes empty.
 */
void SPI_MASTER_lFIFORead(const SPI_MASTER_t * const handle, const uint32_t bytes_per_word)
{
 8001e48:	b580      	push	{r7, lr}
 8001e4a:	b084      	sub	sp, #16
 8001e4c:	af00      	add	r7, sp, #0
 8001e4e:	6078      	str	r0, [r7, #4]
 8001e50:	6039      	str	r1, [r7, #0]
  SPI_MASTER_RUNTIME_t * runtime_handle;
  uint16_t data;

  runtime_handle = handle->runtime;
 8001e52:	687b      	ldr	r3, [r7, #4]
 8001e54:	689b      	ldr	r3, [r3, #8]
 8001e56:	60fb      	str	r3, [r7, #12]
  data = 0U;
 8001e58:	2300      	movs	r3, #0
 8001e5a:	817b      	strh	r3, [r7, #10]

  /* When Receive FIFO is enabled*/
  while (XMC_USIC_CH_RXFIFO_IsEmpty(handle->channel) == false)
 8001e5c:	e047      	b.n	8001eee <SPI_MASTER_lFIFORead+0xa6>
  {
    if (runtime_handle->rx_data_index < runtime_handle->rx_data_count)
 8001e5e:	68fb      	ldr	r3, [r7, #12]
 8001e60:	691a      	ldr	r2, [r3, #16]
 8001e62:	68fb      	ldr	r3, [r7, #12]
 8001e64:	68db      	ldr	r3, [r3, #12]
 8001e66:	429a      	cmp	r2, r3
 8001e68:	d222      	bcs.n	8001eb0 <SPI_MASTER_lFIFORead+0x68>
    {
      data = XMC_SPI_CH_GetReceivedData(handle->channel);
 8001e6a:	687b      	ldr	r3, [r7, #4]
 8001e6c:	681b      	ldr	r3, [r3, #0]
 8001e6e:	4618      	mov	r0, r3
 8001e70:	f7ff f8e0 	bl	8001034 <XMC_SPI_CH_GetReceivedData>
 8001e74:	4603      	mov	r3, r0
 8001e76:	817b      	strh	r3, [r7, #10]
      runtime_handle->rx_data[runtime_handle->rx_data_index] = (uint8_t)data;
 8001e78:	68fb      	ldr	r3, [r7, #12]
 8001e7a:	695a      	ldr	r2, [r3, #20]
 8001e7c:	68fb      	ldr	r3, [r7, #12]
 8001e7e:	691b      	ldr	r3, [r3, #16]
 8001e80:	4413      	add	r3, r2
 8001e82:	897a      	ldrh	r2, [r7, #10]
 8001e84:	b2d2      	uxtb	r2, r2
 8001e86:	701a      	strb	r2, [r3, #0]

      if (bytes_per_word == SPI_MASTER_2_BYTES_PER_WORD)
 8001e88:	683b      	ldr	r3, [r7, #0]
 8001e8a:	2b02      	cmp	r3, #2
 8001e8c:	d10a      	bne.n	8001ea4 <SPI_MASTER_lFIFORead+0x5c>
      {
        runtime_handle->rx_data[runtime_handle->rx_data_index + 1U] = (uint8_t)((uint16_t)data >> 8);
 8001e8e:	68fb      	ldr	r3, [r7, #12]
 8001e90:	695a      	ldr	r2, [r3, #20]
 8001e92:	68fb      	ldr	r3, [r7, #12]
 8001e94:	691b      	ldr	r3, [r3, #16]
 8001e96:	3301      	adds	r3, #1
 8001e98:	4413      	add	r3, r2
 8001e9a:	897a      	ldrh	r2, [r7, #10]
 8001e9c:	0a12      	lsrs	r2, r2, #8
 8001e9e:	b292      	uxth	r2, r2
 8001ea0:	b2d2      	uxtb	r2, r2
 8001ea2:	701a      	strb	r2, [r3, #0]
      }
      (runtime_handle->rx_data_index)+= bytes_per_word;
 8001ea4:	68fb      	ldr	r3, [r7, #12]
 8001ea6:	691a      	ldr	r2, [r3, #16]
 8001ea8:	683b      	ldr	r3, [r7, #0]
 8001eaa:	441a      	add	r2, r3
 8001eac:	68fb      	ldr	r3, [r7, #12]
 8001eae:	611a      	str	r2, [r3, #16]
    }

    if (runtime_handle->rx_data_index == runtime_handle->rx_data_count)
 8001eb0:	68fb      	ldr	r3, [r7, #12]
 8001eb2:	691a      	ldr	r2, [r3, #16]
 8001eb4:	68fb      	ldr	r3, [r7, #12]
 8001eb6:	68db      	ldr	r3, [r3, #12]
 8001eb8:	429a      	cmp	r2, r3
 8001eba:	d118      	bne.n	8001eee <SPI_MASTER_lFIFORead+0xa6>
    {
      /*Reception complete*/
      runtime_handle->rx_busy = false;
 8001ebc:	68fb      	ldr	r3, [r7, #12]
 8001ebe:	2200      	movs	r2, #0
 8001ec0:	77da      	strb	r2, [r3, #31]
      runtime_handle->tx_data_dummy = false;
 8001ec2:	68fb      	ldr	r3, [r7, #12]
 8001ec4:	2200      	movs	r2, #0
 8001ec6:	f883 2021 	strb.w	r2, [r3, #33]	; 0x21
      /*Disable both standard receive and alternative receive FIFO events*/
      XMC_USIC_CH_RXFIFO_DisableEvent(handle->channel,(uint32_t)SPI_MASTER_FIFO_RECEIVE_EVENT);
 8001eca:	687b      	ldr	r3, [r7, #4]
 8001ecc:	681b      	ldr	r3, [r3, #0]
 8001ece:	4618      	mov	r0, r3
 8001ed0:	f04f 41c0 	mov.w	r1, #1610612736	; 0x60000000
 8001ed4:	f7ff fc68 	bl	80017a8 <XMC_USIC_CH_RXFIFO_DisableEvent>
      if (handle->config->rx_cbhandler != NULL)
 8001ed8:	687b      	ldr	r3, [r7, #4]
 8001eda:	685b      	ldr	r3, [r3, #4]
 8001edc:	6f5b      	ldr	r3, [r3, #116]	; 0x74
 8001ede:	2b00      	cmp	r3, #0
 8001ee0:	d004      	beq.n	8001eec <SPI_MASTER_lFIFORead+0xa4>
      {
        /* Execute the 'End of reception' callback function */
        handle->config->rx_cbhandler();
 8001ee2:	687b      	ldr	r3, [r7, #4]
 8001ee4:	685b      	ldr	r3, [r3, #4]
 8001ee6:	6f5b      	ldr	r3, [r3, #116]	; 0x74
 8001ee8:	4798      	blx	r3
      }
      break;
 8001eea:	e00b      	b.n	8001f04 <SPI_MASTER_lFIFORead+0xbc>
 8001eec:	e00a      	b.n	8001f04 <SPI_MASTER_lFIFORead+0xbc>

  runtime_handle = handle->runtime;
  data = 0U;

  /* When Receive FIFO is enabled*/
  while (XMC_USIC_CH_RXFIFO_IsEmpty(handle->channel) == false)
 8001eee:	687b      	ldr	r3, [r7, #4]
 8001ef0:	681b      	ldr	r3, [r3, #0]
 8001ef2:	4618      	mov	r0, r3
 8001ef4:	f7ff fc7a 	bl	80017ec <XMC_USIC_CH_RXFIFO_IsEmpty>
 8001ef8:	4603      	mov	r3, r0
 8001efa:	f083 0301 	eor.w	r3, r3, #1
 8001efe:	b2db      	uxtb	r3, r3
 8001f00:	2b00      	cmp	r3, #0
 8001f02:	d1ac      	bne.n	8001e5e <SPI_MASTER_lFIFORead+0x16>
        handle->config->rx_cbhandler();
      }
      break;
    }
  }
}
 8001f04:	3710      	adds	r7, #16
 8001f06:	46bd      	mov	sp, r7
 8001f08:	bd80      	pop	{r7, pc}
 8001f0a:	bf00      	nop

08001f0c <SPI_MASTER_lReconfigureRxFIFO>:

/*
 * This function configures the FIFO settings
 */
static void SPI_MASTER_lReconfigureRxFIFO(const SPI_MASTER_t * const handle, uint32_t data_size)
{
 8001f0c:	b580      	push	{r7, lr}
 8001f0e:	b084      	sub	sp, #16
 8001f10:	af00      	add	r7, sp, #0
 8001f12:	6078      	str	r0, [r7, #4]
 8001f14:	6039      	str	r1, [r7, #0]
  uint32_t fifo_size;
  uint32_t ret_limit_val;

  if (((uint32_t)handle->config->rx_fifo_size > 0U) && (data_size > 0U))
 8001f16:	687b      	ldr	r3, [r7, #4]
 8001f18:	685b      	ldr	r3, [r3, #4]
 8001f1a:	f893 307d 	ldrb.w	r3, [r3, #125]	; 0x7d
 8001f1e:	2b00      	cmp	r3, #0
 8001f20:	d028      	beq.n	8001f74 <SPI_MASTER_lReconfigureRxFIFO+0x68>
 8001f22:	683b      	ldr	r3, [r7, #0]
 8001f24:	2b00      	cmp	r3, #0
 8001f26:	d025      	beq.n	8001f74 <SPI_MASTER_lReconfigureRxFIFO+0x68>
  {
	fifo_size = 1UL << (handle->config->rx_fifo_size - 1);
 8001f28:	687b      	ldr	r3, [r7, #4]
 8001f2a:	685b      	ldr	r3, [r3, #4]
 8001f2c:	f893 307d 	ldrb.w	r3, [r3, #125]	; 0x7d
 8001f30:	3b01      	subs	r3, #1
 8001f32:	2201      	movs	r2, #1
 8001f34:	fa02 f303 	lsl.w	r3, r2, r3
 8001f38:	60bb      	str	r3, [r7, #8]

    if (handle->runtime->word_length > SPI_MASTER_WORD_LENGTH_8_BIT)
 8001f3a:	687b      	ldr	r3, [r7, #4]
 8001f3c:	689b      	ldr	r3, [r3, #8]
 8001f3e:	681b      	ldr	r3, [r3, #0]
 8001f40:	2b08      	cmp	r3, #8
 8001f42:	d902      	bls.n	8001f4a <SPI_MASTER_lReconfigureRxFIFO+0x3e>
	{
	  /* Data size is divided by 2, to change the trigger limit according the word length */
	  data_size = (uint32_t)data_size >> 1U;
 8001f44:	683b      	ldr	r3, [r7, #0]
 8001f46:	085b      	lsrs	r3, r3, #1
 8001f48:	603b      	str	r3, [r7, #0]
	}

	/*If data size is more than FIFO size, configure the limit to the FIFO size*/
	if (data_size <= fifo_size)
 8001f4a:	683a      	ldr	r2, [r7, #0]
 8001f4c:	68bb      	ldr	r3, [r7, #8]
 8001f4e:	429a      	cmp	r2, r3
 8001f50:	d803      	bhi.n	8001f5a <SPI_MASTER_lReconfigureRxFIFO+0x4e>
	{
	  ret_limit_val = data_size - 1U;
 8001f52:	683b      	ldr	r3, [r7, #0]
 8001f54:	3b01      	subs	r3, #1
 8001f56:	60fb      	str	r3, [r7, #12]
 8001f58:	e001      	b.n	8001f5e <SPI_MASTER_lReconfigureRxFIFO+0x52>
	}
	else
	{
	  ret_limit_val = fifo_size;
 8001f5a:	68bb      	ldr	r3, [r7, #8]
 8001f5c:	60fb      	str	r3, [r7, #12]
	}

	/*Set the limit value*/
	XMC_USIC_CH_RXFIFO_SetSizeTriggerLimit(handle->channel, handle->config->rx_fifo_size, ret_limit_val);
 8001f5e:	687b      	ldr	r3, [r7, #4]
 8001f60:	681a      	ldr	r2, [r3, #0]
 8001f62:	687b      	ldr	r3, [r7, #4]
 8001f64:	685b      	ldr	r3, [r3, #4]
 8001f66:	f893 307d 	ldrb.w	r3, [r3, #125]	; 0x7d
 8001f6a:	4610      	mov	r0, r2
 8001f6c:	4619      	mov	r1, r3
 8001f6e:	68fa      	ldr	r2, [r7, #12]
 8001f70:	f7ff fa24 	bl	80013bc <XMC_USIC_CH_RXFIFO_SetSizeTriggerLimit>
  }
}
 8001f74:	3710      	adds	r7, #16
 8001f76:	46bd      	mov	sp, r7
 8001f78:	bd80      	pop	{r7, pc}
 8001f7a:	bf00      	nop

08001f7c <SPI_MASTER_lStdRBUFFlush>:

/*
 * Clears the receive buffers
 */
static void SPI_MASTER_lStdRBUFFlush(XMC_USIC_CH_t *const channel)
{
 8001f7c:	b580      	push	{r7, lr}
 8001f7e:	b082      	sub	sp, #8
 8001f80:	af00      	add	r7, sp, #0
 8001f82:	6078      	str	r0, [r7, #4]
  /* Clear RBF0 */
  (void)XMC_SPI_CH_GetReceivedData(channel);
 8001f84:	6878      	ldr	r0, [r7, #4]
 8001f86:	f7ff f855 	bl	8001034 <XMC_SPI_CH_GetReceivedData>
  /* Clear RBF1 */
  (void)XMC_SPI_CH_GetReceivedData(channel);
 8001f8a:	6878      	ldr	r0, [r7, #4]
 8001f8c:	f7ff f852 	bl	8001034 <XMC_SPI_CH_GetReceivedData>
}
 8001f90:	3708      	adds	r7, #8
 8001f92:	46bd      	mov	sp, r7
 8001f94:	bd80      	pop	{r7, pc}
 8001f96:	bf00      	nop

08001f98 <__NVIC_GetPriorityGrouping>:
  \brief   Get Priority Grouping
  \details Reads the priority grouping field from the NVIC Interrupt Controller.
  \return                Priority grouping field (SCB->AIRCR [10:8] PRIGROUP field).
 */
__STATIC_INLINE uint32_t __NVIC_GetPriorityGrouping(void)
{
 8001f98:	b480      	push	{r7}
 8001f9a:	af00      	add	r7, sp, #0
  return ((uint32_t)((SCB->AIRCR & SCB_AIRCR_PRIGROUP_Msk) >> SCB_AIRCR_PRIGROUP_Pos));
 8001f9c:	4b04      	ldr	r3, [pc, #16]	; (8001fb0 <__NVIC_GetPriorityGrouping+0x18>)
 8001f9e:	68db      	ldr	r3, [r3, #12]
 8001fa0:	f403 63e0 	and.w	r3, r3, #1792	; 0x700
 8001fa4:	0a1b      	lsrs	r3, r3, #8
}
 8001fa6:	4618      	mov	r0, r3
 8001fa8:	46bd      	mov	sp, r7
 8001faa:	f85d 7b04 	ldr.w	r7, [sp], #4
 8001fae:	4770      	bx	lr
 8001fb0:	e000ed00 	.word	0xe000ed00

08001fb4 <__NVIC_EnableIRQ>:
  \details Enables a device specific interrupt in the NVIC interrupt controller.
  \param [in]      IRQn  Device specific interrupt number.
  \note    IRQn must not be negative.
 */
__STATIC_INLINE void __NVIC_EnableIRQ(IRQn_Type IRQn)
{
 8001fb4:	b480      	push	{r7}
 8001fb6:	b083      	sub	sp, #12
 8001fb8:	af00      	add	r7, sp, #0
 8001fba:	4603      	mov	r3, r0
 8001fbc:	71fb      	strb	r3, [r7, #7]
  if ((int32_t)(IRQn) >= 0)
 8001fbe:	f997 3007 	ldrsb.w	r3, [r7, #7]
 8001fc2:	2b00      	cmp	r3, #0
 8001fc4:	db0b      	blt.n	8001fde <__NVIC_EnableIRQ+0x2a>
  {
    __COMPILER_BARRIER();
    NVIC->ISER[(((uint32_t)IRQn) >> 5UL)] = (uint32_t)(1UL << (((uint32_t)IRQn) & 0x1FUL));
 8001fc6:	4908      	ldr	r1, [pc, #32]	; (8001fe8 <__NVIC_EnableIRQ+0x34>)
 8001fc8:	f997 3007 	ldrsb.w	r3, [r7, #7]
 8001fcc:	095b      	lsrs	r3, r3, #5
 8001fce:	79fa      	ldrb	r2, [r7, #7]
 8001fd0:	f002 021f 	and.w	r2, r2, #31
 8001fd4:	2001      	movs	r0, #1
 8001fd6:	fa00 f202 	lsl.w	r2, r0, r2
 8001fda:	f841 2023 	str.w	r2, [r1, r3, lsl #2]
    __COMPILER_BARRIER();
  }
}
 8001fde:	370c      	adds	r7, #12
 8001fe0:	46bd      	mov	sp, r7
 8001fe2:	f85d 7b04 	ldr.w	r7, [sp], #4
 8001fe6:	4770      	bx	lr
 8001fe8:	e000e100 	.word	0xe000e100

08001fec <__NVIC_SetPriority>:
  \param [in]      IRQn  Interrupt number.
  \param [in]  priority  Priority to set.
  \note    The priority cannot be set for every processor exception.
 */
__STATIC_INLINE void __NVIC_SetPriority(IRQn_Type IRQn, uint32_t priority)
{
 8001fec:	b480      	push	{r7}
 8001fee:	b083      	sub	sp, #12
 8001ff0:	af00      	add	r7, sp, #0
 8001ff2:	4603      	mov	r3, r0
 8001ff4:	6039      	str	r1, [r7, #0]
 8001ff6:	71fb      	strb	r3, [r7, #7]
  if ((int32_t)(IRQn) >= 0)
 8001ff8:	f997 3007 	ldrsb.w	r3, [r7, #7]
 8001ffc:	2b00      	cmp	r3, #0
 8001ffe:	db0a      	blt.n	8002016 <__NVIC_SetPriority+0x2a>
  {
    NVIC->IP[((uint32_t)IRQn)]               = (uint8_t)((priority << (8U - __NVIC_PRIO_BITS)) & (uint32_t)0xFFUL);
 8002000:	490d      	ldr	r1, [pc, #52]	; (8002038 <__NVIC_SetPriority+0x4c>)
 8002002:	f997 3007 	ldrsb.w	r3, [r7, #7]
 8002006:	683a      	ldr	r2, [r7, #0]
 8002008:	b2d2      	uxtb	r2, r2
 800200a:	0092      	lsls	r2, r2, #2
 800200c:	b2d2      	uxtb	r2, r2
 800200e:	440b      	add	r3, r1
 8002010:	f883 2300 	strb.w	r2, [r3, #768]	; 0x300
 8002014:	e00a      	b.n	800202c <__NVIC_SetPriority+0x40>
  }
  else
  {
    SCB->SHP[(((uint32_t)IRQn) & 0xFUL)-4UL] = (uint8_t)((priority << (8U - __NVIC_PRIO_BITS)) & (uint32_t)0xFFUL);
 8002016:	4909      	ldr	r1, [pc, #36]	; (800203c <__NVIC_SetPriority+0x50>)
 8002018:	79fb      	ldrb	r3, [r7, #7]
 800201a:	f003 030f 	and.w	r3, r3, #15
 800201e:	3b04      	subs	r3, #4
 8002020:	683a      	ldr	r2, [r7, #0]
 8002022:	b2d2      	uxtb	r2, r2
 8002024:	0092      	lsls	r2, r2, #2
 8002026:	b2d2      	uxtb	r2, r2
 8002028:	440b      	add	r3, r1
 800202a:	761a      	strb	r2, [r3, #24]
  }
}
 800202c:	370c      	adds	r7, #12
 800202e:	46bd      	mov	sp, r7
 8002030:	f85d 7b04 	ldr.w	r7, [sp], #4
 8002034:	4770      	bx	lr
 8002036:	bf00      	nop
 8002038:	e000e100 	.word	0xe000e100
 800203c:	e000ed00 	.word	0xe000ed00

08002040 <NVIC_EncodePriority>:
  \param [in]   PreemptPriority  Preemptive priority value (starting from 0).
  \param [in]       SubPriority  Subpriority value (starting from 0).
  \return                        Encoded priority. Value can be used in the function \ref NVIC_SetPriority().
 */
__STATIC_INLINE uint32_t NVIC_EncodePriority (uint32_t PriorityGroup, uint32_t PreemptPriority, uint32_t SubPriority)
{
 8002040:	b480      	push	{r7}
 8002042:	b089      	sub	sp, #36	; 0x24
 8002044:	af00      	add	r7, sp, #0
 8002046:	60f8      	str	r0, [r7, #12]
 8002048:	60b9      	str	r1, [r7, #8]
 800204a:	607a      	str	r2, [r7, #4]
  uint32_t PriorityGroupTmp = (PriorityGroup & (uint32_t)0x07UL);   /* only values 0..7 are used          */
 800204c:	68fb      	ldr	r3, [r7, #12]
 800204e:	f003 0307 	and.w	r3, r3, #7
 8002052:	61fb      	str	r3, [r7, #28]
  uint32_t PreemptPriorityBits;
  uint32_t SubPriorityBits;

  PreemptPriorityBits = ((7UL - PriorityGroupTmp) > (uint32_t)(__NVIC_PRIO_BITS)) ? (uint32_t)(__NVIC_PRIO_BITS) : (uint32_t)(7UL - PriorityGroupTmp);
 8002054:	69fb      	ldr	r3, [r7, #28]
 8002056:	f1c3 0307 	rsb	r3, r3, #7
 800205a:	2b06      	cmp	r3, #6
 800205c:	bf28      	it	cs
 800205e:	2306      	movcs	r3, #6
 8002060:	61bb      	str	r3, [r7, #24]
  SubPriorityBits     = ((PriorityGroupTmp + (uint32_t)(__NVIC_PRIO_BITS)) < (uint32_t)7UL) ? (uint32_t)0UL : (uint32_t)((PriorityGroupTmp - 7UL) + (uint32_t)(__NVIC_PRIO_BITS));
 8002062:	69fb      	ldr	r3, [r7, #28]
 8002064:	3306      	adds	r3, #6
 8002066:	2b06      	cmp	r3, #6
 8002068:	d902      	bls.n	8002070 <NVIC_EncodePriority+0x30>
 800206a:	69fb      	ldr	r3, [r7, #28]
 800206c:	3b01      	subs	r3, #1
 800206e:	e000      	b.n	8002072 <NVIC_EncodePriority+0x32>
 8002070:	2300      	movs	r3, #0
 8002072:	617b      	str	r3, [r7, #20]

  return (
           ((PreemptPriority & (uint32_t)((1UL << (PreemptPriorityBits)) - 1UL)) << SubPriorityBits) |
 8002074:	69bb      	ldr	r3, [r7, #24]
 8002076:	2201      	movs	r2, #1
 8002078:	fa02 f303 	lsl.w	r3, r2, r3
 800207c:	1e5a      	subs	r2, r3, #1
 800207e:	68bb      	ldr	r3, [r7, #8]
 8002080:	401a      	ands	r2, r3
 8002082:	697b      	ldr	r3, [r7, #20]
 8002084:	409a      	lsls	r2, r3
           ((SubPriority     & (uint32_t)((1UL << (SubPriorityBits    )) - 1UL)))
 8002086:	697b      	ldr	r3, [r7, #20]
 8002088:	2101      	movs	r1, #1
 800208a:	fa01 f303 	lsl.w	r3, r1, r3
 800208e:	1e59      	subs	r1, r3, #1
 8002090:	687b      	ldr	r3, [r7, #4]
 8002092:	400b      	ands	r3, r1
  uint32_t SubPriorityBits;

  PreemptPriorityBits = ((7UL - PriorityGroupTmp) > (uint32_t)(__NVIC_PRIO_BITS)) ? (uint32_t)(__NVIC_PRIO_BITS) : (uint32_t)(7UL - PriorityGroupTmp);
  SubPriorityBits     = ((PriorityGroupTmp + (uint32_t)(__NVIC_PRIO_BITS)) < (uint32_t)7UL) ? (uint32_t)0UL : (uint32_t)((PriorityGroupTmp - 7UL) + (uint32_t)(__NVIC_PRIO_BITS));

  return (
 8002094:	4313      	orrs	r3, r2
           ((PreemptPriority & (uint32_t)((1UL << (PreemptPriorityBits)) - 1UL)) << SubPriorityBits) |
           ((SubPriority     & (uint32_t)((1UL << (SubPriorityBits    )) - 1UL)))
         );
}
 8002096:	4618      	mov	r0, r3
 8002098:	3724      	adds	r7, #36	; 0x24
 800209a:	46bd      	mov	sp, r7
 800209c:	f85d 7b04 	ldr.w	r7, [sp], #4
 80020a0:	4770      	bx	lr
 80020a2:	bf00      	nop

080020a4 <XMC_USIC_CH_SetInputSource>:
 * \par<b>Related APIs:</b><BR>
 * XMC_USIC_CH_EnableInputInversion(), XMC_USIC_CH_EnableInputDigitalFilter(), XMC_USIC_CH_EnableInputSync(),
 * XMC_USIC_CH_SetInputSamplingFreq()\n\n\n
 */
__STATIC_INLINE void XMC_USIC_CH_SetInputSource(XMC_USIC_CH_t *const channel, const XMC_USIC_CH_INPUT_t input, const uint8_t source)
{
 80020a4:	b480      	push	{r7}
 80020a6:	b083      	sub	sp, #12
 80020a8:	af00      	add	r7, sp, #0
 80020aa:	6078      	str	r0, [r7, #4]
 80020ac:	460b      	mov	r3, r1
 80020ae:	70fb      	strb	r3, [r7, #3]
 80020b0:	4613      	mov	r3, r2
 80020b2:	70bb      	strb	r3, [r7, #2]
  channel->DXCR[input] = (uint32_t)((channel->DXCR[input] & (uint32_t)(~USIC_CH_DXCR_DSEL_Msk)) |
 80020b4:	78f8      	ldrb	r0, [r7, #3]
 80020b6:	78fb      	ldrb	r3, [r7, #3]
 80020b8:	687a      	ldr	r2, [r7, #4]
 80020ba:	3306      	adds	r3, #6
 80020bc:	009b      	lsls	r3, r3, #2
 80020be:	4413      	add	r3, r2
 80020c0:	685b      	ldr	r3, [r3, #4]
 80020c2:	f023 0207 	bic.w	r2, r3, #7
                         ((uint32_t)source << USIC_CH_DXCR_DSEL_Pos));
 80020c6:	78bb      	ldrb	r3, [r7, #2]
 * XMC_USIC_CH_EnableInputInversion(), XMC_USIC_CH_EnableInputDigitalFilter(), XMC_USIC_CH_EnableInputSync(),
 * XMC_USIC_CH_SetInputSamplingFreq()\n\n\n
 */
__STATIC_INLINE void XMC_USIC_CH_SetInputSource(XMC_USIC_CH_t *const channel, const XMC_USIC_CH_INPUT_t input, const uint8_t source)
{
  channel->DXCR[input] = (uint32_t)((channel->DXCR[input] & (uint32_t)(~USIC_CH_DXCR_DSEL_Msk)) |
 80020c8:	431a      	orrs	r2, r3
 80020ca:	6879      	ldr	r1, [r7, #4]
 80020cc:	1d83      	adds	r3, r0, #6
 80020ce:	009b      	lsls	r3, r3, #2
 80020d0:	440b      	add	r3, r1
 80020d2:	605a      	str	r2, [r3, #4]
                         ((uint32_t)source << USIC_CH_DXCR_DSEL_Pos));
}
 80020d4:	370c      	adds	r7, #12
 80020d6:	46bd      	mov	sp, r7
 80020d8:	f85d 7b04 	ldr.w	r7, [sp], #4
 80020dc:	4770      	bx	lr
 80020de:	bf00      	nop

080020e0 <XMC_USIC_CH_SetWordLength>:
 *
 * \par<b>Related APIs:</b><BR>
 * XMC_USIC_CH_SetFrameLength()\n\n\n
 */
__STATIC_INLINE void XMC_USIC_CH_SetWordLength(XMC_USIC_CH_t *const channel, const uint8_t word_length)
{
 80020e0:	b480      	push	{r7}
 80020e2:	b083      	sub	sp, #12
 80020e4:	af00      	add	r7, sp, #0
 80020e6:	6078      	str	r0, [r7, #4]
 80020e8:	460b      	mov	r3, r1
 80020ea:	70fb      	strb	r3, [r7, #3]
  channel->SCTR = (uint32_t)(channel->SCTR & (~USIC_CH_SCTR_WLE_Msk)) |
 80020ec:	687b      	ldr	r3, [r7, #4]
 80020ee:	6b5b      	ldr	r3, [r3, #52]	; 0x34
 80020f0:	f023 6270 	bic.w	r2, r3, #251658240	; 0xf000000
                  (uint32_t)(((uint32_t)word_length - 1UL)  << USIC_CH_SCTR_WLE_Pos);
 80020f4:	78fb      	ldrb	r3, [r7, #3]
 80020f6:	3b01      	subs	r3, #1
 80020f8:	061b      	lsls	r3, r3, #24
 * \par<b>Related APIs:</b><BR>
 * XMC_USIC_CH_SetFrameLength()\n\n\n
 */
__STATIC_INLINE void XMC_USIC_CH_SetWordLength(XMC_USIC_CH_t *const channel, const uint8_t word_length)
{
  channel->SCTR = (uint32_t)(channel->SCTR & (~USIC_CH_SCTR_WLE_Msk)) |
 80020fa:	431a      	orrs	r2, r3
 80020fc:	687b      	ldr	r3, [r7, #4]
 80020fe:	635a      	str	r2, [r3, #52]	; 0x34
                  (uint32_t)(((uint32_t)word_length - 1UL)  << USIC_CH_SCTR_WLE_Pos);
}
 8002100:	370c      	adds	r7, #12
 8002102:	46bd      	mov	sp, r7
 8002104:	f85d 7b04 	ldr.w	r7, [sp], #4
 8002108:	4770      	bx	lr
 800210a:	bf00      	nop

0800210c <XMC_USIC_CH_SetFrameLength>:
 *
 * \par<b>Related APIs:</b><BR>
 * XMC_USIC_CH_SetWordLength(), XMC_USIC_CH_EnableFrameLengthControl() \n\n\n
 */
__STATIC_INLINE void XMC_USIC_CH_SetFrameLength(XMC_USIC_CH_t *const channel, const uint8_t frame_length)
{
 800210c:	b480      	push	{r7}
 800210e:	b083      	sub	sp, #12
 8002110:	af00      	add	r7, sp, #0
 8002112:	6078      	str	r0, [r7, #4]
 8002114:	460b      	mov	r3, r1
 8002116:	70fb      	strb	r3, [r7, #3]
  channel->SCTR = (uint32_t)(channel->SCTR & (~USIC_CH_SCTR_FLE_Msk)) |
 8002118:	687b      	ldr	r3, [r7, #4]
 800211a:	6b5b      	ldr	r3, [r3, #52]	; 0x34
 800211c:	f423 127c 	bic.w	r2, r3, #4128768	; 0x3f0000
                  (((uint32_t)frame_length - 0x1U)  << USIC_CH_SCTR_FLE_Pos);
 8002120:	78fb      	ldrb	r3, [r7, #3]
 8002122:	3b01      	subs	r3, #1
 8002124:	041b      	lsls	r3, r3, #16
 * \par<b>Related APIs:</b><BR>
 * XMC_USIC_CH_SetWordLength(), XMC_USIC_CH_EnableFrameLengthControl() \n\n\n
 */
__STATIC_INLINE void XMC_USIC_CH_SetFrameLength(XMC_USIC_CH_t *const channel, const uint8_t frame_length)
{
  channel->SCTR = (uint32_t)(channel->SCTR & (~USIC_CH_SCTR_FLE_Msk)) |
 8002126:	431a      	orrs	r2, r3
 8002128:	687b      	ldr	r3, [r7, #4]
 800212a:	635a      	str	r2, [r3, #52]	; 0x34
                  (((uint32_t)frame_length - 0x1U)  << USIC_CH_SCTR_FLE_Pos);
}
 800212c:	370c      	adds	r7, #12
 800212e:	46bd      	mov	sp, r7
 8002130:	f85d 7b04 	ldr.w	r7, [sp], #4
 8002134:	4770      	bx	lr
 8002136:	bf00      	nop

08002138 <XMC_USIC_CH_ConfigureShiftClockOutput>:
 * 
 */
__STATIC_INLINE void XMC_USIC_CH_ConfigureShiftClockOutput(XMC_USIC_CH_t *const channel,
                                                           const XMC_USIC_CH_BRG_SHIFT_CLOCK_PASSIVE_LEVEL_t passive_level,
                                                           const XMC_USIC_CH_BRG_SHIFT_CLOCK_OUTPUT_t clock_output)
{
 8002138:	b480      	push	{r7}
 800213a:	b085      	sub	sp, #20
 800213c:	af00      	add	r7, sp, #0
 800213e:	60f8      	str	r0, [r7, #12]
 8002140:	60b9      	str	r1, [r7, #8]
 8002142:	607a      	str	r2, [r7, #4]
  channel->BRG = (uint32_t)(channel->BRG & (~(USIC_CH_BRG_SCLKCFG_Msk |
 8002144:	68fb      	ldr	r3, [r7, #12]
 8002146:	695b      	ldr	r3, [r3, #20]
 8002148:	f023 4250 	bic.w	r2, r3, #3489660928	; 0xd0000000
                                             USIC_CH_BRG_SCLKOSEL_Msk))) |
                 (uint32_t)passive_level |
 800214c:	68bb      	ldr	r3, [r7, #8]
__STATIC_INLINE void XMC_USIC_CH_ConfigureShiftClockOutput(XMC_USIC_CH_t *const channel,
                                                           const XMC_USIC_CH_BRG_SHIFT_CLOCK_PASSIVE_LEVEL_t passive_level,
                                                           const XMC_USIC_CH_BRG_SHIFT_CLOCK_OUTPUT_t clock_output)
{
  channel->BRG = (uint32_t)(channel->BRG & (~(USIC_CH_BRG_SCLKCFG_Msk |
                                             USIC_CH_BRG_SCLKOSEL_Msk))) |
 800214e:	431a      	orrs	r2, r3
                 (uint32_t)passive_level |
 8002150:	687b      	ldr	r3, [r7, #4]
 8002152:	431a      	orrs	r2, r3
 */
__STATIC_INLINE void XMC_USIC_CH_ConfigureShiftClockOutput(XMC_USIC_CH_t *const channel,
                                                           const XMC_USIC_CH_BRG_SHIFT_CLOCK_PASSIVE_LEVEL_t passive_level,
                                                           const XMC_USIC_CH_BRG_SHIFT_CLOCK_OUTPUT_t clock_output)
{
  channel->BRG = (uint32_t)(channel->BRG & (~(USIC_CH_BRG_SCLKCFG_Msk |
 8002154:	68fb      	ldr	r3, [r7, #12]
 8002156:	615a      	str	r2, [r3, #20]
                                             USIC_CH_BRG_SCLKOSEL_Msk))) |
                 (uint32_t)passive_level |
                 (uint32_t)clock_output;
}
 8002158:	3714      	adds	r7, #20
 800215a:	46bd      	mov	sp, r7
 800215c:	f85d 7b04 	ldr.w	r7, [sp], #4
 8002160:	4770      	bx	lr
 8002162:	bf00      	nop

08002164 <XMC_USIC_CH_SetMode>:
 *
 * \par<b>Related APIs:</b><BR>
 * XMC_USIC_Enable(), XMC_USIC_CH_Enable() \n\n\n
 */
__STATIC_INLINE void XMC_USIC_CH_SetMode(XMC_USIC_CH_t *const channel, const XMC_USIC_CH_OPERATING_MODE_t mode)
{
 8002164:	b480      	push	{r7}
 8002166:	b083      	sub	sp, #12
 8002168:	af00      	add	r7, sp, #0
 800216a:	6078      	str	r0, [r7, #4]
 800216c:	460b      	mov	r3, r1
 800216e:	70fb      	strb	r3, [r7, #3]
  channel->CCR = (uint32_t)(channel->CCR & (~(USIC_CH_CCR_MODE_Msk))) | (uint32_t)mode;
 8002170:	687b      	ldr	r3, [r7, #4]
 8002172:	6c1b      	ldr	r3, [r3, #64]	; 0x40
 8002174:	f023 020f 	bic.w	r2, r3, #15
 8002178:	78fb      	ldrb	r3, [r7, #3]
 800217a:	431a      	orrs	r2, r3
 800217c:	687b      	ldr	r3, [r7, #4]
 800217e:	641a      	str	r2, [r3, #64]	; 0x40
}
 8002180:	370c      	adds	r7, #12
 8002182:	46bd      	mov	sp, r7
 8002184:	f85d 7b04 	ldr.w	r7, [sp], #4
 8002188:	4770      	bx	lr
 800218a:	bf00      	nop

0800218c <XMC_SPI_CH_Start>:
 *
 * \par<b>Related APIs:</b><BR>
 * XMC_SPI_CH_Init(), XMC_SPI_CH_Stop()
 */
__STATIC_INLINE void XMC_SPI_CH_Start(XMC_USIC_CH_t *const channel)
{
 800218c:	b580      	push	{r7, lr}
 800218e:	b082      	sub	sp, #8
 8002190:	af00      	add	r7, sp, #0
 8002192:	6078      	str	r0, [r7, #4]
  /* USIC channel in SPI mode */
  XMC_USIC_CH_SetMode(channel, XMC_USIC_CH_OPERATING_MODE_SPI);
 8002194:	6878      	ldr	r0, [r7, #4]
 8002196:	2101      	movs	r1, #1
 8002198:	f7ff ffe4 	bl	8002164 <XMC_USIC_CH_SetMode>
}
 800219c:	3708      	adds	r7, #8
 800219e:	46bd      	mov	sp, r7
 80021a0:	bd80      	pop	{r7, pc}
 80021a2:	bf00      	nop

080021a4 <XMC_SPI_CH_SetSlaveSelectDelay>:
 * This delay is dependent on the peripheral clock. The maximum possible value supported by this API
 * is 30 clock cycles.
 *
 */
__STATIC_INLINE void XMC_SPI_CH_SetSlaveSelectDelay(XMC_USIC_CH_t *const channel,uint32_t sclk_period)
{
 80021a4:	b480      	push	{r7}
 80021a6:	b083      	sub	sp, #12
 80021a8:	af00      	add	r7, sp, #0
 80021aa:	6078      	str	r0, [r7, #4]
 80021ac:	6039      	str	r1, [r7, #0]

  channel->BRG = (channel->BRG & ~(USIC_CH_BRG_DCTQ_Msk |
 80021ae:	687b      	ldr	r3, [r7, #4]
 80021b0:	695b      	ldr	r3, [r3, #20]
 80021b2:	f423 42fe 	bic.w	r2, r3, #32512	; 0x7f00
								   USIC_CH_BRG_PCTQ_Msk)) |
                 (((sclk_period - 1U) << USIC_CH_BRG_DCTQ_Pos) | (0x01U << USIC_CH_BRG_PCTQ_Pos));
 80021b6:	683b      	ldr	r3, [r7, #0]
 80021b8:	3b01      	subs	r3, #1
 80021ba:	029b      	lsls	r3, r3, #10
 */
__STATIC_INLINE void XMC_SPI_CH_SetSlaveSelectDelay(XMC_USIC_CH_t *const channel,uint32_t sclk_period)
{

  channel->BRG = (channel->BRG & ~(USIC_CH_BRG_DCTQ_Msk |
								   USIC_CH_BRG_PCTQ_Msk)) |
 80021bc:	4313      	orrs	r3, r2
 80021be:	f443 7280 	orr.w	r2, r3, #256	; 0x100
 *
 */
__STATIC_INLINE void XMC_SPI_CH_SetSlaveSelectDelay(XMC_USIC_CH_t *const channel,uint32_t sclk_period)
{

  channel->BRG = (channel->BRG & ~(USIC_CH_BRG_DCTQ_Msk |
 80021c2:	687b      	ldr	r3, [r7, #4]
 80021c4:	615a      	str	r2, [r3, #20]
								   USIC_CH_BRG_PCTQ_Msk)) |
                 (((sclk_period - 1U) << USIC_CH_BRG_DCTQ_Pos) | (0x01U << USIC_CH_BRG_PCTQ_Pos));
}
 80021c6:	370c      	adds	r7, #12
 80021c8:	46bd      	mov	sp, r7
 80021ca:	f85d 7b04 	ldr.w	r7, [sp], #4
 80021ce:	4770      	bx	lr

080021d0 <XMC_SPI_CH_ConfigureShiftClockOutput>:
 * period. These settings are applicable only in master mode.
 */
__STATIC_INLINE void XMC_SPI_CH_ConfigureShiftClockOutput(XMC_USIC_CH_t *const channel,
                                                          const XMC_SPI_CH_BRG_SHIFT_CLOCK_PASSIVE_LEVEL_t passive_level,
                                                          const XMC_SPI_CH_BRG_SHIFT_CLOCK_OUTPUT_t clock_output)
{
 80021d0:	b580      	push	{r7, lr}
 80021d2:	b084      	sub	sp, #16
 80021d4:	af00      	add	r7, sp, #0
 80021d6:	60f8      	str	r0, [r7, #12]
 80021d8:	60b9      	str	r1, [r7, #8]
 80021da:	607a      	str	r2, [r7, #4]
  XMC_USIC_CH_ConfigureShiftClockOutput(channel, (XMC_USIC_CH_BRG_SHIFT_CLOCK_PASSIVE_LEVEL_t)passive_level,
 80021dc:	68f8      	ldr	r0, [r7, #12]
 80021de:	68b9      	ldr	r1, [r7, #8]
 80021e0:	687a      	ldr	r2, [r7, #4]
 80021e2:	f7ff ffa9 	bl	8002138 <XMC_USIC_CH_ConfigureShiftClockOutput>
                                       (XMC_USIC_CH_BRG_SHIFT_CLOCK_OUTPUT_t)clock_output);
}
 80021e6:	3710      	adds	r7, #16
 80021e8:	46bd      	mov	sp, r7
 80021ea:	bd80      	pop	{r7, pc}

080021ec <XMC_SPI_CH_SetWordLength>:
 *
 * \par<b>Related APIs:</b><BR>
 * XMC_SPI_CH_SetFrameLength()
 */
__STATIC_INLINE void XMC_SPI_CH_SetWordLength(XMC_USIC_CH_t *const channel, const uint8_t word_length)
{
 80021ec:	b580      	push	{r7, lr}
 80021ee:	b082      	sub	sp, #8
 80021f0:	af00      	add	r7, sp, #0
 80021f2:	6078      	str	r0, [r7, #4]
 80021f4:	460b      	mov	r3, r1
 80021f6:	70fb      	strb	r3, [r7, #3]
  XMC_USIC_CH_SetWordLength(channel, word_length);
 80021f8:	78fb      	ldrb	r3, [r7, #3]
 80021fa:	6878      	ldr	r0, [r7, #4]
 80021fc:	4619      	mov	r1, r3
 80021fe:	f7ff ff6f 	bl	80020e0 <XMC_USIC_CH_SetWordLength>
}
 8002202:	3708      	adds	r7, #8
 8002204:	46bd      	mov	sp, r7
 8002206:	bd80      	pop	{r7, pc}

08002208 <XMC_SPI_CH_SetFrameLength>:
 *
 * \par<b>Related APIs:</b><BR>
 * XMC_USIC_CH_SetWordLength(), XMC_USIC_CH_EnableFrameLengthControl(), XMC_SPI_CH_DisableSlaveSelect()
 */
__STATIC_INLINE void XMC_SPI_CH_SetFrameLength(XMC_USIC_CH_t *const channel, const uint8_t frame_length)
{
 8002208:	b580      	push	{r7, lr}
 800220a:	b082      	sub	sp, #8
 800220c:	af00      	add	r7, sp, #0
 800220e:	6078      	str	r0, [r7, #4]
 8002210:	460b      	mov	r3, r1
 8002212:	70fb      	strb	r3, [r7, #3]
  XMC_USIC_CH_SetFrameLength(channel, frame_length);
 8002214:	78fb      	ldrb	r3, [r7, #3]
 8002216:	6878      	ldr	r0, [r7, #4]
 8002218:	4619      	mov	r1, r3
 800221a:	f7ff ff77 	bl	800210c <XMC_USIC_CH_SetFrameLength>
}
 800221e:	3708      	adds	r7, #8
 8002220:	46bd      	mov	sp, r7
 8002222:	bd80      	pop	{r7, pc}

08002224 <XMC_SPI_CH_SetInputSource>:
 * the SPI communication.
 */
__STATIC_INLINE void XMC_SPI_CH_SetInputSource(XMC_USIC_CH_t *const channel,
                                               const XMC_SPI_CH_INPUT_t input,
                                               const uint8_t source)
{
 8002224:	b580      	push	{r7, lr}
 8002226:	b082      	sub	sp, #8
 8002228:	af00      	add	r7, sp, #0
 800222a:	6078      	str	r0, [r7, #4]
 800222c:	460b      	mov	r3, r1
 800222e:	70fb      	strb	r3, [r7, #3]
 8002230:	4613      	mov	r3, r2
 8002232:	70bb      	strb	r3, [r7, #2]
  channel->DXCR[input] = (uint32_t)(channel->DXCR[input] & (~USIC_CH_DX0CR_DSEN_Msk)) | USIC_CH_DX0CR_INSW_Msk;
 8002234:	78f8      	ldrb	r0, [r7, #3]
 8002236:	78fb      	ldrb	r3, [r7, #3]
 8002238:	687a      	ldr	r2, [r7, #4]
 800223a:	3306      	adds	r3, #6
 800223c:	009b      	lsls	r3, r3, #2
 800223e:	4413      	add	r3, r2
 8002240:	685b      	ldr	r3, [r3, #4]
 8002242:	f023 0350 	bic.w	r3, r3, #80	; 0x50
 8002246:	f043 0210 	orr.w	r2, r3, #16
 800224a:	6879      	ldr	r1, [r7, #4]
 800224c:	1d83      	adds	r3, r0, #6
 800224e:	009b      	lsls	r3, r3, #2
 8002250:	440b      	add	r3, r1
 8002252:	605a      	str	r2, [r3, #4]
  XMC_USIC_CH_SetInputSource(channel, (XMC_USIC_CH_INPUT_t)input, source);
 8002254:	78fa      	ldrb	r2, [r7, #3]
 8002256:	78bb      	ldrb	r3, [r7, #2]
 8002258:	6878      	ldr	r0, [r7, #4]
 800225a:	4611      	mov	r1, r2
 800225c:	461a      	mov	r2, r3
 800225e:	f7ff ff21 	bl	80020a4 <XMC_USIC_CH_SetInputSource>
}
 8002262:	3708      	adds	r7, #8
 8002264:	46bd      	mov	sp, r7
 8002266:	bd80      	pop	{r7, pc}

08002268 <SPI_MASTER_0_lInit>:
 * @brief Configure the port registers and data input registers of SPI channel
 *
 * @param[in] handle Pointer to an object of SPI_MASTER configuration
 */
static SPI_MASTER_STATUS_t SPI_MASTER_0_lInit(void)
{
 8002268:	b580      	push	{r7, lr}
 800226a:	b082      	sub	sp, #8
 800226c:	af00      	add	r7, sp, #0
  SPI_MASTER_STATUS_t status;
  status = SPI_MASTER_STATUS_SUCCESS; 
 800226e:	2300      	movs	r3, #0
 8002270:	71fb      	strb	r3, [r7, #7]
  /* LLD initialization */
  XMC_SPI_CH_Init(XMC_SPI2_CH0, &SPI_MASTER_0_Channel_Config);
 8002272:	483d      	ldr	r0, [pc, #244]	; (8002368 <SPI_MASTER_0_lInit+0x100>)
 8002274:	493d      	ldr	r1, [pc, #244]	; (800236c <SPI_MASTER_0_lInit+0x104>)
 8002276:	f7fe fe87 	bl	8000f88 <XMC_SPI_CH_Init>
                             
  XMC_SPI_CH_SetWordLength(XMC_SPI2_CH0, (uint8_t)8);
 800227a:	483b      	ldr	r0, [pc, #236]	; (8002368 <SPI_MASTER_0_lInit+0x100>)
 800227c:	2108      	movs	r1, #8
 800227e:	f7ff ffb5 	bl	80021ec <XMC_SPI_CH_SetWordLength>

  XMC_SPI_CH_SetFrameLength(XMC_SPI2_CH0, (uint8_t)16);
 8002282:	4839      	ldr	r0, [pc, #228]	; (8002368 <SPI_MASTER_0_lInit+0x100>)
 8002284:	2110      	movs	r1, #16
 8002286:	f7ff ffbf 	bl	8002208 <XMC_SPI_CH_SetFrameLength>

  /* Configure the clock polarity and clock delay */
  XMC_SPI_CH_ConfigureShiftClockOutput(XMC_SPI2_CH0,
 800228a:	4837      	ldr	r0, [pc, #220]	; (8002368 <SPI_MASTER_0_lInit+0x100>)
 800228c:	2100      	movs	r1, #0
 800228e:	2200      	movs	r2, #0
 8002290:	f7ff ff9e 	bl	80021d0 <XMC_SPI_CH_ConfigureShiftClockOutput>
                                       XMC_SPI_CH_BRG_SHIFT_CLOCK_PASSIVE_LEVEL_0_DELAY_DISABLED,
                                       XMC_SPI_CH_BRG_SHIFT_CLOCK_OUTPUT_SCLK);
  /* Configure Leading/Trailing delay */
  XMC_SPI_CH_SetSlaveSelectDelay(XMC_SPI2_CH0, 2U);
 8002294:	4834      	ldr	r0, [pc, #208]	; (8002368 <SPI_MASTER_0_lInit+0x100>)
 8002296:	2102      	movs	r1, #2
 8002298:	f7ff ff84 	bl	80021a4 <XMC_SPI_CH_SetSlaveSelectDelay>

               
  /* Configure the input pin properties */
  XMC_GPIO_Init((XMC_GPIO_PORT_t *)PORT3_BASE, (uint8_t)7, &SPI_MASTER_0_MISO_Config.port_config);
 800229c:	4834      	ldr	r0, [pc, #208]	; (8002370 <SPI_MASTER_0_lInit+0x108>)
 800229e:	2107      	movs	r1, #7
 80022a0:	4a34      	ldr	r2, [pc, #208]	; (8002374 <SPI_MASTER_0_lInit+0x10c>)
 80022a2:	f7fe f8e5 	bl	8000470 <XMC_GPIO_Init>

  /* Configure the data input line selected */
  XMC_SPI_CH_SetInputSource(XMC_SPI2_CH0, XMC_SPI_CH_INPUT_DIN0, (uint8_t)SPI_MASTER_INPUT_C);
 80022a6:	4830      	ldr	r0, [pc, #192]	; (8002368 <SPI_MASTER_0_lInit+0x100>)
 80022a8:	2100      	movs	r1, #0
 80022aa:	2202      	movs	r2, #2
 80022ac:	f7ff ffba 	bl	8002224 <XMC_SPI_CH_SetInputSource>
  /* Start the SPI_Channel */
  XMC_SPI_CH_Start(XMC_SPI2_CH0);
 80022b0:	482d      	ldr	r0, [pc, #180]	; (8002368 <SPI_MASTER_0_lInit+0x100>)
 80022b2:	f7ff ff6b 	bl	800218c <XMC_SPI_CH_Start>

  /* Configure the output pin properties */
  XMC_GPIO_Init((XMC_GPIO_PORT_t *)PORT3_BASE, (uint8_t)8, &SPI_MASTER_0_MOSI_Config.port_config);
 80022b6:	482e      	ldr	r0, [pc, #184]	; (8002370 <SPI_MASTER_0_lInit+0x108>)
 80022b8:	2108      	movs	r1, #8
 80022ba:	4a2f      	ldr	r2, [pc, #188]	; (8002378 <SPI_MASTER_0_lInit+0x110>)
 80022bc:	f7fe f8d8 	bl	8000470 <XMC_GPIO_Init>
    
  /* Initialize SPI SCLK out pin */
  XMC_GPIO_Init((XMC_GPIO_PORT_t *)PORT3_BASE, (uint8_t)9, &SPI_MASTER_0_SCLKOUT_Config.port_config);
 80022c0:	482b      	ldr	r0, [pc, #172]	; (8002370 <SPI_MASTER_0_lInit+0x108>)
 80022c2:	2109      	movs	r1, #9
 80022c4:	4a2d      	ldr	r2, [pc, #180]	; (800237c <SPI_MASTER_0_lInit+0x114>)
 80022c6:	f7fe f8d3 	bl	8000470 <XMC_GPIO_Init>

  /* Configure the pin properties */
  XMC_GPIO_Init((XMC_GPIO_PORT_t *)PORT5_BASE, (uint8_t)6, &SPI_MASTER_0_SS_0_Config.port_config);
 80022ca:	482d      	ldr	r0, [pc, #180]	; (8002380 <SPI_MASTER_0_lInit+0x118>)
 80022cc:	2106      	movs	r1, #6
 80022ce:	4a2d      	ldr	r2, [pc, #180]	; (8002384 <SPI_MASTER_0_lInit+0x11c>)
 80022d0:	f7fe f8ce 	bl	8000470 <XMC_GPIO_Init>
  XMC_SPI_CH_EnableSlaveSelect(XMC_SPI2_CH0, XMC_SPI_CH_SLAVE_SELECT_3);
 80022d4:	4824      	ldr	r0, [pc, #144]	; (8002368 <SPI_MASTER_0_lInit+0x100>)
 80022d6:	f44f 2100 	mov.w	r1, #524288	; 0x80000
 80022da:	f7fe fe95 	bl	8001008 <XMC_SPI_CH_EnableSlaveSelect>

  XMC_USIC_CH_SetInterruptNodePointer(XMC_SPI2_CH0,
 80022de:	4822      	ldr	r0, [pc, #136]	; (8002368 <SPI_MASTER_0_lInit+0x100>)
 80022e0:	2110      	movs	r1, #16
 80022e2:	2200      	movs	r2, #0
 80022e4:	f7ff f88c 	bl	8001400 <XMC_USIC_CH_SetInterruptNodePointer>
                                      XMC_USIC_CH_INTERRUPT_NODE_POINTER_PROTOCOL,
                                      (uint32_t)SPI_MASTER_SR_ID_0);
            
  /* Configure transmit FIFO settings */
  XMC_USIC_CH_TXFIFO_Configure(XMC_SPI2_CH0,
 80022e8:	481f      	ldr	r0, [pc, #124]	; (8002368 <SPI_MASTER_0_lInit+0x100>)
 80022ea:	2110      	movs	r1, #16
 80022ec:	2204      	movs	r2, #4
 80022ee:	2301      	movs	r3, #1
 80022f0:	f7ff f812 	bl	8001318 <XMC_USIC_CH_TXFIFO_Configure>
                               (XMC_USIC_CH_FIFO_SIZE_t)XMC_USIC_CH_FIFO_SIZE_16WORDS,
                               1U);

  /* Configure the service interrupt nodes for standard transmit FIFO events */
               
  XMC_USIC_CH_TXFIFO_SetInterruptNodePointer(XMC_SPI2_CH0,
 80022f4:	481c      	ldr	r0, [pc, #112]	; (8002368 <SPI_MASTER_0_lInit+0x100>)
 80022f6:	2110      	movs	r1, #16
 80022f8:	2203      	movs	r2, #3
 80022fa:	f7ff f89d 	bl	8001438 <XMC_USIC_CH_TXFIFO_SetInterruptNodePointer>
                                             XMC_USIC_CH_TXFIFO_INTERRUPT_NODE_POINTER_STANDARD,
                                             (uint32_t)SPI_MASTER_SR_ID_3);
  /* Configure receive FIFO settings */
  XMC_USIC_CH_RXFIFO_Configure(XMC_SPI2_CH0,
 80022fe:	481a      	ldr	r0, [pc, #104]	; (8002368 <SPI_MASTER_0_lInit+0x100>)
 8002300:	2100      	movs	r1, #0
 8002302:	2204      	movs	r2, #4
 8002304:	2300      	movs	r3, #0
 8002306:	f7ff f82f 	bl	8001368 <XMC_USIC_CH_RXFIFO_Configure>
                               0U,
                               (XMC_USIC_CH_FIFO_SIZE_t)XMC_USIC_CH_FIFO_SIZE_16WORDS,
                               0U);
             
  XMC_USIC_CH_RXFIFO_SetInterruptNodePointer(XMC_SPI2_CH0,
 800230a:	4817      	ldr	r0, [pc, #92]	; (8002368 <SPI_MASTER_0_lInit+0x100>)
 800230c:	2110      	movs	r1, #16
 800230e:	2202      	movs	r2, #2
 8002310:	f7ff f8b0 	bl	8001474 <XMC_USIC_CH_RXFIFO_SetInterruptNodePointer>
                                             XMC_USIC_CH_RXFIFO_INTERRUPT_NODE_POINTER_STANDARD,
                                             (uint32_t)SPI_MASTER_SR_ID_2);
  XMC_USIC_CH_RXFIFO_SetInterruptNodePointer(XMC_SPI2_CH0,
 8002314:	4814      	ldr	r0, [pc, #80]	; (8002368 <SPI_MASTER_0_lInit+0x100>)
 8002316:	2113      	movs	r1, #19
 8002318:	2202      	movs	r2, #2
 800231a:	f7ff f8ab 	bl	8001474 <XMC_USIC_CH_RXFIFO_SetInterruptNodePointer>
                                             XMC_USIC_CH_RXFIFO_INTERRUPT_NODE_POINTER_ALTERNATE,
                                             (uint32_t)SPI_MASTER_SR_ID_2);
  /* Set priority of the Transmit interrupt */
  NVIC_SetPriority((IRQn_Type)99, NVIC_EncodePriority(NVIC_GetPriorityGrouping(), 63U, 0U));
 800231e:	f7ff fe3b 	bl	8001f98 <__NVIC_GetPriorityGrouping>
 8002322:	4603      	mov	r3, r0
 8002324:	4618      	mov	r0, r3
 8002326:	213f      	movs	r1, #63	; 0x3f
 8002328:	2200      	movs	r2, #0
 800232a:	f7ff fe89 	bl	8002040 <NVIC_EncodePriority>
 800232e:	4603      	mov	r3, r0
 8002330:	2063      	movs	r0, #99	; 0x63
 8002332:	4619      	mov	r1, r3
 8002334:	f7ff fe5a 	bl	8001fec <__NVIC_SetPriority>
     
  /* Enable Transmit interrupt */
  NVIC_EnableIRQ((IRQn_Type)99);
 8002338:	2063      	movs	r0, #99	; 0x63
 800233a:	f7ff fe3b 	bl	8001fb4 <__NVIC_EnableIRQ>
             
  /* Set priority of the Receive interrupt */
  NVIC_SetPriority((IRQn_Type)98, NVIC_EncodePriority(NVIC_GetPriorityGrouping(), 62U, 0U));
 800233e:	f7ff fe2b 	bl	8001f98 <__NVIC_GetPriorityGrouping>
 8002342:	4603      	mov	r3, r0
 8002344:	4618      	mov	r0, r3
 8002346:	213e      	movs	r1, #62	; 0x3e
 8002348:	2200      	movs	r2, #0
 800234a:	f7ff fe79 	bl	8002040 <NVIC_EncodePriority>
 800234e:	4603      	mov	r3, r0
 8002350:	2062      	movs	r0, #98	; 0x62
 8002352:	4619      	mov	r1, r3
 8002354:	f7ff fe4a 	bl	8001fec <__NVIC_SetPriority>
    
  /* Enable Receive interrupt */
  NVIC_EnableIRQ((IRQn_Type)98);
 8002358:	2062      	movs	r0, #98	; 0x62
 800235a:	f7ff fe2b 	bl	8001fb4 <__NVIC_EnableIRQ>
    
  return status;
 800235e:	79fb      	ldrb	r3, [r7, #7]
}
 8002360:	4618      	mov	r0, r3
 8002362:	3708      	adds	r7, #8
 8002364:	46bd      	mov	sp, r7
 8002366:	bd80      	pop	{r7, pc}
 8002368:	48024000 	.word	0x48024000
 800236c:	1ffe8814 	.word	0x1ffe8814
 8002370:	48028300 	.word	0x48028300
 8002374:	1ffe88bc 	.word	0x1ffe88bc
 8002378:	1ffe8800 	.word	0x1ffe8800
 800237c:	08005834 	.word	0x08005834
 8002380:	48028500 	.word	0x48028500
 8002384:	08005850 	.word	0x08005850

08002388 <USIC2_3_IRQHandler>:
/*Transmit ISR*/
void SPI_MASTER_0_tx_handler()
{
 8002388:	b580      	push	{r7, lr}
 800238a:	af00      	add	r7, sp, #0
  SPI_MASTER_lTransmitHandler(&SPI_MASTER_0);
 800238c:	4801      	ldr	r0, [pc, #4]	; (8002394 <USIC2_3_IRQHandler+0xc>)
 800238e:	f7ff fb4f 	bl	8001a30 <SPI_MASTER_lTransmitHandler>
}
 8002392:	bd80      	pop	{r7, pc}
 8002394:	1ffe8844 	.word	0x1ffe8844

08002398 <USIC2_2_IRQHandler>:

/*Receive ISR*/
void SPI_MASTER_0_rx_handler()
{
 8002398:	b580      	push	{r7, lr}
 800239a:	af00      	add	r7, sp, #0
  SPI_MASTER_lReceiveHandler(&SPI_MASTER_0);
 800239c:	4801      	ldr	r0, [pc, #4]	; (80023a4 <USIC2_2_IRQHandler+0xc>)
 800239e:	f7ff fc81 	bl	8001ca4 <SPI_MASTER_lReceiveHandler>
}
 80023a2:	bd80      	pop	{r7, pc}
 80023a4:	1ffe8844 	.word	0x1ffe8844

080023a8 <__NVIC_GetPriorityGrouping>:
  \brief   Get Priority Grouping
  \details Reads the priority grouping field from the NVIC Interrupt Controller.
  \return                Priority grouping field (SCB->AIRCR [10:8] PRIGROUP field).
 */
__STATIC_INLINE uint32_t __NVIC_GetPriorityGrouping(void)
{
 80023a8:	b480      	push	{r7}
 80023aa:	af00      	add	r7, sp, #0
  return ((uint32_t)((SCB->AIRCR & SCB_AIRCR_PRIGROUP_Msk) >> SCB_AIRCR_PRIGROUP_Pos));
 80023ac:	4b04      	ldr	r3, [pc, #16]	; (80023c0 <__NVIC_GetPriorityGrouping+0x18>)
 80023ae:	68db      	ldr	r3, [r3, #12]
 80023b0:	f403 63e0 	and.w	r3, r3, #1792	; 0x700
 80023b4:	0a1b      	lsrs	r3, r3, #8
}
 80023b6:	4618      	mov	r0, r3
 80023b8:	46bd      	mov	sp, r7
 80023ba:	f85d 7b04 	ldr.w	r7, [sp], #4
 80023be:	4770      	bx	lr
 80023c0:	e000ed00 	.word	0xe000ed00

080023c4 <__NVIC_EnableIRQ>:
  \details Enables a device specific interrupt in the NVIC interrupt controller.
  \param [in]      IRQn  Device specific interrupt number.
  \note    IRQn must not be negative.
 */
__STATIC_INLINE void __NVIC_EnableIRQ(IRQn_Type IRQn)
{
 80023c4:	b480      	push	{r7}
 80023c6:	b083      	sub	sp, #12
 80023c8:	af00      	add	r7, sp, #0
 80023ca:	4603      	mov	r3, r0
 80023cc:	71fb      	strb	r3, [r7, #7]
  if ((int32_t)(IRQn) >= 0)
 80023ce:	f997 3007 	ldrsb.w	r3, [r7, #7]
 80023d2:	2b00      	cmp	r3, #0
 80023d4:	db0b      	blt.n	80023ee <__NVIC_EnableIRQ+0x2a>
  {
    __COMPILER_BARRIER();
    NVIC->ISER[(((uint32_t)IRQn) >> 5UL)] = (uint32_t)(1UL << (((uint32_t)IRQn) & 0x1FUL));
 80023d6:	4908      	ldr	r1, [pc, #32]	; (80023f8 <__NVIC_EnableIRQ+0x34>)
 80023d8:	f997 3007 	ldrsb.w	r3, [r7, #7]
 80023dc:	095b      	lsrs	r3, r3, #5
 80023de:	79fa      	ldrb	r2, [r7, #7]
 80023e0:	f002 021f 	and.w	r2, r2, #31
 80023e4:	2001      	movs	r0, #1
 80023e6:	fa00 f202 	lsl.w	r2, r0, r2
 80023ea:	f841 2023 	str.w	r2, [r1, r3, lsl #2]
    __COMPILER_BARRIER();
  }
}
 80023ee:	370c      	adds	r7, #12
 80023f0:	46bd      	mov	sp, r7
 80023f2:	f85d 7b04 	ldr.w	r7, [sp], #4
 80023f6:	4770      	bx	lr
 80023f8:	e000e100 	.word	0xe000e100

080023fc <__NVIC_ClearPendingIRQ>:
  \details Clears the pending bit of a device specific interrupt in the NVIC pending register.
  \param [in]      IRQn  Device specific interrupt number.
  \note    IRQn must not be negative.
 */
__STATIC_INLINE void __NVIC_ClearPendingIRQ(IRQn_Type IRQn)
{
 80023fc:	b480      	push	{r7}
 80023fe:	b083      	sub	sp, #12
 8002400:	af00      	add	r7, sp, #0
 8002402:	4603      	mov	r3, r0
 8002404:	71fb      	strb	r3, [r7, #7]
  if ((int32_t)(IRQn) >= 0)
 8002406:	f997 3007 	ldrsb.w	r3, [r7, #7]
 800240a:	2b00      	cmp	r3, #0
 800240c:	db0c      	blt.n	8002428 <__NVIC_ClearPendingIRQ+0x2c>
  {
    NVIC->ICPR[(((uint32_t)IRQn) >> 5UL)] = (uint32_t)(1UL << (((uint32_t)IRQn) & 0x1FUL));
 800240e:	4909      	ldr	r1, [pc, #36]	; (8002434 <__NVIC_ClearPendingIRQ+0x38>)
 8002410:	f997 3007 	ldrsb.w	r3, [r7, #7]
 8002414:	095b      	lsrs	r3, r3, #5
 8002416:	79fa      	ldrb	r2, [r7, #7]
 8002418:	f002 021f 	and.w	r2, r2, #31
 800241c:	2001      	movs	r0, #1
 800241e:	fa00 f202 	lsl.w	r2, r0, r2
 8002422:	3360      	adds	r3, #96	; 0x60
 8002424:	f841 2023 	str.w	r2, [r1, r3, lsl #2]
  }
}
 8002428:	370c      	adds	r7, #12
 800242a:	46bd      	mov	sp, r7
 800242c:	f85d 7b04 	ldr.w	r7, [sp], #4
 8002430:	4770      	bx	lr
 8002432:	bf00      	nop
 8002434:	e000e100 	.word	0xe000e100

08002438 <__NVIC_SetPriority>:
  \param [in]      IRQn  Interrupt number.
  \param [in]  priority  Priority to set.
  \note    The priority cannot be set for every processor exception.
 */
__STATIC_INLINE void __NVIC_SetPriority(IRQn_Type IRQn, uint32_t priority)
{
 8002438:	b480      	push	{r7}
 800243a:	b083      	sub	sp, #12
 800243c:	af00      	add	r7, sp, #0
 800243e:	4603      	mov	r3, r0
 8002440:	6039      	str	r1, [r7, #0]
 8002442:	71fb      	strb	r3, [r7, #7]
  if ((int32_t)(IRQn) >= 0)
 8002444:	f997 3007 	ldrsb.w	r3, [r7, #7]
 8002448:	2b00      	cmp	r3, #0
 800244a:	db0a      	blt.n	8002462 <__NVIC_SetPriority+0x2a>
  {
    NVIC->IP[((uint32_t)IRQn)]               = (uint8_t)((priority << (8U - __NVIC_PRIO_BITS)) & (uint32_t)0xFFUL);
 800244c:	490d      	ldr	r1, [pc, #52]	; (8002484 <__NVIC_SetPriority+0x4c>)
 800244e:	f997 3007 	ldrsb.w	r3, [r7, #7]
 8002452:	683a      	ldr	r2, [r7, #0]
 8002454:	b2d2      	uxtb	r2, r2
 8002456:	0092      	lsls	r2, r2, #2
 8002458:	b2d2      	uxtb	r2, r2
 800245a:	440b      	add	r3, r1
 800245c:	f883 2300 	strb.w	r2, [r3, #768]	; 0x300
 8002460:	e00a      	b.n	8002478 <__NVIC_SetPriority+0x40>
  }
  else
  {
    SCB->SHP[(((uint32_t)IRQn) & 0xFUL)-4UL] = (uint8_t)((priority << (8U - __NVIC_PRIO_BITS)) & (uint32_t)0xFFUL);
 8002462:	4909      	ldr	r1, [pc, #36]	; (8002488 <__NVIC_SetPriority+0x50>)
 8002464:	79fb      	ldrb	r3, [r7, #7]
 8002466:	f003 030f 	and.w	r3, r3, #15
 800246a:	3b04      	subs	r3, #4
 800246c:	683a      	ldr	r2, [r7, #0]
 800246e:	b2d2      	uxtb	r2, r2
 8002470:	0092      	lsls	r2, r2, #2
 8002472:	b2d2      	uxtb	r2, r2
 8002474:	440b      	add	r3, r1
 8002476:	761a      	strb	r2, [r3, #24]
  }
}
 8002478:	370c      	adds	r7, #12
 800247a:	46bd      	mov	sp, r7
 800247c:	f85d 7b04 	ldr.w	r7, [sp], #4
 8002480:	4770      	bx	lr
 8002482:	bf00      	nop
 8002484:	e000e100 	.word	0xe000e100
 8002488:	e000ed00 	.word	0xe000ed00

0800248c <NVIC_EncodePriority>:
  \param [in]   PreemptPriority  Preemptive priority value (starting from 0).
  \param [in]       SubPriority  Subpriority value (starting from 0).
  \return                        Encoded priority. Value can be used in the function \ref NVIC_SetPriority().
 */
__STATIC_INLINE uint32_t NVIC_EncodePriority (uint32_t PriorityGroup, uint32_t PreemptPriority, uint32_t SubPriority)
{
 800248c:	b480      	push	{r7}
 800248e:	b089      	sub	sp, #36	; 0x24
 8002490:	af00      	add	r7, sp, #0
 8002492:	60f8      	str	r0, [r7, #12]
 8002494:	60b9      	str	r1, [r7, #8]
 8002496:	607a      	str	r2, [r7, #4]
  uint32_t PriorityGroupTmp = (PriorityGroup & (uint32_t)0x07UL);   /* only values 0..7 are used          */
 8002498:	68fb      	ldr	r3, [r7, #12]
 800249a:	f003 0307 	and.w	r3, r3, #7
 800249e:	61fb      	str	r3, [r7, #28]
  uint32_t PreemptPriorityBits;
  uint32_t SubPriorityBits;

  PreemptPriorityBits = ((7UL - PriorityGroupTmp) > (uint32_t)(__NVIC_PRIO_BITS)) ? (uint32_t)(__NVIC_PRIO_BITS) : (uint32_t)(7UL - PriorityGroupTmp);
 80024a0:	69fb      	ldr	r3, [r7, #28]
 80024a2:	f1c3 0307 	rsb	r3, r3, #7
 80024a6:	2b06      	cmp	r3, #6
 80024a8:	bf28      	it	cs
 80024aa:	2306      	movcs	r3, #6
 80024ac:	61bb      	str	r3, [r7, #24]
  SubPriorityBits     = ((PriorityGroupTmp + (uint32_t)(__NVIC_PRIO_BITS)) < (uint32_t)7UL) ? (uint32_t)0UL : (uint32_t)((PriorityGroupTmp - 7UL) + (uint32_t)(__NVIC_PRIO_BITS));
 80024ae:	69fb      	ldr	r3, [r7, #28]
 80024b0:	3306      	adds	r3, #6
 80024b2:	2b06      	cmp	r3, #6
 80024b4:	d902      	bls.n	80024bc <NVIC_EncodePriority+0x30>
 80024b6:	69fb      	ldr	r3, [r7, #28]
 80024b8:	3b01      	subs	r3, #1
 80024ba:	e000      	b.n	80024be <NVIC_EncodePriority+0x32>
 80024bc:	2300      	movs	r3, #0
 80024be:	617b      	str	r3, [r7, #20]

  return (
           ((PreemptPriority & (uint32_t)((1UL << (PreemptPriorityBits)) - 1UL)) << SubPriorityBits) |
 80024c0:	69bb      	ldr	r3, [r7, #24]
 80024c2:	2201      	movs	r2, #1
 80024c4:	fa02 f303 	lsl.w	r3, r2, r3
 80024c8:	1e5a      	subs	r2, r3, #1
 80024ca:	68bb      	ldr	r3, [r7, #8]
 80024cc:	401a      	ands	r2, r3
 80024ce:	697b      	ldr	r3, [r7, #20]
 80024d0:	409a      	lsls	r2, r3
           ((SubPriority     & (uint32_t)((1UL << (SubPriorityBits    )) - 1UL)))
 80024d2:	697b      	ldr	r3, [r7, #20]
 80024d4:	2101      	movs	r1, #1
 80024d6:	fa01 f303 	lsl.w	r3, r1, r3
 80024da:	1e59      	subs	r1, r3, #1
 80024dc:	687b      	ldr	r3, [r7, #4]
 80024de:	400b      	ands	r3, r1
  uint32_t SubPriorityBits;

  PreemptPriorityBits = ((7UL - PriorityGroupTmp) > (uint32_t)(__NVIC_PRIO_BITS)) ? (uint32_t)(__NVIC_PRIO_BITS) : (uint32_t)(7UL - PriorityGroupTmp);
  SubPriorityBits     = ((PriorityGroupTmp + (uint32_t)(__NVIC_PRIO_BITS)) < (uint32_t)7UL) ? (uint32_t)0UL : (uint32_t)((PriorityGroupTmp - 7UL) + (uint32_t)(__NVIC_PRIO_BITS));

  return (
 80024e0:	4313      	orrs	r3, r2
           ((PreemptPriority & (uint32_t)((1UL << (PreemptPriorityBits)) - 1UL)) << SubPriorityBits) |
           ((SubPriority     & (uint32_t)((1UL << (SubPriorityBits    )) - 1UL)))
         );
}
 80024e2:	4618      	mov	r0, r3
 80024e4:	3724      	adds	r7, #36	; 0x24
 80024e6:	46bd      	mov	sp, r7
 80024e8:	f85d 7b04 	ldr.w	r7, [sp], #4
 80024ec:	4770      	bx	lr
 80024ee:	bf00      	nop

080024f0 <PIN_INTERRUPT_Init>:
/*
 * API to initialize the PIN_INTERRUPT APP ERU Event Trigger Logic, Output Gating Unit Hardware initialization
 * and NVIC node configuration.
 */
PIN_INTERRUPT_STATUS_t PIN_INTERRUPT_Init(const PIN_INTERRUPT_t *const handle)
{
 80024f0:	b590      	push	{r4, r7, lr}
 80024f2:	b083      	sub	sp, #12
 80024f4:	af00      	add	r7, sp, #0
 80024f6:	6078      	str	r0, [r7, #4]
  XMC_ASSERT("PIN_INTERRUPT_Init: PIN_INTERRUPT APP handle function pointer uninitialized", (handle != NULL));

  /* Initializes input pin characteristics */
  XMC_GPIO_Init(handle->port, handle->pin, &handle->gpio_config);
 80024f8:	687b      	ldr	r3, [r7, #4]
 80024fa:	6859      	ldr	r1, [r3, #4]
 80024fc:	687b      	ldr	r3, [r7, #4]
 80024fe:	f893 2021 	ldrb.w	r2, [r3, #33]	; 0x21
 8002502:	687b      	ldr	r3, [r7, #4]
 8002504:	3308      	adds	r3, #8
 8002506:	4608      	mov	r0, r1
 8002508:	4611      	mov	r1, r2
 800250a:	461a      	mov	r2, r3
 800250c:	f7fd ffb0 	bl	8000470 <XMC_GPIO_Init>
  /* ERU Event Trigger Logic Hardware initialization based on UI */
  XMC_ERU_ETL_Init(handle->eru, handle->etl, &handle->etl_config);
 8002510:	687b      	ldr	r3, [r7, #4]
 8002512:	6819      	ldr	r1, [r3, #0]
 8002514:	687b      	ldr	r3, [r7, #4]
 8002516:	7fda      	ldrb	r2, [r3, #31]
 8002518:	687b      	ldr	r3, [r7, #4]
 800251a:	3314      	adds	r3, #20
 800251c:	4608      	mov	r0, r1
 800251e:	4611      	mov	r1, r2
 8002520:	461a      	mov	r2, r3
 8002522:	f7fe fccb 	bl	8000ebc <XMC_ERU_ETL_Init>
  /* OGU is configured to generate event on configured trigger edge */
  XMC_ERU_OGU_SetServiceRequestMode(handle->eru, handle->ogu, XMC_ERU_OGU_SERVICE_REQUEST_ON_TRIGGER);
 8002526:	687b      	ldr	r3, [r7, #4]
 8002528:	681a      	ldr	r2, [r3, #0]
 800252a:	687b      	ldr	r3, [r7, #4]
 800252c:	f893 3020 	ldrb.w	r3, [r3, #32]
 8002530:	4610      	mov	r0, r2
 8002532:	4619      	mov	r1, r3
 8002534:	2201      	movs	r2, #1
 8002536:	f7fe fce7 	bl	8000f08 <XMC_ERU_OGU_SetServiceRequestMode>
#if (UC_FAMILY == XMC1)
  /* Configure NVIC node and priority */
  NVIC_SetPriority((IRQn_Type)handle->IRQn, handle->irq_priority);
#else
  /* Configure NVIC node, priority and subpriority */
  NVIC_SetPriority((IRQn_Type)handle->IRQn, NVIC_EncodePriority(NVIC_GetPriorityGrouping(),
 800253a:	687b      	ldr	r3, [r7, #4]
 800253c:	7f1c      	ldrb	r4, [r3, #28]
 800253e:	f7ff ff33 	bl	80023a8 <__NVIC_GetPriorityGrouping>
 8002542:	4601      	mov	r1, r0
                    handle->irq_priority, handle->irq_subpriority));
 8002544:	687b      	ldr	r3, [r7, #4]
 8002546:	7f5b      	ldrb	r3, [r3, #29]
#if (UC_FAMILY == XMC1)
  /* Configure NVIC node and priority */
  NVIC_SetPriority((IRQn_Type)handle->IRQn, handle->irq_priority);
#else
  /* Configure NVIC node, priority and subpriority */
  NVIC_SetPriority((IRQn_Type)handle->IRQn, NVIC_EncodePriority(NVIC_GetPriorityGrouping(),
 8002548:	461a      	mov	r2, r3
                    handle->irq_priority, handle->irq_subpriority));
 800254a:	687b      	ldr	r3, [r7, #4]
 800254c:	7f9b      	ldrb	r3, [r3, #30]
#if (UC_FAMILY == XMC1)
  /* Configure NVIC node and priority */
  NVIC_SetPriority((IRQn_Type)handle->IRQn, handle->irq_priority);
#else
  /* Configure NVIC node, priority and subpriority */
  NVIC_SetPriority((IRQn_Type)handle->IRQn, NVIC_EncodePriority(NVIC_GetPriorityGrouping(),
 800254e:	4608      	mov	r0, r1
 8002550:	4611      	mov	r1, r2
 8002552:	461a      	mov	r2, r3
 8002554:	f7ff ff9a 	bl	800248c <NVIC_EncodePriority>
 8002558:	4602      	mov	r2, r0
 800255a:	b263      	sxtb	r3, r4
 800255c:	4618      	mov	r0, r3
 800255e:	4611      	mov	r1, r2
 8002560:	f7ff ff6a 	bl	8002438 <__NVIC_SetPriority>
                    handle->irq_priority, handle->irq_subpriority));
#endif
#if (UC_SERIES == XMC14)
  XMC_SCU_SetInterruptControl((IRQn_Type)handle->IRQn, (XMC_SCU_IRQCTRL_t)handle->irqctrl);
#endif
  if (true == handle->enable_at_init)
 8002564:	687b      	ldr	r3, [r7, #4]
 8002566:	f893 3022 	ldrb.w	r3, [r3, #34]	; 0x22
 800256a:	2b00      	cmp	r3, #0
 800256c:	d00b      	beq.n	8002586 <PIN_INTERRUPT_Init+0x96>
  {
    /* Clear pending interrupt before enabling it */
    NVIC_ClearPendingIRQ((IRQn_Type)handle->IRQn);
 800256e:	687b      	ldr	r3, [r7, #4]
 8002570:	7f1b      	ldrb	r3, [r3, #28]
 8002572:	b25b      	sxtb	r3, r3
 8002574:	4618      	mov	r0, r3
 8002576:	f7ff ff41 	bl	80023fc <__NVIC_ClearPendingIRQ>
    /* Enable NVIC node */
    NVIC_EnableIRQ((IRQn_Type)handle->IRQn);
 800257a:	687b      	ldr	r3, [r7, #4]
 800257c:	7f1b      	ldrb	r3, [r3, #28]
 800257e:	b25b      	sxtb	r3, r3
 8002580:	4618      	mov	r0, r3
 8002582:	f7ff ff1f 	bl	80023c4 <__NVIC_EnableIRQ>
  }
  return (PIN_INTERRUPT_STATUS_SUCCESS);
 8002586:	2300      	movs	r3, #0
}
 8002588:	4618      	mov	r0, r3
 800258a:	370c      	adds	r7, #12
 800258c:	46bd      	mov	sp, r7
 800258e:	bd90      	pop	{r4, r7, pc}

08002590 <pxPortInitialiseStack>:

/*
 * See header file for description.
 */
StackType_t *pxPortInitialiseStack( StackType_t *pxTopOfStack, TaskFunction_t pxCode, void *pvParameters )
{
 8002590:	b480      	push	{r7}
 8002592:	b085      	sub	sp, #20
 8002594:	af00      	add	r7, sp, #0
 8002596:	60f8      	str	r0, [r7, #12]
 8002598:	60b9      	str	r1, [r7, #8]
 800259a:	607a      	str	r2, [r7, #4]
	/* Simulate the stack frame as it would be created by a context switch
	interrupt. */

	/* Offset added to account for the way the MCU uses the stack on entry/exit
	of interrupts, and to ensure alignment. */
	pxTopOfStack--;
 800259c:	68fb      	ldr	r3, [r7, #12]
 800259e:	3b04      	subs	r3, #4
 80025a0:	60fb      	str	r3, [r7, #12]

	*pxTopOfStack = portINITIAL_XPSR;	/* xPSR */
 80025a2:	68fb      	ldr	r3, [r7, #12]
 80025a4:	f04f 7280 	mov.w	r2, #16777216	; 0x1000000
 80025a8:	601a      	str	r2, [r3, #0]
	pxTopOfStack--;
 80025aa:	68fb      	ldr	r3, [r7, #12]
 80025ac:	3b04      	subs	r3, #4
 80025ae:	60fb      	str	r3, [r7, #12]
	*pxTopOfStack = ( ( StackType_t ) pxCode ) & portSTART_ADDRESS_MASK;	/* PC */
 80025b0:	68bb      	ldr	r3, [r7, #8]
 80025b2:	f023 0201 	bic.w	r2, r3, #1
 80025b6:	68fb      	ldr	r3, [r7, #12]
 80025b8:	601a      	str	r2, [r3, #0]
	pxTopOfStack--;
 80025ba:	68fb      	ldr	r3, [r7, #12]
 80025bc:	3b04      	subs	r3, #4
 80025be:	60fb      	str	r3, [r7, #12]
	*pxTopOfStack = ( StackType_t ) portTASK_RETURN_ADDRESS;	/* LR */
 80025c0:	4a0c      	ldr	r2, [pc, #48]	; (80025f4 <pxPortInitialiseStack+0x64>)
 80025c2:	68fb      	ldr	r3, [r7, #12]
 80025c4:	601a      	str	r2, [r3, #0]

	/* Save code space by skipping register initialisation. */
	pxTopOfStack -= 5;	/* R12, R3, R2 and R1. */
 80025c6:	68fb      	ldr	r3, [r7, #12]
 80025c8:	3b14      	subs	r3, #20
 80025ca:	60fb      	str	r3, [r7, #12]
	*pxTopOfStack = ( StackType_t ) pvParameters;	/* R0 */
 80025cc:	687a      	ldr	r2, [r7, #4]
 80025ce:	68fb      	ldr	r3, [r7, #12]
 80025d0:	601a      	str	r2, [r3, #0]

	/* A save method is being used that requires each task to maintain its
	own exec return value. */
	pxTopOfStack--;
 80025d2:	68fb      	ldr	r3, [r7, #12]
 80025d4:	3b04      	subs	r3, #4
 80025d6:	60fb      	str	r3, [r7, #12]
	*pxTopOfStack = portINITIAL_EXC_RETURN;
 80025d8:	68fb      	ldr	r3, [r7, #12]
 80025da:	f06f 0202 	mvn.w	r2, #2
 80025de:	601a      	str	r2, [r3, #0]

	pxTopOfStack -= 8;	/* R11, R10, R9, R8, R7, R6, R5 and R4. */
 80025e0:	68fb      	ldr	r3, [r7, #12]
 80025e2:	3b20      	subs	r3, #32
 80025e4:	60fb      	str	r3, [r7, #12]

	return pxTopOfStack;
 80025e6:	68fb      	ldr	r3, [r7, #12]
}
 80025e8:	4618      	mov	r0, r3
 80025ea:	3714      	adds	r7, #20
 80025ec:	46bd      	mov	sp, r7
 80025ee:	f85d 7b04 	ldr.w	r7, [sp], #4
 80025f2:	4770      	bx	lr
 80025f4:	080025f9 	.word	0x080025f9

080025f8 <prvTaskExitError>:
/*-----------------------------------------------------------*/

static void prvTaskExitError( void )
{
 80025f8:	b480      	push	{r7}
 80025fa:	b085      	sub	sp, #20
 80025fc:	af00      	add	r7, sp, #0
volatile uint32_t ulDummy = 0;
 80025fe:	2300      	movs	r3, #0
 8002600:	607b      	str	r3, [r7, #4]
	its caller as there is nothing to return to.  If a task wants to exit it
	should instead call vTaskDelete( NULL ).

	Artificially force an assert() to be triggered if configASSERT() is
	defined, then stop here so application writers can catch the error. */
	configASSERT( uxCriticalNesting == ~0UL );
 8002602:	4b10      	ldr	r3, [pc, #64]	; (8002644 <prvTaskExitError+0x4c>)
 8002604:	681b      	ldr	r3, [r3, #0]
 8002606:	f1b3 3fff 	cmp.w	r3, #4294967295
 800260a:	d009      	beq.n	8002620 <prvTaskExitError+0x28>

portFORCE_INLINE static void vPortRaiseBASEPRI( void )
{
uint32_t ulNewBASEPRI;

	__asm volatile
 800260c:	f04f 03fc 	mov.w	r3, #252	; 0xfc
 8002610:	f383 8811 	msr	BASEPRI, r3
 8002614:	f3bf 8f6f 	isb	sy
 8002618:	f3bf 8f4f 	dsb	sy
 800261c:	60fb      	str	r3, [r7, #12]
 800261e:	e7fe      	b.n	800261e <prvTaskExitError+0x26>
 8002620:	f04f 03fc 	mov.w	r3, #252	; 0xfc
 8002624:	f383 8811 	msr	BASEPRI, r3
 8002628:	f3bf 8f6f 	isb	sy
 800262c:	f3bf 8f4f 	dsb	sy
 8002630:	60bb      	str	r3, [r7, #8]
	portDISABLE_INTERRUPTS();
	while( ulDummy == 0 )
 8002632:	bf00      	nop
 8002634:	687b      	ldr	r3, [r7, #4]
 8002636:	2b00      	cmp	r3, #0
 8002638:	d0fc      	beq.n	8002634 <prvTaskExitError+0x3c>
		about code appearing after this function is called - making ulDummy
		volatile makes the compiler think the function could return and
		therefore not output an 'unreachable code' warning for code that appears
		after it. */
	}
}
 800263a:	3714      	adds	r7, #20
 800263c:	46bd      	mov	sp, r7
 800263e:	f85d 7b04 	ldr.w	r7, [sp], #4
 8002642:	4770      	bx	lr
 8002644:	1ffe8850 	.word	0x1ffe8850
	...

08002650 <SVC_Handler>:
/*-----------------------------------------------------------*/

void vPortSVCHandler( void )
{
	__asm volatile (
 8002650:	4b07      	ldr	r3, [pc, #28]	; (8002670 <pxCurrentTCBConst2>)
 8002652:	6819      	ldr	r1, [r3, #0]
 8002654:	6808      	ldr	r0, [r1, #0]
 8002656:	e8b0 4ff0 	ldmia.w	r0!, {r4, r5, r6, r7, r8, r9, sl, fp, lr}
 800265a:	f380 8809 	msr	PSP, r0
 800265e:	f3bf 8f6f 	isb	sy
 8002662:	f04f 0000 	mov.w	r0, #0
 8002666:	f380 8811 	msr	BASEPRI, r0
 800266a:	4770      	bx	lr
 800266c:	f3af 8000 	nop.w

08002670 <pxCurrentTCBConst2>:
 8002670:	1ffe88d8 	.word	0x1ffe88d8
 8002674:	f3af 8000 	nop.w
 8002678:	f3af 8000 	nop.w
 800267c:	f3af 8000 	nop.w

08002680 <prvPortStartFirstTask>:
{
	/* Start the first task.  This also clears the bit that indicates the FPU is
	in use in case the FPU was used before the scheduler was started - which
	would otherwise result in the unnecessary leaving of space in the SVC stack
	for lazy saving of FPU registers. */
	__asm volatile(
 8002680:	4808      	ldr	r0, [pc, #32]	; (80026a4 <prvPortStartFirstTask+0x24>)
 8002682:	6800      	ldr	r0, [r0, #0]
 8002684:	6800      	ldr	r0, [r0, #0]
 8002686:	f380 8808 	msr	MSP, r0
 800268a:	f04f 0000 	mov.w	r0, #0
 800268e:	f380 8814 	msr	CONTROL, r0
 8002692:	b662      	cpsie	i
 8002694:	b661      	cpsie	f
 8002696:	f3bf 8f4f 	dsb	sy
 800269a:	f3bf 8f6f 	isb	sy
 800269e:	df00      	svc	0
 80026a0:	bf00      	nop
 80026a2:	0000      	.short	0x0000
 80026a4:	e000ed08 	.word	0xe000ed08

080026a8 <xPortStartScheduler>:

/*
 * See header file for description.
 */
BaseType_t xPortStartScheduler( void )
{
 80026a8:	b580      	push	{r7, lr}
 80026aa:	b086      	sub	sp, #24
 80026ac:	af00      	add	r7, sp, #0
	configASSERT( configMAX_SYSCALL_INTERRUPT_PRIORITY );

	/* This port can be used on all revisions of the Cortex-M7 core other than
	the r0p1 parts.  r0p1 parts should use the port from the
	/source/portable/GCC/ARM_CM7/r0p1 directory. */
	configASSERT( portCPUID != portCORTEX_M7_r0p1_ID );
 80026ae:	4b44      	ldr	r3, [pc, #272]	; (80027c0 <xPortStartScheduler+0x118>)
 80026b0:	681b      	ldr	r3, [r3, #0]
 80026b2:	4a44      	ldr	r2, [pc, #272]	; (80027c4 <xPortStartScheduler+0x11c>)
 80026b4:	4293      	cmp	r3, r2
 80026b6:	d109      	bne.n	80026cc <xPortStartScheduler+0x24>
 80026b8:	f04f 03fc 	mov.w	r3, #252	; 0xfc
 80026bc:	f383 8811 	msr	BASEPRI, r3
 80026c0:	f3bf 8f6f 	isb	sy
 80026c4:	f3bf 8f4f 	dsb	sy
 80026c8:	613b      	str	r3, [r7, #16]
 80026ca:	e7fe      	b.n	80026ca <xPortStartScheduler+0x22>
	configASSERT( portCPUID != portCORTEX_M7_r0p0_ID );
 80026cc:	4b3c      	ldr	r3, [pc, #240]	; (80027c0 <xPortStartScheduler+0x118>)
 80026ce:	681b      	ldr	r3, [r3, #0]
 80026d0:	4a3d      	ldr	r2, [pc, #244]	; (80027c8 <xPortStartScheduler+0x120>)
 80026d2:	4293      	cmp	r3, r2
 80026d4:	d109      	bne.n	80026ea <xPortStartScheduler+0x42>
 80026d6:	f04f 03fc 	mov.w	r3, #252	; 0xfc
 80026da:	f383 8811 	msr	BASEPRI, r3
 80026de:	f3bf 8f6f 	isb	sy
 80026e2:	f3bf 8f4f 	dsb	sy
 80026e6:	60fb      	str	r3, [r7, #12]
 80026e8:	e7fe      	b.n	80026e8 <xPortStartScheduler+0x40>

	#if( configASSERT_DEFINED == 1 )
	{
		volatile uint32_t ulOriginalPriority;
		volatile uint8_t * const pucFirstUserPriorityRegister = ( volatile uint8_t * const ) ( portNVIC_IP_REGISTERS_OFFSET_16 + portFIRST_USER_INTERRUPT_NUMBER );
 80026ea:	4b38      	ldr	r3, [pc, #224]	; (80027cc <xPortStartScheduler+0x124>)
 80026ec:	617b      	str	r3, [r7, #20]
		functions can be called.  ISR safe functions are those that end in
		"FromISR".  FreeRTOS maintains separate thread and ISR API functions to
		ensure interrupt entry is as fast and simple as possible.

		Save the interrupt priority value that is about to be clobbered. */
		ulOriginalPriority = *pucFirstUserPriorityRegister;
 80026ee:	697b      	ldr	r3, [r7, #20]
 80026f0:	781b      	ldrb	r3, [r3, #0]
 80026f2:	b2db      	uxtb	r3, r3
 80026f4:	607b      	str	r3, [r7, #4]

		/* Determine the number of priority bits available.  First write to all
		possible bits. */
		*pucFirstUserPriorityRegister = portMAX_8_BIT_VALUE;
 80026f6:	697b      	ldr	r3, [r7, #20]
 80026f8:	22ff      	movs	r2, #255	; 0xff
 80026fa:	701a      	strb	r2, [r3, #0]

		/* Read the value back to see how many bits stuck. */
		ucMaxPriorityValue = *pucFirstUserPriorityRegister;
 80026fc:	697b      	ldr	r3, [r7, #20]
 80026fe:	781b      	ldrb	r3, [r3, #0]
 8002700:	b2db      	uxtb	r3, r3
 8002702:	70fb      	strb	r3, [r7, #3]

		/* Use the same mask on the maximum system call priority. */
		ucMaxSysCallPriority = configMAX_SYSCALL_INTERRUPT_PRIORITY & ucMaxPriorityValue;
 8002704:	78fb      	ldrb	r3, [r7, #3]
 8002706:	b2db      	uxtb	r3, r3
 8002708:	f023 0303 	bic.w	r3, r3, #3
 800270c:	b2da      	uxtb	r2, r3
 800270e:	4b30      	ldr	r3, [pc, #192]	; (80027d0 <xPortStartScheduler+0x128>)
 8002710:	701a      	strb	r2, [r3, #0]

		/* Calculate the maximum acceptable priority group value for the number
		of bits read back. */
		ulMaxPRIGROUPValue = portMAX_PRIGROUP_BITS;
 8002712:	4b30      	ldr	r3, [pc, #192]	; (80027d4 <xPortStartScheduler+0x12c>)
 8002714:	2207      	movs	r2, #7
 8002716:	601a      	str	r2, [r3, #0]
		while( ( ucMaxPriorityValue & portTOP_BIT_OF_BYTE ) == portTOP_BIT_OF_BYTE )
 8002718:	e009      	b.n	800272e <xPortStartScheduler+0x86>
		{
			ulMaxPRIGROUPValue--;
 800271a:	4b2e      	ldr	r3, [pc, #184]	; (80027d4 <xPortStartScheduler+0x12c>)
 800271c:	681b      	ldr	r3, [r3, #0]
 800271e:	3b01      	subs	r3, #1
 8002720:	4a2c      	ldr	r2, [pc, #176]	; (80027d4 <xPortStartScheduler+0x12c>)
 8002722:	6013      	str	r3, [r2, #0]
			ucMaxPriorityValue <<= ( uint8_t ) 0x01;
 8002724:	78fb      	ldrb	r3, [r7, #3]
 8002726:	b2db      	uxtb	r3, r3
 8002728:	005b      	lsls	r3, r3, #1
 800272a:	b2db      	uxtb	r3, r3
 800272c:	70fb      	strb	r3, [r7, #3]
		ucMaxSysCallPriority = configMAX_SYSCALL_INTERRUPT_PRIORITY & ucMaxPriorityValue;

		/* Calculate the maximum acceptable priority group value for the number
		of bits read back. */
		ulMaxPRIGROUPValue = portMAX_PRIGROUP_BITS;
		while( ( ucMaxPriorityValue & portTOP_BIT_OF_BYTE ) == portTOP_BIT_OF_BYTE )
 800272e:	78fb      	ldrb	r3, [r7, #3]
 8002730:	b2db      	uxtb	r3, r3
 8002732:	b2db      	uxtb	r3, r3
 8002734:	b25b      	sxtb	r3, r3
 8002736:	2b00      	cmp	r3, #0
 8002738:	dbef      	blt.n	800271a <xPortStartScheduler+0x72>
		#ifdef __NVIC_PRIO_BITS
		{
			/* Check the CMSIS configuration that defines the number of
			priority bits matches the number of priority bits actually queried
			from the hardware. */
			configASSERT( ( portMAX_PRIGROUP_BITS - ulMaxPRIGROUPValue ) == __NVIC_PRIO_BITS );
 800273a:	4b26      	ldr	r3, [pc, #152]	; (80027d4 <xPortStartScheduler+0x12c>)
 800273c:	681b      	ldr	r3, [r3, #0]
 800273e:	f1c3 0307 	rsb	r3, r3, #7
 8002742:	2b06      	cmp	r3, #6
 8002744:	d009      	beq.n	800275a <xPortStartScheduler+0xb2>
 8002746:	f04f 03fc 	mov.w	r3, #252	; 0xfc
 800274a:	f383 8811 	msr	BASEPRI, r3
 800274e:	f3bf 8f6f 	isb	sy
 8002752:	f3bf 8f4f 	dsb	sy
 8002756:	60bb      	str	r3, [r7, #8]
 8002758:	e7fe      	b.n	8002758 <xPortStartScheduler+0xb0>
		}
		#endif

		/* Shift the priority group value back to its position within the AIRCR
		register. */
		ulMaxPRIGROUPValue <<= portPRIGROUP_SHIFT;
 800275a:	4b1e      	ldr	r3, [pc, #120]	; (80027d4 <xPortStartScheduler+0x12c>)
 800275c:	681b      	ldr	r3, [r3, #0]
 800275e:	021b      	lsls	r3, r3, #8
 8002760:	4a1c      	ldr	r2, [pc, #112]	; (80027d4 <xPortStartScheduler+0x12c>)
 8002762:	6013      	str	r3, [r2, #0]
		ulMaxPRIGROUPValue &= portPRIORITY_GROUP_MASK;
 8002764:	4b1b      	ldr	r3, [pc, #108]	; (80027d4 <xPortStartScheduler+0x12c>)
 8002766:	681b      	ldr	r3, [r3, #0]
 8002768:	f403 63e0 	and.w	r3, r3, #1792	; 0x700
 800276c:	4a19      	ldr	r2, [pc, #100]	; (80027d4 <xPortStartScheduler+0x12c>)
 800276e:	6013      	str	r3, [r2, #0]

		/* Restore the clobbered interrupt priority register to its original
		value. */
		*pucFirstUserPriorityRegister = ulOriginalPriority;
 8002770:	687b      	ldr	r3, [r7, #4]
 8002772:	b2da      	uxtb	r2, r3
 8002774:	697b      	ldr	r3, [r7, #20]
 8002776:	701a      	strb	r2, [r3, #0]
	}
	#endif /* conifgASSERT_DEFINED */

	/* Make PendSV and SysTick the lowest priority interrupts. */
	portNVIC_SYSPRI2_REG |= portNVIC_PENDSV_PRI;
 8002778:	4a17      	ldr	r2, [pc, #92]	; (80027d8 <xPortStartScheduler+0x130>)
 800277a:	4b17      	ldr	r3, [pc, #92]	; (80027d8 <xPortStartScheduler+0x130>)
 800277c:	681b      	ldr	r3, [r3, #0]
 800277e:	f443 037c 	orr.w	r3, r3, #16515072	; 0xfc0000
 8002782:	6013      	str	r3, [r2, #0]
	portNVIC_SYSPRI2_REG |= portNVIC_SYSTICK_PRI;
 8002784:	4a14      	ldr	r2, [pc, #80]	; (80027d8 <xPortStartScheduler+0x130>)
 8002786:	4b14      	ldr	r3, [pc, #80]	; (80027d8 <xPortStartScheduler+0x130>)
 8002788:	681b      	ldr	r3, [r3, #0]
 800278a:	f043 437c 	orr.w	r3, r3, #4227858432	; 0xfc000000
 800278e:	6013      	str	r3, [r2, #0]

	/* Start the timer that generates the tick ISR.  Interrupts are disabled
	here already. */
	vPortSetupTimerInterrupt();
 8002790:	f000 f8d6 	bl	8002940 <vPortSetupTimerInterrupt>

	/* Initialise the critical nesting count ready for the first task. */
	uxCriticalNesting = 0;
 8002794:	4b11      	ldr	r3, [pc, #68]	; (80027dc <xPortStartScheduler+0x134>)
 8002796:	2200      	movs	r2, #0
 8002798:	601a      	str	r2, [r3, #0]

	/* Ensure the VFP is enabled - it should be anyway. */
	vPortEnableVFP();
 800279a:	f000 f8f3 	bl	8002984 <vPortEnableVFP>

	/* Lazy save always. */
	*( portFPCCR ) |= portASPEN_AND_LSPEN_BITS;
 800279e:	4a10      	ldr	r2, [pc, #64]	; (80027e0 <xPortStartScheduler+0x138>)
 80027a0:	4b0f      	ldr	r3, [pc, #60]	; (80027e0 <xPortStartScheduler+0x138>)
 80027a2:	681b      	ldr	r3, [r3, #0]
 80027a4:	f043 4340 	orr.w	r3, r3, #3221225472	; 0xc0000000
 80027a8:	6013      	str	r3, [r2, #0]

	/* Start the first task. */
	prvPortStartFirstTask();
 80027aa:	f7ff ff69 	bl	8002680 <prvPortStartFirstTask>
	exit error function to prevent compiler warnings about a static function
	not being called in the case that the application writer overrides this
	functionality by defining configTASK_RETURN_ADDRESS.  Call
	vTaskSwitchContext() so link time optimisation does not remove the
	symbol. */
	vTaskSwitchContext();
 80027ae:	f001 fc1d 	bl	8003fec <vTaskSwitchContext>
	prvTaskExitError();
 80027b2:	f7ff ff21 	bl	80025f8 <prvTaskExitError>

	/* Should not get here! */
	return 0;
 80027b6:	2300      	movs	r3, #0
}
 80027b8:	4618      	mov	r0, r3
 80027ba:	3718      	adds	r7, #24
 80027bc:	46bd      	mov	sp, r7
 80027be:	bd80      	pop	{r7, pc}
 80027c0:	e000ed00 	.word	0xe000ed00
 80027c4:	410fc271 	.word	0x410fc271
 80027c8:	410fc270 	.word	0x410fc270
 80027cc:	e000e400 	.word	0xe000e400
 80027d0:	1ffe88d0 	.word	0x1ffe88d0
 80027d4:	1ffe88d4 	.word	0x1ffe88d4
 80027d8:	e000ed20 	.word	0xe000ed20
 80027dc:	1ffe8850 	.word	0x1ffe8850
 80027e0:	e000ef34 	.word	0xe000ef34

080027e4 <vPortEnterCritical>:
	configASSERT( uxCriticalNesting == 1000UL );
}
/*-----------------------------------------------------------*/

void vPortEnterCritical( void )
{
 80027e4:	b480      	push	{r7}
 80027e6:	b083      	sub	sp, #12
 80027e8:	af00      	add	r7, sp, #0
 80027ea:	f04f 03fc 	mov.w	r3, #252	; 0xfc
 80027ee:	f383 8811 	msr	BASEPRI, r3
 80027f2:	f3bf 8f6f 	isb	sy
 80027f6:	f3bf 8f4f 	dsb	sy
 80027fa:	607b      	str	r3, [r7, #4]
	portDISABLE_INTERRUPTS();
	uxCriticalNesting++;
 80027fc:	4b0e      	ldr	r3, [pc, #56]	; (8002838 <vPortEnterCritical+0x54>)
 80027fe:	681b      	ldr	r3, [r3, #0]
 8002800:	3301      	adds	r3, #1
 8002802:	4a0d      	ldr	r2, [pc, #52]	; (8002838 <vPortEnterCritical+0x54>)
 8002804:	6013      	str	r3, [r2, #0]
	/* This is not the interrupt safe version of the enter critical function so
	assert() if it is being called from an interrupt context.  Only API
	functions that end in "FromISR" can be used in an interrupt.  Only assert if
	the critical nesting count is 1 to protect against recursive calls if the
	assert function also uses a critical section. */
	if( uxCriticalNesting == 1 )
 8002806:	4b0c      	ldr	r3, [pc, #48]	; (8002838 <vPortEnterCritical+0x54>)
 8002808:	681b      	ldr	r3, [r3, #0]
 800280a:	2b01      	cmp	r3, #1
 800280c:	d10e      	bne.n	800282c <vPortEnterCritical+0x48>
	{
		configASSERT( ( portNVIC_INT_CTRL_REG & portVECTACTIVE_MASK ) == 0 );
 800280e:	4b0b      	ldr	r3, [pc, #44]	; (800283c <vPortEnterCritical+0x58>)
 8002810:	681b      	ldr	r3, [r3, #0]
 8002812:	b2db      	uxtb	r3, r3
 8002814:	2b00      	cmp	r3, #0
 8002816:	d009      	beq.n	800282c <vPortEnterCritical+0x48>
 8002818:	f04f 03fc 	mov.w	r3, #252	; 0xfc
 800281c:	f383 8811 	msr	BASEPRI, r3
 8002820:	f3bf 8f6f 	isb	sy
 8002824:	f3bf 8f4f 	dsb	sy
 8002828:	603b      	str	r3, [r7, #0]
 800282a:	e7fe      	b.n	800282a <vPortEnterCritical+0x46>
	}
}
 800282c:	370c      	adds	r7, #12
 800282e:	46bd      	mov	sp, r7
 8002830:	f85d 7b04 	ldr.w	r7, [sp], #4
 8002834:	4770      	bx	lr
 8002836:	bf00      	nop
 8002838:	1ffe8850 	.word	0x1ffe8850
 800283c:	e000ed04 	.word	0xe000ed04

08002840 <vPortExitCritical>:
/*-----------------------------------------------------------*/

void vPortExitCritical( void )
{
 8002840:	b480      	push	{r7}
 8002842:	b083      	sub	sp, #12
 8002844:	af00      	add	r7, sp, #0
	configASSERT( uxCriticalNesting );
 8002846:	4b10      	ldr	r3, [pc, #64]	; (8002888 <vPortExitCritical+0x48>)
 8002848:	681b      	ldr	r3, [r3, #0]
 800284a:	2b00      	cmp	r3, #0
 800284c:	d109      	bne.n	8002862 <vPortExitCritical+0x22>
 800284e:	f04f 03fc 	mov.w	r3, #252	; 0xfc
 8002852:	f383 8811 	msr	BASEPRI, r3
 8002856:	f3bf 8f6f 	isb	sy
 800285a:	f3bf 8f4f 	dsb	sy
 800285e:	607b      	str	r3, [r7, #4]
 8002860:	e7fe      	b.n	8002860 <vPortExitCritical+0x20>
	uxCriticalNesting--;
 8002862:	4b09      	ldr	r3, [pc, #36]	; (8002888 <vPortExitCritical+0x48>)
 8002864:	681b      	ldr	r3, [r3, #0]
 8002866:	3b01      	subs	r3, #1
 8002868:	4a07      	ldr	r2, [pc, #28]	; (8002888 <vPortExitCritical+0x48>)
 800286a:	6013      	str	r3, [r2, #0]
	if( uxCriticalNesting == 0 )
 800286c:	4b06      	ldr	r3, [pc, #24]	; (8002888 <vPortExitCritical+0x48>)
 800286e:	681b      	ldr	r3, [r3, #0]
 8002870:	2b00      	cmp	r3, #0
 8002872:	d104      	bne.n	800287e <vPortExitCritical+0x3e>
 8002874:	2300      	movs	r3, #0
 8002876:	603b      	str	r3, [r7, #0]
}
/*-----------------------------------------------------------*/

portFORCE_INLINE static void vPortSetBASEPRI( uint32_t ulNewMaskValue )
{
	__asm volatile
 8002878:	683b      	ldr	r3, [r7, #0]
 800287a:	f383 8811 	msr	BASEPRI, r3
	{
		portENABLE_INTERRUPTS();
	}
}
 800287e:	370c      	adds	r7, #12
 8002880:	46bd      	mov	sp, r7
 8002882:	f85d 7b04 	ldr.w	r7, [sp], #4
 8002886:	4770      	bx	lr
 8002888:	1ffe8850 	.word	0x1ffe8850
 800288c:	00000000 	.word	0x00000000

08002890 <PendSV_Handler>:

void xPortPendSVHandler( void )
{
	/* This is a naked function. */

	__asm volatile
 8002890:	f3ef 8009 	mrs	r0, PSP
 8002894:	f3bf 8f6f 	isb	sy
 8002898:	4b15      	ldr	r3, [pc, #84]	; (80028f0 <pxCurrentTCBConst>)
 800289a:	681a      	ldr	r2, [r3, #0]
 800289c:	f01e 0f10 	tst.w	lr, #16
 80028a0:	bf08      	it	eq
 80028a2:	ed20 8a10 	vstmdbeq	r0!, {s16-s31}
 80028a6:	e920 4ff0 	stmdb	r0!, {r4, r5, r6, r7, r8, r9, sl, fp, lr}
 80028aa:	6010      	str	r0, [r2, #0]
 80028ac:	e92d 0009 	stmdb	sp!, {r0, r3}
 80028b0:	f04f 00fc 	mov.w	r0, #252	; 0xfc
 80028b4:	f380 8811 	msr	BASEPRI, r0
 80028b8:	f3bf 8f4f 	dsb	sy
 80028bc:	f3bf 8f6f 	isb	sy
 80028c0:	f001 fb94 	bl	8003fec <vTaskSwitchContext>
 80028c4:	f04f 0000 	mov.w	r0, #0
 80028c8:	f380 8811 	msr	BASEPRI, r0
 80028cc:	bc09      	pop	{r0, r3}
 80028ce:	6819      	ldr	r1, [r3, #0]
 80028d0:	6808      	ldr	r0, [r1, #0]
 80028d2:	e8b0 4ff0 	ldmia.w	r0!, {r4, r5, r6, r7, r8, r9, sl, fp, lr}
 80028d6:	f01e 0f10 	tst.w	lr, #16
 80028da:	bf08      	it	eq
 80028dc:	ecb0 8a10 	vldmiaeq	r0!, {s16-s31}
 80028e0:	f380 8809 	msr	PSP, r0
 80028e4:	f3bf 8f6f 	isb	sy
 80028e8:	4770      	bx	lr
 80028ea:	bf00      	nop
 80028ec:	f3af 8000 	nop.w

080028f0 <pxCurrentTCBConst>:
 80028f0:	1ffe88d8 	.word	0x1ffe88d8
 80028f4:	f3af 8000 	nop.w
 80028f8:	f3af 8000 	nop.w
 80028fc:	f3af 8000 	nop.w

08002900 <SysTick_Handler>:
	);
}
/*-----------------------------------------------------------*/

void xPortSysTickHandler( void )
{
 8002900:	b580      	push	{r7, lr}
 8002902:	b082      	sub	sp, #8
 8002904:	af00      	add	r7, sp, #0

portFORCE_INLINE static void vPortRaiseBASEPRI( void )
{
uint32_t ulNewBASEPRI;

	__asm volatile
 8002906:	f04f 03fc 	mov.w	r3, #252	; 0xfc
 800290a:	f383 8811 	msr	BASEPRI, r3
 800290e:	f3bf 8f6f 	isb	sy
 8002912:	f3bf 8f4f 	dsb	sy
 8002916:	607b      	str	r3, [r7, #4]
	save and then restore the interrupt mask value as its value is already
	known. */
	portDISABLE_INTERRUPTS();
	{
		/* Increment the RTOS tick. */
		if( xTaskIncrementTick() != pdFALSE )
 8002918:	f001 faae 	bl	8003e78 <xTaskIncrementTick>
 800291c:	4603      	mov	r3, r0
 800291e:	2b00      	cmp	r3, #0
 8002920:	d003      	beq.n	800292a <SysTick_Handler+0x2a>
		{
			/* A context switch is required.  Context switching is performed in
			the PendSV interrupt.  Pend the PendSV interrupt. */
			portNVIC_INT_CTRL_REG = portNVIC_PENDSVSET_BIT;
 8002922:	4b06      	ldr	r3, [pc, #24]	; (800293c <SysTick_Handler+0x3c>)
 8002924:	f04f 5280 	mov.w	r2, #268435456	; 0x10000000
 8002928:	601a      	str	r2, [r3, #0]
 800292a:	2300      	movs	r3, #0
 800292c:	603b      	str	r3, [r7, #0]
}
/*-----------------------------------------------------------*/

portFORCE_INLINE static void vPortSetBASEPRI( uint32_t ulNewMaskValue )
{
	__asm volatile
 800292e:	683b      	ldr	r3, [r7, #0]
 8002930:	f383 8811 	msr	BASEPRI, r3
		}
	}
	portENABLE_INTERRUPTS();
}
 8002934:	3708      	adds	r7, #8
 8002936:	46bd      	mov	sp, r7
 8002938:	bd80      	pop	{r7, pc}
 800293a:	bf00      	nop
 800293c:	e000ed04 	.word	0xe000ed04

08002940 <vPortSetupTimerInterrupt>:
/*
 * Setup the systick timer to generate the tick interrupts at the required
 * frequency.
 */
__attribute__(( weak )) void vPortSetupTimerInterrupt( void )
{
 8002940:	b480      	push	{r7}
 8002942:	af00      	add	r7, sp, #0
		ulStoppedTimerCompensation = portMISSED_COUNTS_FACTOR / ( configCPU_CLOCK_HZ / configSYSTICK_CLOCK_HZ );
	}
	#endif /* configUSE_TICKLESS_IDLE */

	/* Stop and clear the SysTick. */
	portNVIC_SYSTICK_CTRL_REG = 0UL;
 8002944:	4b0a      	ldr	r3, [pc, #40]	; (8002970 <vPortSetupTimerInterrupt+0x30>)
 8002946:	2200      	movs	r2, #0
 8002948:	601a      	str	r2, [r3, #0]
	portNVIC_SYSTICK_CURRENT_VALUE_REG = 0UL;
 800294a:	4b0a      	ldr	r3, [pc, #40]	; (8002974 <vPortSetupTimerInterrupt+0x34>)
 800294c:	2200      	movs	r2, #0
 800294e:	601a      	str	r2, [r3, #0]

	/* Configure SysTick to interrupt at the requested rate. */
	portNVIC_SYSTICK_LOAD_REG = ( configSYSTICK_CLOCK_HZ / configTICK_RATE_HZ ) - 1UL;
 8002950:	4a09      	ldr	r2, [pc, #36]	; (8002978 <vPortSetupTimerInterrupt+0x38>)
 8002952:	4b0a      	ldr	r3, [pc, #40]	; (800297c <vPortSetupTimerInterrupt+0x3c>)
 8002954:	681b      	ldr	r3, [r3, #0]
 8002956:	490a      	ldr	r1, [pc, #40]	; (8002980 <vPortSetupTimerInterrupt+0x40>)
 8002958:	fba1 1303 	umull	r1, r3, r1, r3
 800295c:	099b      	lsrs	r3, r3, #6
 800295e:	3b01      	subs	r3, #1
 8002960:	6013      	str	r3, [r2, #0]
	portNVIC_SYSTICK_CTRL_REG = ( portNVIC_SYSTICK_CLK_BIT | portNVIC_SYSTICK_INT_BIT | portNVIC_SYSTICK_ENABLE_BIT );
 8002962:	4b03      	ldr	r3, [pc, #12]	; (8002970 <vPortSetupTimerInterrupt+0x30>)
 8002964:	2207      	movs	r2, #7
 8002966:	601a      	str	r2, [r3, #0]
}
 8002968:	46bd      	mov	sp, r7
 800296a:	f85d 7b04 	ldr.w	r7, [sp], #4
 800296e:	4770      	bx	lr
 8002970:	e000e010 	.word	0xe000e010
 8002974:	e000e018 	.word	0xe000e018
 8002978:	e000e014 	.word	0xe000e014
 800297c:	2003ffc0 	.word	0x2003ffc0
 8002980:	10624dd3 	.word	0x10624dd3

08002984 <vPortEnableVFP>:
/*-----------------------------------------------------------*/

/* This is a naked function. */
static void vPortEnableVFP( void )
{
	__asm volatile
 8002984:	f8df 000c 	ldr.w	r0, [pc, #12]	; 8002994 <vPortEnableVFP+0x10>
 8002988:	6801      	ldr	r1, [r0, #0]
 800298a:	f441 0170 	orr.w	r1, r1, #15728640	; 0xf00000
 800298e:	6001      	str	r1, [r0, #0]
 8002990:	4770      	bx	lr
 8002992:	0000      	.short	0x0000
 8002994:	e000ed88 	.word	0xe000ed88

08002998 <vPortValidateInterruptPriority>:
/*-----------------------------------------------------------*/

#if( configASSERT_DEFINED == 1 )

	void vPortValidateInterruptPriority( void )
	{
 8002998:	b480      	push	{r7}
 800299a:	b085      	sub	sp, #20
 800299c:	af00      	add	r7, sp, #0
	uint32_t ulCurrentInterrupt;
	uint8_t ucCurrentPriority;

		/* Obtain the number of the currently executing interrupt. */
		__asm volatile( "mrs %0, ipsr" : "=r"( ulCurrentInterrupt ) :: "memory" );
 800299e:	f3ef 8305 	mrs	r3, IPSR
 80029a2:	60fb      	str	r3, [r7, #12]

		/* Is the interrupt number a user defined interrupt? */
		if( ulCurrentInterrupt >= portFIRST_USER_INTERRUPT_NUMBER )
 80029a4:	68fb      	ldr	r3, [r7, #12]
 80029a6:	2b0f      	cmp	r3, #15
 80029a8:	d913      	bls.n	80029d2 <vPortValidateInterruptPriority+0x3a>
		{
			/* Look up the interrupt's priority. */
			ucCurrentPriority = pcInterruptPriorityRegisters[ ulCurrentInterrupt ];
 80029aa:	4a15      	ldr	r2, [pc, #84]	; (8002a00 <vPortValidateInterruptPriority+0x68>)
 80029ac:	68fb      	ldr	r3, [r7, #12]
 80029ae:	4413      	add	r3, r2
 80029b0:	781b      	ldrb	r3, [r3, #0]
 80029b2:	72fb      	strb	r3, [r7, #11]
			interrupt entry is as fast and simple as possible.

			The following links provide detailed information:
			http://www.freertos.org/RTOS-Cortex-M3-M4.html
			http://www.freertos.org/FAQHelp.html */
			configASSERT( ucCurrentPriority >= ucMaxSysCallPriority );
 80029b4:	4b13      	ldr	r3, [pc, #76]	; (8002a04 <vPortValidateInterruptPriority+0x6c>)
 80029b6:	781b      	ldrb	r3, [r3, #0]
 80029b8:	7afa      	ldrb	r2, [r7, #11]
 80029ba:	429a      	cmp	r2, r3
 80029bc:	d209      	bcs.n	80029d2 <vPortValidateInterruptPriority+0x3a>

portFORCE_INLINE static void vPortRaiseBASEPRI( void )
{
uint32_t ulNewBASEPRI;

	__asm volatile
 80029be:	f04f 03fc 	mov.w	r3, #252	; 0xfc
 80029c2:	f383 8811 	msr	BASEPRI, r3
 80029c6:	f3bf 8f6f 	isb	sy
 80029ca:	f3bf 8f4f 	dsb	sy
 80029ce:	607b      	str	r3, [r7, #4]
 80029d0:	e7fe      	b.n	80029d0 <vPortValidateInterruptPriority+0x38>
		configuration then the correct setting can be achieved on all Cortex-M
		devices by calling NVIC_SetPriorityGrouping( 0 ); before starting the
		scheduler.  Note however that some vendor specific peripheral libraries
		assume a non-zero priority group setting, in which cases using a value
		of zero will result in unpredictable behaviour. */
		configASSERT( ( portAIRCR_REG & portPRIORITY_GROUP_MASK ) <= ulMaxPRIGROUPValue );
 80029d2:	4b0d      	ldr	r3, [pc, #52]	; (8002a08 <vPortValidateInterruptPriority+0x70>)
 80029d4:	681b      	ldr	r3, [r3, #0]
 80029d6:	f403 62e0 	and.w	r2, r3, #1792	; 0x700
 80029da:	4b0c      	ldr	r3, [pc, #48]	; (8002a0c <vPortValidateInterruptPriority+0x74>)
 80029dc:	681b      	ldr	r3, [r3, #0]
 80029de:	429a      	cmp	r2, r3
 80029e0:	d909      	bls.n	80029f6 <vPortValidateInterruptPriority+0x5e>
 80029e2:	f04f 03fc 	mov.w	r3, #252	; 0xfc
 80029e6:	f383 8811 	msr	BASEPRI, r3
 80029ea:	f3bf 8f6f 	isb	sy
 80029ee:	f3bf 8f4f 	dsb	sy
 80029f2:	603b      	str	r3, [r7, #0]
 80029f4:	e7fe      	b.n	80029f4 <vPortValidateInterruptPriority+0x5c>
	}
 80029f6:	3714      	adds	r7, #20
 80029f8:	46bd      	mov	sp, r7
 80029fa:	f85d 7b04 	ldr.w	r7, [sp], #4
 80029fe:	4770      	bx	lr
 8002a00:	e000e3f0 	.word	0xe000e3f0
 8002a04:	1ffe88d0 	.word	0x1ffe88d0
 8002a08:	e000ed0c 	.word	0xe000ed0c
 8002a0c:	1ffe88d4 	.word	0x1ffe88d4

08002a10 <pvPortMalloc>:
#endif

/*-----------------------------------------------------------*/

void *pvPortMalloc( size_t xWantedSize )
{
 8002a10:	b580      	push	{r7, lr}
 8002a12:	b084      	sub	sp, #16
 8002a14:	af00      	add	r7, sp, #0
 8002a16:	6078      	str	r0, [r7, #4]
void *pvReturn;

	vTaskSuspendAll();
 8002a18:	f001 f972 	bl	8003d00 <vTaskSuspendAll>
	{
		pvReturn = malloc( xWantedSize );
 8002a1c:	6878      	ldr	r0, [r7, #4]
 8002a1e:	f002 fe2f 	bl	8005680 <malloc>
 8002a22:	4603      	mov	r3, r0
 8002a24:	60fb      	str	r3, [r7, #12]
		traceMALLOC( pvReturn, xWantedSize );
	}
	( void ) xTaskResumeAll();
 8002a26:	f001 f979 	bl	8003d1c <xTaskResumeAll>
			vApplicationMallocFailedHook();
		}
	}
	#endif

	return pvReturn;
 8002a2a:	68fb      	ldr	r3, [r7, #12]
}
 8002a2c:	4618      	mov	r0, r3
 8002a2e:	3710      	adds	r7, #16
 8002a30:	46bd      	mov	sp, r7
 8002a32:	bd80      	pop	{r7, pc}

08002a34 <vPortFree>:
/*-----------------------------------------------------------*/

void vPortFree( void *pv )
{
 8002a34:	b580      	push	{r7, lr}
 8002a36:	b082      	sub	sp, #8
 8002a38:	af00      	add	r7, sp, #0
 8002a3a:	6078      	str	r0, [r7, #4]
	if( pv )
 8002a3c:	687b      	ldr	r3, [r7, #4]
 8002a3e:	2b00      	cmp	r3, #0
 8002a40:	d006      	beq.n	8002a50 <vPortFree+0x1c>
	{
		vTaskSuspendAll();
 8002a42:	f001 f95d 	bl	8003d00 <vTaskSuspendAll>
		{
			free( pv );
 8002a46:	6878      	ldr	r0, [r7, #4]
 8002a48:	f002 fe22 	bl	8005690 <free>
			traceFREE( pv, 0 );
		}
		( void ) xTaskResumeAll();
 8002a4c:	f001 f966 	bl	8003d1c <xTaskResumeAll>
	}
}
 8002a50:	3708      	adds	r7, #8
 8002a52:	46bd      	mov	sp, r7
 8002a54:	bd80      	pop	{r7, pc}
 8002a56:	bf00      	nop

08002a58 <vListInitialise>:
/*-----------------------------------------------------------
 * PUBLIC LIST API documented in list.h
 *----------------------------------------------------------*/

void vListInitialise( List_t * const pxList )
{
 8002a58:	b480      	push	{r7}
 8002a5a:	b083      	sub	sp, #12
 8002a5c:	af00      	add	r7, sp, #0
 8002a5e:	6078      	str	r0, [r7, #4]
	/* The list structure contains a list item which is used to mark the
	end of the list.  To initialise the list the list end is inserted
	as the only list entry. */
	pxList->pxIndex = ( ListItem_t * ) &( pxList->xListEnd );			/*lint !e826 !e740 !e9087 The mini list structure is used as the list end to save RAM.  This is checked and valid. */
 8002a60:	687b      	ldr	r3, [r7, #4]
 8002a62:	f103 0208 	add.w	r2, r3, #8
 8002a66:	687b      	ldr	r3, [r7, #4]
 8002a68:	605a      	str	r2, [r3, #4]

	/* The list end value is the highest possible value in the list to
	ensure it remains at the end of the list. */
	pxList->xListEnd.xItemValue = portMAX_DELAY;
 8002a6a:	687b      	ldr	r3, [r7, #4]
 8002a6c:	f04f 32ff 	mov.w	r2, #4294967295
 8002a70:	609a      	str	r2, [r3, #8]

	/* The list end next and previous pointers point to itself so we know
	when the list is empty. */
	pxList->xListEnd.pxNext = ( ListItem_t * ) &( pxList->xListEnd );	/*lint !e826 !e740 !e9087 The mini list structure is used as the list end to save RAM.  This is checked and valid. */
 8002a72:	687b      	ldr	r3, [r7, #4]
 8002a74:	f103 0208 	add.w	r2, r3, #8
 8002a78:	687b      	ldr	r3, [r7, #4]
 8002a7a:	60da      	str	r2, [r3, #12]
	pxList->xListEnd.pxPrevious = ( ListItem_t * ) &( pxList->xListEnd );/*lint !e826 !e740 !e9087 The mini list structure is used as the list end to save RAM.  This is checked and valid. */
 8002a7c:	687b      	ldr	r3, [r7, #4]
 8002a7e:	f103 0208 	add.w	r2, r3, #8
 8002a82:	687b      	ldr	r3, [r7, #4]
 8002a84:	611a      	str	r2, [r3, #16]

	pxList->uxNumberOfItems = ( UBaseType_t ) 0U;
 8002a86:	687b      	ldr	r3, [r7, #4]
 8002a88:	2200      	movs	r2, #0
 8002a8a:	601a      	str	r2, [r3, #0]

	/* Write known values into the list if
	configUSE_LIST_DATA_INTEGRITY_CHECK_BYTES is set to 1. */
	listSET_LIST_INTEGRITY_CHECK_1_VALUE( pxList );
	listSET_LIST_INTEGRITY_CHECK_2_VALUE( pxList );
}
 8002a8c:	370c      	adds	r7, #12
 8002a8e:	46bd      	mov	sp, r7
 8002a90:	f85d 7b04 	ldr.w	r7, [sp], #4
 8002a94:	4770      	bx	lr
 8002a96:	bf00      	nop

08002a98 <vListInitialiseItem>:
/*-----------------------------------------------------------*/

void vListInitialiseItem( ListItem_t * const pxItem )
{
 8002a98:	b480      	push	{r7}
 8002a9a:	b083      	sub	sp, #12
 8002a9c:	af00      	add	r7, sp, #0
 8002a9e:	6078      	str	r0, [r7, #4]
	/* Make sure the list item is not recorded as being on a list. */
	pxItem->pxContainer = NULL;
 8002aa0:	687b      	ldr	r3, [r7, #4]
 8002aa2:	2200      	movs	r2, #0
 8002aa4:	611a      	str	r2, [r3, #16]

	/* Write known values into the list item if
	configUSE_LIST_DATA_INTEGRITY_CHECK_BYTES is set to 1. */
	listSET_FIRST_LIST_ITEM_INTEGRITY_CHECK_VALUE( pxItem );
	listSET_SECOND_LIST_ITEM_INTEGRITY_CHECK_VALUE( pxItem );
}
 8002aa6:	370c      	adds	r7, #12
 8002aa8:	46bd      	mov	sp, r7
 8002aaa:	f85d 7b04 	ldr.w	r7, [sp], #4
 8002aae:	4770      	bx	lr

08002ab0 <vListInsertEnd>:
/*-----------------------------------------------------------*/

void vListInsertEnd( List_t * const pxList, ListItem_t * const pxNewListItem )
{
 8002ab0:	b480      	push	{r7}
 8002ab2:	b085      	sub	sp, #20
 8002ab4:	af00      	add	r7, sp, #0
 8002ab6:	6078      	str	r0, [r7, #4]
 8002ab8:	6039      	str	r1, [r7, #0]
ListItem_t * const pxIndex = pxList->pxIndex;
 8002aba:	687b      	ldr	r3, [r7, #4]
 8002abc:	685b      	ldr	r3, [r3, #4]
 8002abe:	60fb      	str	r3, [r7, #12]
	listTEST_LIST_ITEM_INTEGRITY( pxNewListItem );

	/* Insert a new list item into pxList, but rather than sort the list,
	makes the new list item the last item to be removed by a call to
	listGET_OWNER_OF_NEXT_ENTRY(). */
	pxNewListItem->pxNext = pxIndex;
 8002ac0:	683b      	ldr	r3, [r7, #0]
 8002ac2:	68fa      	ldr	r2, [r7, #12]
 8002ac4:	605a      	str	r2, [r3, #4]
	pxNewListItem->pxPrevious = pxIndex->pxPrevious;
 8002ac6:	68fb      	ldr	r3, [r7, #12]
 8002ac8:	689a      	ldr	r2, [r3, #8]
 8002aca:	683b      	ldr	r3, [r7, #0]
 8002acc:	609a      	str	r2, [r3, #8]

	/* Only used during decision coverage testing. */
	mtCOVERAGE_TEST_DELAY();

	pxIndex->pxPrevious->pxNext = pxNewListItem;
 8002ace:	68fb      	ldr	r3, [r7, #12]
 8002ad0:	689b      	ldr	r3, [r3, #8]
 8002ad2:	683a      	ldr	r2, [r7, #0]
 8002ad4:	605a      	str	r2, [r3, #4]
	pxIndex->pxPrevious = pxNewListItem;
 8002ad6:	68fb      	ldr	r3, [r7, #12]
 8002ad8:	683a      	ldr	r2, [r7, #0]
 8002ada:	609a      	str	r2, [r3, #8]

	/* Remember which list the item is in. */
	pxNewListItem->pxContainer = pxList;
 8002adc:	683b      	ldr	r3, [r7, #0]
 8002ade:	687a      	ldr	r2, [r7, #4]
 8002ae0:	611a      	str	r2, [r3, #16]

	( pxList->uxNumberOfItems )++;
 8002ae2:	687b      	ldr	r3, [r7, #4]
 8002ae4:	681b      	ldr	r3, [r3, #0]
 8002ae6:	1c5a      	adds	r2, r3, #1
 8002ae8:	687b      	ldr	r3, [r7, #4]
 8002aea:	601a      	str	r2, [r3, #0]
}
 8002aec:	3714      	adds	r7, #20
 8002aee:	46bd      	mov	sp, r7
 8002af0:	f85d 7b04 	ldr.w	r7, [sp], #4
 8002af4:	4770      	bx	lr
 8002af6:	bf00      	nop

08002af8 <vListInsert>:
/*-----------------------------------------------------------*/

void vListInsert( List_t * const pxList, ListItem_t * const pxNewListItem )
{
 8002af8:	b480      	push	{r7}
 8002afa:	b085      	sub	sp, #20
 8002afc:	af00      	add	r7, sp, #0
 8002afe:	6078      	str	r0, [r7, #4]
 8002b00:	6039      	str	r1, [r7, #0]
ListItem_t *pxIterator;
const TickType_t xValueOfInsertion = pxNewListItem->xItemValue;
 8002b02:	683b      	ldr	r3, [r7, #0]
 8002b04:	681b      	ldr	r3, [r3, #0]
 8002b06:	60bb      	str	r3, [r7, #8]
	new list item should be placed after it.  This ensures that TCBs which are
	stored in ready lists (all of which have the same xItemValue value) get a
	share of the CPU.  However, if the xItemValue is the same as the back marker
	the iteration loop below will not end.  Therefore the value is checked
	first, and the algorithm slightly modified if necessary. */
	if( xValueOfInsertion == portMAX_DELAY )
 8002b08:	68bb      	ldr	r3, [r7, #8]
 8002b0a:	f1b3 3fff 	cmp.w	r3, #4294967295
 8002b0e:	d103      	bne.n	8002b18 <vListInsert+0x20>
	{
		pxIterator = pxList->xListEnd.pxPrevious;
 8002b10:	687b      	ldr	r3, [r7, #4]
 8002b12:	691b      	ldr	r3, [r3, #16]
 8002b14:	60fb      	str	r3, [r7, #12]
 8002b16:	e00c      	b.n	8002b32 <vListInsert+0x3a>
			4) Using a queue or semaphore before it has been initialised or
			   before the scheduler has been started (are interrupts firing
			   before vTaskStartScheduler() has been called?).
		**********************************************************************/

		for( pxIterator = ( ListItem_t * ) &( pxList->xListEnd ); pxIterator->pxNext->xItemValue <= xValueOfInsertion; pxIterator = pxIterator->pxNext ) /*lint !e826 !e740 !e9087 The mini list structure is used as the list end to save RAM.  This is checked and valid. *//*lint !e440 The iterator moves to a different value, not xValueOfInsertion. */
 8002b18:	687b      	ldr	r3, [r7, #4]
 8002b1a:	3308      	adds	r3, #8
 8002b1c:	60fb      	str	r3, [r7, #12]
 8002b1e:	e002      	b.n	8002b26 <vListInsert+0x2e>
 8002b20:	68fb      	ldr	r3, [r7, #12]
 8002b22:	685b      	ldr	r3, [r3, #4]
 8002b24:	60fb      	str	r3, [r7, #12]
 8002b26:	68fb      	ldr	r3, [r7, #12]
 8002b28:	685b      	ldr	r3, [r3, #4]
 8002b2a:	681a      	ldr	r2, [r3, #0]
 8002b2c:	68bb      	ldr	r3, [r7, #8]
 8002b2e:	429a      	cmp	r2, r3
 8002b30:	d9f6      	bls.n	8002b20 <vListInsert+0x28>
			/* There is nothing to do here, just iterating to the wanted
			insertion position. */
		}
	}

	pxNewListItem->pxNext = pxIterator->pxNext;
 8002b32:	68fb      	ldr	r3, [r7, #12]
 8002b34:	685a      	ldr	r2, [r3, #4]
 8002b36:	683b      	ldr	r3, [r7, #0]
 8002b38:	605a      	str	r2, [r3, #4]
	pxNewListItem->pxNext->pxPrevious = pxNewListItem;
 8002b3a:	683b      	ldr	r3, [r7, #0]
 8002b3c:	685b      	ldr	r3, [r3, #4]
 8002b3e:	683a      	ldr	r2, [r7, #0]
 8002b40:	609a      	str	r2, [r3, #8]
	pxNewListItem->pxPrevious = pxIterator;
 8002b42:	683b      	ldr	r3, [r7, #0]
 8002b44:	68fa      	ldr	r2, [r7, #12]
 8002b46:	609a      	str	r2, [r3, #8]
	pxIterator->pxNext = pxNewListItem;
 8002b48:	68fb      	ldr	r3, [r7, #12]
 8002b4a:	683a      	ldr	r2, [r7, #0]
 8002b4c:	605a      	str	r2, [r3, #4]

	/* Remember which list the item is in.  This allows fast removal of the
	item later. */
	pxNewListItem->pxContainer = pxList;
 8002b4e:	683b      	ldr	r3, [r7, #0]
 8002b50:	687a      	ldr	r2, [r7, #4]
 8002b52:	611a      	str	r2, [r3, #16]

	( pxList->uxNumberOfItems )++;
 8002b54:	687b      	ldr	r3, [r7, #4]
 8002b56:	681b      	ldr	r3, [r3, #0]
 8002b58:	1c5a      	adds	r2, r3, #1
 8002b5a:	687b      	ldr	r3, [r7, #4]
 8002b5c:	601a      	str	r2, [r3, #0]
}
 8002b5e:	3714      	adds	r7, #20
 8002b60:	46bd      	mov	sp, r7
 8002b62:	f85d 7b04 	ldr.w	r7, [sp], #4
 8002b66:	4770      	bx	lr

08002b68 <uxListRemove>:
/*-----------------------------------------------------------*/

UBaseType_t uxListRemove( ListItem_t * const pxItemToRemove )
{
 8002b68:	b480      	push	{r7}
 8002b6a:	b085      	sub	sp, #20
 8002b6c:	af00      	add	r7, sp, #0
 8002b6e:	6078      	str	r0, [r7, #4]
/* The list item knows which list it is in.  Obtain the list from the list
item. */
List_t * const pxList = pxItemToRemove->pxContainer;
 8002b70:	687b      	ldr	r3, [r7, #4]
 8002b72:	691b      	ldr	r3, [r3, #16]
 8002b74:	60fb      	str	r3, [r7, #12]

	pxItemToRemove->pxNext->pxPrevious = pxItemToRemove->pxPrevious;
 8002b76:	687b      	ldr	r3, [r7, #4]
 8002b78:	685b      	ldr	r3, [r3, #4]
 8002b7a:	687a      	ldr	r2, [r7, #4]
 8002b7c:	6892      	ldr	r2, [r2, #8]
 8002b7e:	609a      	str	r2, [r3, #8]
	pxItemToRemove->pxPrevious->pxNext = pxItemToRemove->pxNext;
 8002b80:	687b      	ldr	r3, [r7, #4]
 8002b82:	689b      	ldr	r3, [r3, #8]
 8002b84:	687a      	ldr	r2, [r7, #4]
 8002b86:	6852      	ldr	r2, [r2, #4]
 8002b88:	605a      	str	r2, [r3, #4]

	/* Only used during decision coverage testing. */
	mtCOVERAGE_TEST_DELAY();

	/* Make sure the index is left pointing to a valid item. */
	if( pxList->pxIndex == pxItemToRemove )
 8002b8a:	68fb      	ldr	r3, [r7, #12]
 8002b8c:	685a      	ldr	r2, [r3, #4]
 8002b8e:	687b      	ldr	r3, [r7, #4]
 8002b90:	429a      	cmp	r2, r3
 8002b92:	d103      	bne.n	8002b9c <uxListRemove+0x34>
	{
		pxList->pxIndex = pxItemToRemove->pxPrevious;
 8002b94:	687b      	ldr	r3, [r7, #4]
 8002b96:	689a      	ldr	r2, [r3, #8]
 8002b98:	68fb      	ldr	r3, [r7, #12]
 8002b9a:	605a      	str	r2, [r3, #4]
	else
	{
		mtCOVERAGE_TEST_MARKER();
	}

	pxItemToRemove->pxContainer = NULL;
 8002b9c:	687b      	ldr	r3, [r7, #4]
 8002b9e:	2200      	movs	r2, #0
 8002ba0:	611a      	str	r2, [r3, #16]
	( pxList->uxNumberOfItems )--;
 8002ba2:	68fb      	ldr	r3, [r7, #12]
 8002ba4:	681b      	ldr	r3, [r3, #0]
 8002ba6:	1e5a      	subs	r2, r3, #1
 8002ba8:	68fb      	ldr	r3, [r7, #12]
 8002baa:	601a      	str	r2, [r3, #0]

	return pxList->uxNumberOfItems;
 8002bac:	68fb      	ldr	r3, [r7, #12]
 8002bae:	681b      	ldr	r3, [r3, #0]
}
 8002bb0:	4618      	mov	r0, r3
 8002bb2:	3714      	adds	r7, #20
 8002bb4:	46bd      	mov	sp, r7
 8002bb6:	f85d 7b04 	ldr.w	r7, [sp], #4
 8002bba:	4770      	bx	lr

08002bbc <xQueueGenericReset>:
	}														\
	taskEXIT_CRITICAL()
/*-----------------------------------------------------------*/

BaseType_t xQueueGenericReset( QueueHandle_t xQueue, BaseType_t xNewQueue )
{
 8002bbc:	b580      	push	{r7, lr}
 8002bbe:	b084      	sub	sp, #16
 8002bc0:	af00      	add	r7, sp, #0
 8002bc2:	6078      	str	r0, [r7, #4]
 8002bc4:	6039      	str	r1, [r7, #0]
Queue_t * const pxQueue = xQueue;
 8002bc6:	687b      	ldr	r3, [r7, #4]
 8002bc8:	60fb      	str	r3, [r7, #12]

	configASSERT( pxQueue );
 8002bca:	68fb      	ldr	r3, [r7, #12]
 8002bcc:	2b00      	cmp	r3, #0
 8002bce:	d109      	bne.n	8002be4 <xQueueGenericReset+0x28>

portFORCE_INLINE static void vPortRaiseBASEPRI( void )
{
uint32_t ulNewBASEPRI;

	__asm volatile
 8002bd0:	f04f 03fc 	mov.w	r3, #252	; 0xfc
 8002bd4:	f383 8811 	msr	BASEPRI, r3
 8002bd8:	f3bf 8f6f 	isb	sy
 8002bdc:	f3bf 8f4f 	dsb	sy
 8002be0:	60bb      	str	r3, [r7, #8]
 8002be2:	e7fe      	b.n	8002be2 <xQueueGenericReset+0x26>

	taskENTER_CRITICAL();
 8002be4:	f7ff fdfe 	bl	80027e4 <vPortEnterCritical>
	{
		pxQueue->u.xQueue.pcTail = pxQueue->pcHead + ( pxQueue->uxLength * pxQueue->uxItemSize ); /*lint !e9016 Pointer arithmetic allowed on char types, especially when it assists conveying intent. */
 8002be8:	68fb      	ldr	r3, [r7, #12]
 8002bea:	681a      	ldr	r2, [r3, #0]
 8002bec:	68fb      	ldr	r3, [r7, #12]
 8002bee:	6bdb      	ldr	r3, [r3, #60]	; 0x3c
 8002bf0:	68f9      	ldr	r1, [r7, #12]
 8002bf2:	6c09      	ldr	r1, [r1, #64]	; 0x40
 8002bf4:	fb01 f303 	mul.w	r3, r1, r3
 8002bf8:	441a      	add	r2, r3
 8002bfa:	68fb      	ldr	r3, [r7, #12]
 8002bfc:	609a      	str	r2, [r3, #8]
		pxQueue->uxMessagesWaiting = ( UBaseType_t ) 0U;
 8002bfe:	68fb      	ldr	r3, [r7, #12]
 8002c00:	2200      	movs	r2, #0
 8002c02:	639a      	str	r2, [r3, #56]	; 0x38
		pxQueue->pcWriteTo = pxQueue->pcHead;
 8002c04:	68fb      	ldr	r3, [r7, #12]
 8002c06:	681a      	ldr	r2, [r3, #0]
 8002c08:	68fb      	ldr	r3, [r7, #12]
 8002c0a:	605a      	str	r2, [r3, #4]
		pxQueue->u.xQueue.pcReadFrom = pxQueue->pcHead + ( ( pxQueue->uxLength - 1U ) * pxQueue->uxItemSize ); /*lint !e9016 Pointer arithmetic allowed on char types, especially when it assists conveying intent. */
 8002c0c:	68fb      	ldr	r3, [r7, #12]
 8002c0e:	681a      	ldr	r2, [r3, #0]
 8002c10:	68fb      	ldr	r3, [r7, #12]
 8002c12:	6bdb      	ldr	r3, [r3, #60]	; 0x3c
 8002c14:	3b01      	subs	r3, #1
 8002c16:	68f9      	ldr	r1, [r7, #12]
 8002c18:	6c09      	ldr	r1, [r1, #64]	; 0x40
 8002c1a:	fb01 f303 	mul.w	r3, r1, r3
 8002c1e:	441a      	add	r2, r3
 8002c20:	68fb      	ldr	r3, [r7, #12]
 8002c22:	60da      	str	r2, [r3, #12]
		pxQueue->cRxLock = queueUNLOCKED;
 8002c24:	68fb      	ldr	r3, [r7, #12]
 8002c26:	22ff      	movs	r2, #255	; 0xff
 8002c28:	f883 2044 	strb.w	r2, [r3, #68]	; 0x44
		pxQueue->cTxLock = queueUNLOCKED;
 8002c2c:	68fb      	ldr	r3, [r7, #12]
 8002c2e:	22ff      	movs	r2, #255	; 0xff
 8002c30:	f883 2045 	strb.w	r2, [r3, #69]	; 0x45

		if( xNewQueue == pdFALSE )
 8002c34:	683b      	ldr	r3, [r7, #0]
 8002c36:	2b00      	cmp	r3, #0
 8002c38:	d114      	bne.n	8002c64 <xQueueGenericReset+0xa8>
			/* If there are tasks blocked waiting to read from the queue, then
			the tasks will remain blocked as after this function exits the queue
			will still be empty.  If there are tasks blocked waiting to write to
			the queue, then one should be unblocked as after this function exits
			it will be possible to write to it. */
			if( listLIST_IS_EMPTY( &( pxQueue->xTasksWaitingToSend ) ) == pdFALSE )
 8002c3a:	68fb      	ldr	r3, [r7, #12]
 8002c3c:	691b      	ldr	r3, [r3, #16]
 8002c3e:	2b00      	cmp	r3, #0
 8002c40:	d01a      	beq.n	8002c78 <xQueueGenericReset+0xbc>
			{
				if( xTaskRemoveFromEventList( &( pxQueue->xTasksWaitingToSend ) ) != pdFALSE )
 8002c42:	68fb      	ldr	r3, [r7, #12]
 8002c44:	3310      	adds	r3, #16
 8002c46:	4618      	mov	r0, r3
 8002c48:	f001 fa76 	bl	8004138 <xTaskRemoveFromEventList>
 8002c4c:	4603      	mov	r3, r0
 8002c4e:	2b00      	cmp	r3, #0
 8002c50:	d012      	beq.n	8002c78 <xQueueGenericReset+0xbc>
				{
					queueYIELD_IF_USING_PREEMPTION();
 8002c52:	4b0d      	ldr	r3, [pc, #52]	; (8002c88 <xQueueGenericReset+0xcc>)
 8002c54:	f04f 5280 	mov.w	r2, #268435456	; 0x10000000
 8002c58:	601a      	str	r2, [r3, #0]
 8002c5a:	f3bf 8f4f 	dsb	sy
 8002c5e:	f3bf 8f6f 	isb	sy
 8002c62:	e009      	b.n	8002c78 <xQueueGenericReset+0xbc>
			}
		}
		else
		{
			/* Ensure the event queues start in the correct state. */
			vListInitialise( &( pxQueue->xTasksWaitingToSend ) );
 8002c64:	68fb      	ldr	r3, [r7, #12]
 8002c66:	3310      	adds	r3, #16
 8002c68:	4618      	mov	r0, r3
 8002c6a:	f7ff fef5 	bl	8002a58 <vListInitialise>
			vListInitialise( &( pxQueue->xTasksWaitingToReceive ) );
 8002c6e:	68fb      	ldr	r3, [r7, #12]
 8002c70:	3324      	adds	r3, #36	; 0x24
 8002c72:	4618      	mov	r0, r3
 8002c74:	f7ff fef0 	bl	8002a58 <vListInitialise>
		}
	}
	taskEXIT_CRITICAL();
 8002c78:	f7ff fde2 	bl	8002840 <vPortExitCritical>

	/* A value is returned for calling semantic consistency with previous
	versions. */
	return pdPASS;
 8002c7c:	2301      	movs	r3, #1
}
 8002c7e:	4618      	mov	r0, r3
 8002c80:	3710      	adds	r7, #16
 8002c82:	46bd      	mov	sp, r7
 8002c84:	bd80      	pop	{r7, pc}
 8002c86:	bf00      	nop
 8002c88:	e000ed04 	.word	0xe000ed04

08002c8c <xQueueGenericCreate>:
/*-----------------------------------------------------------*/

#if( configSUPPORT_DYNAMIC_ALLOCATION == 1 )

	QueueHandle_t xQueueGenericCreate( const UBaseType_t uxQueueLength, const UBaseType_t uxItemSize, const uint8_t ucQueueType )
	{
 8002c8c:	b590      	push	{r4, r7, lr}
 8002c8e:	b08b      	sub	sp, #44	; 0x2c
 8002c90:	af02      	add	r7, sp, #8
 8002c92:	60f8      	str	r0, [r7, #12]
 8002c94:	60b9      	str	r1, [r7, #8]
 8002c96:	4613      	mov	r3, r2
 8002c98:	71fb      	strb	r3, [r7, #7]
	Queue_t *pxNewQueue;
	size_t xQueueSizeInBytes;
	uint8_t *pucQueueStorage;

		configASSERT( uxQueueLength > ( UBaseType_t ) 0 );
 8002c9a:	68fb      	ldr	r3, [r7, #12]
 8002c9c:	2b00      	cmp	r3, #0
 8002c9e:	d109      	bne.n	8002cb4 <xQueueGenericCreate+0x28>
 8002ca0:	f04f 03fc 	mov.w	r3, #252	; 0xfc
 8002ca4:	f383 8811 	msr	BASEPRI, r3
 8002ca8:	f3bf 8f6f 	isb	sy
 8002cac:	f3bf 8f4f 	dsb	sy
 8002cb0:	613b      	str	r3, [r7, #16]
 8002cb2:	e7fe      	b.n	8002cb2 <xQueueGenericCreate+0x26>

		if( uxItemSize == ( UBaseType_t ) 0 )
 8002cb4:	68bb      	ldr	r3, [r7, #8]
 8002cb6:	2b00      	cmp	r3, #0
 8002cb8:	d102      	bne.n	8002cc0 <xQueueGenericCreate+0x34>
		{
			/* There is not going to be a queue storage area. */
			xQueueSizeInBytes = ( size_t ) 0;
 8002cba:	2300      	movs	r3, #0
 8002cbc:	61fb      	str	r3, [r7, #28]
 8002cbe:	e004      	b.n	8002cca <xQueueGenericCreate+0x3e>
		}
		else
		{
			/* Allocate enough space to hold the maximum number of items that
			can be in the queue at any time. */
			xQueueSizeInBytes = ( size_t ) ( uxQueueLength * uxItemSize ); /*lint !e961 MISRA exception as the casts are only redundant for some ports. */
 8002cc0:	68fb      	ldr	r3, [r7, #12]
 8002cc2:	68ba      	ldr	r2, [r7, #8]
 8002cc4:	fb02 f303 	mul.w	r3, r2, r3
 8002cc8:	61fb      	str	r3, [r7, #28]
		alignment requirements of the Queue_t structure - which in this case
		is an int8_t *.  Therefore, whenever the stack alignment requirements
		are greater than or equal to the pointer to char requirements the cast
		is safe.  In other cases alignment requirements are not strict (one or
		two bytes). */
		pxNewQueue = ( Queue_t * ) pvPortMalloc( sizeof( Queue_t ) + xQueueSizeInBytes ); /*lint !e9087 !e9079 see comment above. */
 8002cca:	69fb      	ldr	r3, [r7, #28]
 8002ccc:	3354      	adds	r3, #84	; 0x54
 8002cce:	4618      	mov	r0, r3
 8002cd0:	f7ff fe9e 	bl	8002a10 <pvPortMalloc>
 8002cd4:	61b8      	str	r0, [r7, #24]

		if( pxNewQueue != NULL )
 8002cd6:	69bb      	ldr	r3, [r7, #24]
 8002cd8:	2b00      	cmp	r3, #0
 8002cda:	d00d      	beq.n	8002cf8 <xQueueGenericCreate+0x6c>
		{
			/* Jump past the queue structure to find the location of the queue
			storage area. */
			pucQueueStorage = ( uint8_t * ) pxNewQueue;
 8002cdc:	69bb      	ldr	r3, [r7, #24]
 8002cde:	617b      	str	r3, [r7, #20]
			pucQueueStorage += sizeof( Queue_t ); /*lint !e9016 Pointer arithmetic allowed on char types, especially when it assists conveying intent. */
 8002ce0:	697b      	ldr	r3, [r7, #20]
 8002ce2:	3354      	adds	r3, #84	; 0x54
 8002ce4:	617b      	str	r3, [r7, #20]
				deleted. */
				pxNewQueue->ucStaticallyAllocated = pdFALSE;
			}
			#endif /* configSUPPORT_STATIC_ALLOCATION */

			prvInitialiseNewQueue( uxQueueLength, uxItemSize, pucQueueStorage, ucQueueType, pxNewQueue );
 8002ce6:	79fc      	ldrb	r4, [r7, #7]
 8002ce8:	69bb      	ldr	r3, [r7, #24]
 8002cea:	9300      	str	r3, [sp, #0]
 8002cec:	68f8      	ldr	r0, [r7, #12]
 8002cee:	68b9      	ldr	r1, [r7, #8]
 8002cf0:	697a      	ldr	r2, [r7, #20]
 8002cf2:	4623      	mov	r3, r4
 8002cf4:	f000 f806 	bl	8002d04 <prvInitialiseNewQueue>
		{
			traceQUEUE_CREATE_FAILED( ucQueueType );
			mtCOVERAGE_TEST_MARKER();
		}

		return pxNewQueue;
 8002cf8:	69bb      	ldr	r3, [r7, #24]
	}
 8002cfa:	4618      	mov	r0, r3
 8002cfc:	3724      	adds	r7, #36	; 0x24
 8002cfe:	46bd      	mov	sp, r7
 8002d00:	bd90      	pop	{r4, r7, pc}
 8002d02:	bf00      	nop

08002d04 <prvInitialiseNewQueue>:

#endif /* configSUPPORT_STATIC_ALLOCATION */
/*-----------------------------------------------------------*/

static void prvInitialiseNewQueue( const UBaseType_t uxQueueLength, const UBaseType_t uxItemSize, uint8_t *pucQueueStorage, const uint8_t ucQueueType, Queue_t *pxNewQueue )
{
 8002d04:	b580      	push	{r7, lr}
 8002d06:	b084      	sub	sp, #16
 8002d08:	af00      	add	r7, sp, #0
 8002d0a:	60f8      	str	r0, [r7, #12]
 8002d0c:	60b9      	str	r1, [r7, #8]
 8002d0e:	607a      	str	r2, [r7, #4]
 8002d10:	70fb      	strb	r3, [r7, #3]
	/* Remove compiler warnings about unused parameters should
	configUSE_TRACE_FACILITY not be set to 1. */
	( void ) ucQueueType;

	if( uxItemSize == ( UBaseType_t ) 0 )
 8002d12:	68bb      	ldr	r3, [r7, #8]
 8002d14:	2b00      	cmp	r3, #0
 8002d16:	d103      	bne.n	8002d20 <prvInitialiseNewQueue+0x1c>
	{
		/* No RAM was allocated for the queue storage area, but PC head cannot
		be set to NULL because NULL is used as a key to say the queue is used as
		a mutex.  Therefore just set pcHead to point to the queue as a benign
		value that is known to be within the memory map. */
		pxNewQueue->pcHead = ( int8_t * ) pxNewQueue;
 8002d18:	69bb      	ldr	r3, [r7, #24]
 8002d1a:	69ba      	ldr	r2, [r7, #24]
 8002d1c:	601a      	str	r2, [r3, #0]
 8002d1e:	e002      	b.n	8002d26 <prvInitialiseNewQueue+0x22>
	}
	else
	{
		/* Set the head to the start of the queue storage area. */
		pxNewQueue->pcHead = ( int8_t * ) pucQueueStorage;
 8002d20:	69bb      	ldr	r3, [r7, #24]
 8002d22:	687a      	ldr	r2, [r7, #4]
 8002d24:	601a      	str	r2, [r3, #0]
	}

	/* Initialise the queue members as described where the queue type is
	defined. */
	pxNewQueue->uxLength = uxQueueLength;
 8002d26:	69bb      	ldr	r3, [r7, #24]
 8002d28:	68fa      	ldr	r2, [r7, #12]
 8002d2a:	63da      	str	r2, [r3, #60]	; 0x3c
	pxNewQueue->uxItemSize = uxItemSize;
 8002d2c:	69bb      	ldr	r3, [r7, #24]
 8002d2e:	68ba      	ldr	r2, [r7, #8]
 8002d30:	641a      	str	r2, [r3, #64]	; 0x40
	( void ) xQueueGenericReset( pxNewQueue, pdTRUE );
 8002d32:	69b8      	ldr	r0, [r7, #24]
 8002d34:	2101      	movs	r1, #1
 8002d36:	f7ff ff41 	bl	8002bbc <xQueueGenericReset>

	#if ( configUSE_TRACE_FACILITY == 1 )
	{
		pxNewQueue->ucQueueType = ucQueueType;
 8002d3a:	69bb      	ldr	r3, [r7, #24]
 8002d3c:	78fa      	ldrb	r2, [r7, #3]
 8002d3e:	f883 2050 	strb.w	r2, [r3, #80]	; 0x50
	}
	#endif /* configUSE_TRACE_FACILITY */

	#if( configUSE_QUEUE_SETS == 1 )
	{
		pxNewQueue->pxQueueSetContainer = NULL;
 8002d42:	69bb      	ldr	r3, [r7, #24]
 8002d44:	2200      	movs	r2, #0
 8002d46:	649a      	str	r2, [r3, #72]	; 0x48
	}
	#endif /* configUSE_QUEUE_SETS */

	traceQUEUE_CREATE( pxNewQueue );
}
 8002d48:	3710      	adds	r7, #16
 8002d4a:	46bd      	mov	sp, r7
 8002d4c:	bd80      	pop	{r7, pc}
 8002d4e:	bf00      	nop

08002d50 <xQueueGenericSend>:

#endif /* ( ( configUSE_COUNTING_SEMAPHORES == 1 ) && ( configSUPPORT_DYNAMIC_ALLOCATION == 1 ) ) */
/*-----------------------------------------------------------*/

BaseType_t xQueueGenericSend( QueueHandle_t xQueue, const void * const pvItemToQueue, TickType_t xTicksToWait, const BaseType_t xCopyPosition )
{
 8002d50:	b580      	push	{r7, lr}
 8002d52:	b08e      	sub	sp, #56	; 0x38
 8002d54:	af00      	add	r7, sp, #0
 8002d56:	60f8      	str	r0, [r7, #12]
 8002d58:	60b9      	str	r1, [r7, #8]
 8002d5a:	607a      	str	r2, [r7, #4]
 8002d5c:	603b      	str	r3, [r7, #0]
BaseType_t xEntryTimeSet = pdFALSE, xYieldRequired;
 8002d5e:	2300      	movs	r3, #0
 8002d60:	637b      	str	r3, [r7, #52]	; 0x34
TimeOut_t xTimeOut;
Queue_t * const pxQueue = xQueue;
 8002d62:	68fb      	ldr	r3, [r7, #12]
 8002d64:	633b      	str	r3, [r7, #48]	; 0x30

	configASSERT( pxQueue );
 8002d66:	6b3b      	ldr	r3, [r7, #48]	; 0x30
 8002d68:	2b00      	cmp	r3, #0
 8002d6a:	d109      	bne.n	8002d80 <xQueueGenericSend+0x30>
 8002d6c:	f04f 03fc 	mov.w	r3, #252	; 0xfc
 8002d70:	f383 8811 	msr	BASEPRI, r3
 8002d74:	f3bf 8f6f 	isb	sy
 8002d78:	f3bf 8f4f 	dsb	sy
 8002d7c:	627b      	str	r3, [r7, #36]	; 0x24
 8002d7e:	e7fe      	b.n	8002d7e <xQueueGenericSend+0x2e>
	configASSERT( !( ( pvItemToQueue == NULL ) && ( pxQueue->uxItemSize != ( UBaseType_t ) 0U ) ) );
 8002d80:	68bb      	ldr	r3, [r7, #8]
 8002d82:	2b00      	cmp	r3, #0
 8002d84:	d103      	bne.n	8002d8e <xQueueGenericSend+0x3e>
 8002d86:	6b3b      	ldr	r3, [r7, #48]	; 0x30
 8002d88:	6c1b      	ldr	r3, [r3, #64]	; 0x40
 8002d8a:	2b00      	cmp	r3, #0
 8002d8c:	d101      	bne.n	8002d92 <xQueueGenericSend+0x42>
 8002d8e:	2301      	movs	r3, #1
 8002d90:	e000      	b.n	8002d94 <xQueueGenericSend+0x44>
 8002d92:	2300      	movs	r3, #0
 8002d94:	2b00      	cmp	r3, #0
 8002d96:	d109      	bne.n	8002dac <xQueueGenericSend+0x5c>
 8002d98:	f04f 03fc 	mov.w	r3, #252	; 0xfc
 8002d9c:	f383 8811 	msr	BASEPRI, r3
 8002da0:	f3bf 8f6f 	isb	sy
 8002da4:	f3bf 8f4f 	dsb	sy
 8002da8:	623b      	str	r3, [r7, #32]
 8002daa:	e7fe      	b.n	8002daa <xQueueGenericSend+0x5a>
	configASSERT( !( ( xCopyPosition == queueOVERWRITE ) && ( pxQueue->uxLength != 1 ) ) );
 8002dac:	683b      	ldr	r3, [r7, #0]
 8002dae:	2b02      	cmp	r3, #2
 8002db0:	d103      	bne.n	8002dba <xQueueGenericSend+0x6a>
 8002db2:	6b3b      	ldr	r3, [r7, #48]	; 0x30
 8002db4:	6bdb      	ldr	r3, [r3, #60]	; 0x3c
 8002db6:	2b01      	cmp	r3, #1
 8002db8:	d101      	bne.n	8002dbe <xQueueGenericSend+0x6e>
 8002dba:	2301      	movs	r3, #1
 8002dbc:	e000      	b.n	8002dc0 <xQueueGenericSend+0x70>
 8002dbe:	2300      	movs	r3, #0
 8002dc0:	2b00      	cmp	r3, #0
 8002dc2:	d109      	bne.n	8002dd8 <xQueueGenericSend+0x88>
 8002dc4:	f04f 03fc 	mov.w	r3, #252	; 0xfc
 8002dc8:	f383 8811 	msr	BASEPRI, r3
 8002dcc:	f3bf 8f6f 	isb	sy
 8002dd0:	f3bf 8f4f 	dsb	sy
 8002dd4:	61fb      	str	r3, [r7, #28]
 8002dd6:	e7fe      	b.n	8002dd6 <xQueueGenericSend+0x86>
	#if ( ( INCLUDE_xTaskGetSchedulerState == 1 ) || ( configUSE_TIMERS == 1 ) )
	{
		configASSERT( !( ( xTaskGetSchedulerState() == taskSCHEDULER_SUSPENDED ) && ( xTicksToWait != 0 ) ) );
 8002dd8:	f001 fb56 	bl	8004488 <xTaskGetSchedulerState>
 8002ddc:	4603      	mov	r3, r0
 8002dde:	2b00      	cmp	r3, #0
 8002de0:	d102      	bne.n	8002de8 <xQueueGenericSend+0x98>
 8002de2:	687b      	ldr	r3, [r7, #4]
 8002de4:	2b00      	cmp	r3, #0
 8002de6:	d101      	bne.n	8002dec <xQueueGenericSend+0x9c>
 8002de8:	2301      	movs	r3, #1
 8002dea:	e000      	b.n	8002dee <xQueueGenericSend+0x9e>
 8002dec:	2300      	movs	r3, #0
 8002dee:	2b00      	cmp	r3, #0
 8002df0:	d109      	bne.n	8002e06 <xQueueGenericSend+0xb6>
 8002df2:	f04f 03fc 	mov.w	r3, #252	; 0xfc
 8002df6:	f383 8811 	msr	BASEPRI, r3
 8002dfa:	f3bf 8f6f 	isb	sy
 8002dfe:	f3bf 8f4f 	dsb	sy
 8002e02:	61bb      	str	r3, [r7, #24]
 8002e04:	e7fe      	b.n	8002e04 <xQueueGenericSend+0xb4>
	/*lint -save -e904 This function relaxes the coding standard somewhat to
	allow return statements within the function itself.  This is done in the
	interest of execution time efficiency. */
	for( ;; )
	{
		taskENTER_CRITICAL();
 8002e06:	f7ff fced 	bl	80027e4 <vPortEnterCritical>
		{
			/* Is there room on the queue now?  The running task must be the
			highest priority task wanting to access the queue.  If the head item
			in the queue is to be overwritten then it does not matter if the
			queue is full. */
			if( ( pxQueue->uxMessagesWaiting < pxQueue->uxLength ) || ( xCopyPosition == queueOVERWRITE ) )
 8002e0a:	6b3b      	ldr	r3, [r7, #48]	; 0x30
 8002e0c:	6b9a      	ldr	r2, [r3, #56]	; 0x38
 8002e0e:	6b3b      	ldr	r3, [r7, #48]	; 0x30
 8002e10:	6bdb      	ldr	r3, [r3, #60]	; 0x3c
 8002e12:	429a      	cmp	r2, r3
 8002e14:	d302      	bcc.n	8002e1c <xQueueGenericSend+0xcc>
 8002e16:	683b      	ldr	r3, [r7, #0]
 8002e18:	2b02      	cmp	r3, #2
 8002e1a:	d148      	bne.n	8002eae <xQueueGenericSend+0x15e>
			{
				traceQUEUE_SEND( pxQueue );

				#if ( configUSE_QUEUE_SETS == 1 )
				{
				UBaseType_t uxPreviousMessagesWaiting = pxQueue->uxMessagesWaiting;
 8002e1c:	6b3b      	ldr	r3, [r7, #48]	; 0x30
 8002e1e:	6b9b      	ldr	r3, [r3, #56]	; 0x38
 8002e20:	62fb      	str	r3, [r7, #44]	; 0x2c

					xYieldRequired = prvCopyDataToQueue( pxQueue, pvItemToQueue, xCopyPosition );
 8002e22:	6b38      	ldr	r0, [r7, #48]	; 0x30
 8002e24:	68b9      	ldr	r1, [r7, #8]
 8002e26:	683a      	ldr	r2, [r7, #0]
 8002e28:	f000 fbf4 	bl	8003614 <prvCopyDataToQueue>
 8002e2c:	62b8      	str	r0, [r7, #40]	; 0x28

					if( pxQueue->pxQueueSetContainer != NULL )
 8002e2e:	6b3b      	ldr	r3, [r7, #48]	; 0x30
 8002e30:	6c9b      	ldr	r3, [r3, #72]	; 0x48
 8002e32:	2b00      	cmp	r3, #0
 8002e34:	d017      	beq.n	8002e66 <xQueueGenericSend+0x116>
					{
						if( ( xCopyPosition == queueOVERWRITE ) && ( uxPreviousMessagesWaiting != ( UBaseType_t ) 0 ) )
 8002e36:	683b      	ldr	r3, [r7, #0]
 8002e38:	2b02      	cmp	r3, #2
 8002e3a:	d104      	bne.n	8002e46 <xQueueGenericSend+0xf6>
 8002e3c:	6afb      	ldr	r3, [r7, #44]	; 0x2c
 8002e3e:	2b00      	cmp	r3, #0
 8002e40:	d001      	beq.n	8002e46 <xQueueGenericSend+0xf6>
 8002e42:	bf00      	nop
 8002e44:	e02f      	b.n	8002ea6 <xQueueGenericSend+0x156>
							/* Do not notify the queue set as an existing item
							was overwritten in the queue so the number of items
							in the queue has not changed. */
							mtCOVERAGE_TEST_MARKER();
						}
						else if( prvNotifyQueueSetContainer( pxQueue, xCopyPosition ) != pdFALSE )
 8002e46:	6b38      	ldr	r0, [r7, #48]	; 0x30
 8002e48:	6839      	ldr	r1, [r7, #0]
 8002e4a:	f000 fd61 	bl	8003910 <prvNotifyQueueSetContainer>
 8002e4e:	4603      	mov	r3, r0
 8002e50:	2b00      	cmp	r3, #0
 8002e52:	d028      	beq.n	8002ea6 <xQueueGenericSend+0x156>
						{
							/* The queue is a member of a queue set, and posting
							to the queue set caused a higher priority task to
							unblock. A context switch is required. */
							queueYIELD_IF_USING_PREEMPTION();
 8002e54:	4b4c      	ldr	r3, [pc, #304]	; (8002f88 <xQueueGenericSend+0x238>)
 8002e56:	f04f 5280 	mov.w	r2, #268435456	; 0x10000000
 8002e5a:	601a      	str	r2, [r3, #0]
 8002e5c:	f3bf 8f4f 	dsb	sy
 8002e60:	f3bf 8f6f 	isb	sy
 8002e64:	e01f      	b.n	8002ea6 <xQueueGenericSend+0x156>
					}
					else
					{
						/* If there was a task waiting for data to arrive on the
						queue then unblock it now. */
						if( listLIST_IS_EMPTY( &( pxQueue->xTasksWaitingToReceive ) ) == pdFALSE )
 8002e66:	6b3b      	ldr	r3, [r7, #48]	; 0x30
 8002e68:	6a5b      	ldr	r3, [r3, #36]	; 0x24
 8002e6a:	2b00      	cmp	r3, #0
 8002e6c:	d010      	beq.n	8002e90 <xQueueGenericSend+0x140>
						{
							if( xTaskRemoveFromEventList( &( pxQueue->xTasksWaitingToReceive ) ) != pdFALSE )
 8002e6e:	6b3b      	ldr	r3, [r7, #48]	; 0x30
 8002e70:	3324      	adds	r3, #36	; 0x24
 8002e72:	4618      	mov	r0, r3
 8002e74:	f001 f960 	bl	8004138 <xTaskRemoveFromEventList>
 8002e78:	4603      	mov	r3, r0
 8002e7a:	2b00      	cmp	r3, #0
 8002e7c:	d013      	beq.n	8002ea6 <xQueueGenericSend+0x156>
							{
								/* The unblocked task has a priority higher than
								our own so yield immediately.  Yes it is ok to
								do this from within the critical section - the
								kernel takes care of that. */
								queueYIELD_IF_USING_PREEMPTION();
 8002e7e:	4b42      	ldr	r3, [pc, #264]	; (8002f88 <xQueueGenericSend+0x238>)
 8002e80:	f04f 5280 	mov.w	r2, #268435456	; 0x10000000
 8002e84:	601a      	str	r2, [r3, #0]
 8002e86:	f3bf 8f4f 	dsb	sy
 8002e8a:	f3bf 8f6f 	isb	sy
 8002e8e:	e00a      	b.n	8002ea6 <xQueueGenericSend+0x156>
							else
							{
								mtCOVERAGE_TEST_MARKER();
							}
						}
						else if( xYieldRequired != pdFALSE )
 8002e90:	6abb      	ldr	r3, [r7, #40]	; 0x28
 8002e92:	2b00      	cmp	r3, #0
 8002e94:	d007      	beq.n	8002ea6 <xQueueGenericSend+0x156>
						{
							/* This path is a special case that will only get
							executed if the task was holding multiple mutexes
							and the mutexes were given back in an order that is
							different to that in which they were taken. */
							queueYIELD_IF_USING_PREEMPTION();
 8002e96:	4b3c      	ldr	r3, [pc, #240]	; (8002f88 <xQueueGenericSend+0x238>)
 8002e98:	f04f 5280 	mov.w	r2, #268435456	; 0x10000000
 8002e9c:	601a      	str	r2, [r3, #0]
 8002e9e:	f3bf 8f4f 	dsb	sy
 8002ea2:	f3bf 8f6f 	isb	sy
						mtCOVERAGE_TEST_MARKER();
					}
				}
				#endif /* configUSE_QUEUE_SETS */

				taskEXIT_CRITICAL();
 8002ea6:	f7ff fccb 	bl	8002840 <vPortExitCritical>
				return pdPASS;
 8002eaa:	2301      	movs	r3, #1
 8002eac:	e067      	b.n	8002f7e <xQueueGenericSend+0x22e>
			}
			else
			{
				if( xTicksToWait == ( TickType_t ) 0 )
 8002eae:	687b      	ldr	r3, [r7, #4]
 8002eb0:	2b00      	cmp	r3, #0
 8002eb2:	d103      	bne.n	8002ebc <xQueueGenericSend+0x16c>
				{
					/* The queue was full and no block time is specified (or
					the block time has expired) so leave now. */
					taskEXIT_CRITICAL();
 8002eb4:	f7ff fcc4 	bl	8002840 <vPortExitCritical>

					/* Return to the original privilege level before exiting
					the function. */
					traceQUEUE_SEND_FAILED( pxQueue );
					return errQUEUE_FULL;
 8002eb8:	2300      	movs	r3, #0
 8002eba:	e060      	b.n	8002f7e <xQueueGenericSend+0x22e>
				}
				else if( xEntryTimeSet == pdFALSE )
 8002ebc:	6b7b      	ldr	r3, [r7, #52]	; 0x34
 8002ebe:	2b00      	cmp	r3, #0
 8002ec0:	d106      	bne.n	8002ed0 <xQueueGenericSend+0x180>
				{
					/* The queue was full and a block time was specified so
					configure the timeout structure. */
					vTaskInternalSetTimeOutState( &xTimeOut );
 8002ec2:	f107 0310 	add.w	r3, r7, #16
 8002ec6:	4618      	mov	r0, r3
 8002ec8:	f001 f99a 	bl	8004200 <vTaskInternalSetTimeOutState>
					xEntryTimeSet = pdTRUE;
 8002ecc:	2301      	movs	r3, #1
 8002ece:	637b      	str	r3, [r7, #52]	; 0x34
					/* Entry time was already set. */
					mtCOVERAGE_TEST_MARKER();
				}
			}
		}
		taskEXIT_CRITICAL();
 8002ed0:	f7ff fcb6 	bl	8002840 <vPortExitCritical>

		/* Interrupts and other tasks can send to and receive from the queue
		now the critical section has been exited. */

		vTaskSuspendAll();
 8002ed4:	f000 ff14 	bl	8003d00 <vTaskSuspendAll>
		prvLockQueue( pxQueue );
 8002ed8:	f7ff fc84 	bl	80027e4 <vPortEnterCritical>
 8002edc:	6b3b      	ldr	r3, [r7, #48]	; 0x30
 8002ede:	f893 3044 	ldrb.w	r3, [r3, #68]	; 0x44
 8002ee2:	b2db      	uxtb	r3, r3
 8002ee4:	b25b      	sxtb	r3, r3
 8002ee6:	f1b3 3fff 	cmp.w	r3, #4294967295
 8002eea:	d103      	bne.n	8002ef4 <xQueueGenericSend+0x1a4>
 8002eec:	6b3b      	ldr	r3, [r7, #48]	; 0x30
 8002eee:	2200      	movs	r2, #0
 8002ef0:	f883 2044 	strb.w	r2, [r3, #68]	; 0x44
 8002ef4:	6b3b      	ldr	r3, [r7, #48]	; 0x30
 8002ef6:	f893 3045 	ldrb.w	r3, [r3, #69]	; 0x45
 8002efa:	b2db      	uxtb	r3, r3
 8002efc:	b25b      	sxtb	r3, r3
 8002efe:	f1b3 3fff 	cmp.w	r3, #4294967295
 8002f02:	d103      	bne.n	8002f0c <xQueueGenericSend+0x1bc>
 8002f04:	6b3b      	ldr	r3, [r7, #48]	; 0x30
 8002f06:	2200      	movs	r2, #0
 8002f08:	f883 2045 	strb.w	r2, [r3, #69]	; 0x45
 8002f0c:	f7ff fc98 	bl	8002840 <vPortExitCritical>

		/* Update the timeout state to see if it has expired yet. */
		if( xTaskCheckForTimeOut( &xTimeOut, &xTicksToWait ) == pdFALSE )
 8002f10:	f107 0210 	add.w	r2, r7, #16
 8002f14:	1d3b      	adds	r3, r7, #4
 8002f16:	4610      	mov	r0, r2
 8002f18:	4619      	mov	r1, r3
 8002f1a:	f001 f987 	bl	800422c <xTaskCheckForTimeOut>
 8002f1e:	4603      	mov	r3, r0
 8002f20:	2b00      	cmp	r3, #0
 8002f22:	d124      	bne.n	8002f6e <xQueueGenericSend+0x21e>
		{
			if( prvIsQueueFull( pxQueue ) != pdFALSE )
 8002f24:	6b38      	ldr	r0, [r7, #48]	; 0x30
 8002f26:	f000 fc7d 	bl	8003824 <prvIsQueueFull>
 8002f2a:	4603      	mov	r3, r0
 8002f2c:	2b00      	cmp	r3, #0
 8002f2e:	d018      	beq.n	8002f62 <xQueueGenericSend+0x212>
			{
				traceBLOCKING_ON_QUEUE_SEND( pxQueue );
				vTaskPlaceOnEventList( &( pxQueue->xTasksWaitingToSend ), xTicksToWait );
 8002f30:	6b3b      	ldr	r3, [r7, #48]	; 0x30
 8002f32:	f103 0210 	add.w	r2, r3, #16
 8002f36:	687b      	ldr	r3, [r7, #4]
 8002f38:	4610      	mov	r0, r2
 8002f3a:	4619      	mov	r1, r3
 8002f3c:	f001 f8b0 	bl	80040a0 <vTaskPlaceOnEventList>
				/* Unlocking the queue means queue events can effect the
				event list.  It is possible that interrupts occurring now
				remove this task from the event list again - but as the
				scheduler is suspended the task will go onto the pending
				ready last instead of the actual ready list. */
				prvUnlockQueue( pxQueue );
 8002f40:	6b38      	ldr	r0, [r7, #48]	; 0x30
 8002f42:	f000 fbf9 	bl	8003738 <prvUnlockQueue>
				/* Resuming the scheduler will move tasks from the pending
				ready list into the ready list - so it is feasible that this
				task is already in a ready list before it yields - in which
				case the yield will not cause a context switch unless there
				is also a higher priority task in the pending ready list. */
				if( xTaskResumeAll() == pdFALSE )
 8002f46:	f000 fee9 	bl	8003d1c <xTaskResumeAll>
 8002f4a:	4603      	mov	r3, r0
 8002f4c:	2b00      	cmp	r3, #0
 8002f4e:	d115      	bne.n	8002f7c <xQueueGenericSend+0x22c>
				{
					portYIELD_WITHIN_API();
 8002f50:	4b0d      	ldr	r3, [pc, #52]	; (8002f88 <xQueueGenericSend+0x238>)
 8002f52:	f04f 5280 	mov.w	r2, #268435456	; 0x10000000
 8002f56:	601a      	str	r2, [r3, #0]
 8002f58:	f3bf 8f4f 	dsb	sy
 8002f5c:	f3bf 8f6f 	isb	sy
 8002f60:	e00c      	b.n	8002f7c <xQueueGenericSend+0x22c>
				}
			}
			else
			{
				/* Try again. */
				prvUnlockQueue( pxQueue );
 8002f62:	6b38      	ldr	r0, [r7, #48]	; 0x30
 8002f64:	f000 fbe8 	bl	8003738 <prvUnlockQueue>
				( void ) xTaskResumeAll();
 8002f68:	f000 fed8 	bl	8003d1c <xTaskResumeAll>
 8002f6c:	e74b      	b.n	8002e06 <xQueueGenericSend+0xb6>
			}
		}
		else
		{
			/* The timeout has expired. */
			prvUnlockQueue( pxQueue );
 8002f6e:	6b38      	ldr	r0, [r7, #48]	; 0x30
 8002f70:	f000 fbe2 	bl	8003738 <prvUnlockQueue>
			( void ) xTaskResumeAll();
 8002f74:	f000 fed2 	bl	8003d1c <xTaskResumeAll>

			traceQUEUE_SEND_FAILED( pxQueue );
			return errQUEUE_FULL;
 8002f78:	2300      	movs	r3, #0
 8002f7a:	e000      	b.n	8002f7e <xQueueGenericSend+0x22e>
		}
	} /*lint -restore */
 8002f7c:	e743      	b.n	8002e06 <xQueueGenericSend+0xb6>
}
 8002f7e:	4618      	mov	r0, r3
 8002f80:	3738      	adds	r7, #56	; 0x38
 8002f82:	46bd      	mov	sp, r7
 8002f84:	bd80      	pop	{r7, pc}
 8002f86:	bf00      	nop
 8002f88:	e000ed04 	.word	0xe000ed04

08002f8c <xQueueGenericSendFromISR>:
/*-----------------------------------------------------------*/

BaseType_t xQueueGenericSendFromISR( QueueHandle_t xQueue, const void * const pvItemToQueue, BaseType_t * const pxHigherPriorityTaskWoken, const BaseType_t xCopyPosition )
{
 8002f8c:	b580      	push	{r7, lr}
 8002f8e:	b08e      	sub	sp, #56	; 0x38
 8002f90:	af00      	add	r7, sp, #0
 8002f92:	60f8      	str	r0, [r7, #12]
 8002f94:	60b9      	str	r1, [r7, #8]
 8002f96:	607a      	str	r2, [r7, #4]
 8002f98:	603b      	str	r3, [r7, #0]
BaseType_t xReturn;
UBaseType_t uxSavedInterruptStatus;
Queue_t * const pxQueue = xQueue;
 8002f9a:	68fb      	ldr	r3, [r7, #12]
 8002f9c:	633b      	str	r3, [r7, #48]	; 0x30

	configASSERT( pxQueue );
 8002f9e:	6b3b      	ldr	r3, [r7, #48]	; 0x30
 8002fa0:	2b00      	cmp	r3, #0
 8002fa2:	d109      	bne.n	8002fb8 <xQueueGenericSendFromISR+0x2c>
 8002fa4:	f04f 03fc 	mov.w	r3, #252	; 0xfc
 8002fa8:	f383 8811 	msr	BASEPRI, r3
 8002fac:	f3bf 8f6f 	isb	sy
 8002fb0:	f3bf 8f4f 	dsb	sy
 8002fb4:	627b      	str	r3, [r7, #36]	; 0x24
 8002fb6:	e7fe      	b.n	8002fb6 <xQueueGenericSendFromISR+0x2a>
	configASSERT( !( ( pvItemToQueue == NULL ) && ( pxQueue->uxItemSize != ( UBaseType_t ) 0U ) ) );
 8002fb8:	68bb      	ldr	r3, [r7, #8]
 8002fba:	2b00      	cmp	r3, #0
 8002fbc:	d103      	bne.n	8002fc6 <xQueueGenericSendFromISR+0x3a>
 8002fbe:	6b3b      	ldr	r3, [r7, #48]	; 0x30
 8002fc0:	6c1b      	ldr	r3, [r3, #64]	; 0x40
 8002fc2:	2b00      	cmp	r3, #0
 8002fc4:	d101      	bne.n	8002fca <xQueueGenericSendFromISR+0x3e>
 8002fc6:	2301      	movs	r3, #1
 8002fc8:	e000      	b.n	8002fcc <xQueueGenericSendFromISR+0x40>
 8002fca:	2300      	movs	r3, #0
 8002fcc:	2b00      	cmp	r3, #0
 8002fce:	d109      	bne.n	8002fe4 <xQueueGenericSendFromISR+0x58>
 8002fd0:	f04f 03fc 	mov.w	r3, #252	; 0xfc
 8002fd4:	f383 8811 	msr	BASEPRI, r3
 8002fd8:	f3bf 8f6f 	isb	sy
 8002fdc:	f3bf 8f4f 	dsb	sy
 8002fe0:	623b      	str	r3, [r7, #32]
 8002fe2:	e7fe      	b.n	8002fe2 <xQueueGenericSendFromISR+0x56>
	configASSERT( !( ( xCopyPosition == queueOVERWRITE ) && ( pxQueue->uxLength != 1 ) ) );
 8002fe4:	683b      	ldr	r3, [r7, #0]
 8002fe6:	2b02      	cmp	r3, #2
 8002fe8:	d103      	bne.n	8002ff2 <xQueueGenericSendFromISR+0x66>
 8002fea:	6b3b      	ldr	r3, [r7, #48]	; 0x30
 8002fec:	6bdb      	ldr	r3, [r3, #60]	; 0x3c
 8002fee:	2b01      	cmp	r3, #1
 8002ff0:	d101      	bne.n	8002ff6 <xQueueGenericSendFromISR+0x6a>
 8002ff2:	2301      	movs	r3, #1
 8002ff4:	e000      	b.n	8002ff8 <xQueueGenericSendFromISR+0x6c>
 8002ff6:	2300      	movs	r3, #0
 8002ff8:	2b00      	cmp	r3, #0
 8002ffa:	d109      	bne.n	8003010 <xQueueGenericSendFromISR+0x84>
 8002ffc:	f04f 03fc 	mov.w	r3, #252	; 0xfc
 8003000:	f383 8811 	msr	BASEPRI, r3
 8003004:	f3bf 8f6f 	isb	sy
 8003008:	f3bf 8f4f 	dsb	sy
 800300c:	61fb      	str	r3, [r7, #28]
 800300e:	e7fe      	b.n	800300e <xQueueGenericSendFromISR+0x82>
	that have been assigned a priority at or (logically) below the maximum
	system call	interrupt priority.  FreeRTOS maintains a separate interrupt
	safe API to ensure interrupt entry is as fast and as simple as possible.
	More information (albeit Cortex-M specific) is provided on the following
	link: http://www.freertos.org/RTOS-Cortex-M3-M4.html */
	portASSERT_IF_INTERRUPT_PRIORITY_INVALID();
 8003010:	f7ff fcc2 	bl	8002998 <vPortValidateInterruptPriority>

portFORCE_INLINE static uint32_t ulPortRaiseBASEPRI( void )
{
uint32_t ulOriginalBASEPRI, ulNewBASEPRI;

	__asm volatile
 8003014:	f3ef 8211 	mrs	r2, BASEPRI
 8003018:	f04f 03fc 	mov.w	r3, #252	; 0xfc
 800301c:	f383 8811 	msr	BASEPRI, r3
 8003020:	f3bf 8f6f 	isb	sy
 8003024:	f3bf 8f4f 	dsb	sy
 8003028:	61ba      	str	r2, [r7, #24]
 800302a:	617b      	str	r3, [r7, #20]
		:"=r" (ulOriginalBASEPRI), "=r" (ulNewBASEPRI) : "i" ( configMAX_SYSCALL_INTERRUPT_PRIORITY ) : "memory"
	);

	/* This return will not be reached but is necessary to prevent compiler
	warnings. */
	return ulOriginalBASEPRI;
 800302c:	69bb      	ldr	r3, [r7, #24]
	/* Similar to xQueueGenericSend, except without blocking if there is no room
	in the queue.  Also don't directly wake a task that was blocked on a queue
	read, instead return a flag to say whether a context switch is required or
	not (i.e. has a task with a higher priority than us been woken by this
	post). */
	uxSavedInterruptStatus = portSET_INTERRUPT_MASK_FROM_ISR();
 800302e:	62fb      	str	r3, [r7, #44]	; 0x2c
	{
		if( ( pxQueue->uxMessagesWaiting < pxQueue->uxLength ) || ( xCopyPosition == queueOVERWRITE ) )
 8003030:	6b3b      	ldr	r3, [r7, #48]	; 0x30
 8003032:	6b9a      	ldr	r2, [r3, #56]	; 0x38
 8003034:	6b3b      	ldr	r3, [r7, #48]	; 0x30
 8003036:	6bdb      	ldr	r3, [r3, #60]	; 0x3c
 8003038:	429a      	cmp	r2, r3
 800303a:	d302      	bcc.n	8003042 <xQueueGenericSendFromISR+0xb6>
 800303c:	683b      	ldr	r3, [r7, #0]
 800303e:	2b02      	cmp	r3, #2
 8003040:	d13e      	bne.n	80030c0 <xQueueGenericSendFromISR+0x134>
		{
			const int8_t cTxLock = pxQueue->cTxLock;
 8003042:	6b3b      	ldr	r3, [r7, #48]	; 0x30
 8003044:	f893 3045 	ldrb.w	r3, [r3, #69]	; 0x45
 8003048:	f887 302b 	strb.w	r3, [r7, #43]	; 0x2b
			/* Semaphores use xQueueGiveFromISR(), so pxQueue will not be a
			semaphore or mutex.  That means prvCopyDataToQueue() cannot result
			in a task disinheriting a priority and prvCopyDataToQueue() can be
			called here even though the disinherit function does not check if
			the scheduler is suspended before accessing the ready lists. */
			( void ) prvCopyDataToQueue( pxQueue, pvItemToQueue, xCopyPosition );
 800304c:	6b38      	ldr	r0, [r7, #48]	; 0x30
 800304e:	68b9      	ldr	r1, [r7, #8]
 8003050:	683a      	ldr	r2, [r7, #0]
 8003052:	f000 fadf 	bl	8003614 <prvCopyDataToQueue>

			/* The event list is not altered if the queue is locked.  This will
			be done when the queue is unlocked later. */
			if( cTxLock == queueUNLOCKED )
 8003056:	f997 302b 	ldrsb.w	r3, [r7, #43]	; 0x2b
 800305a:	f1b3 3fff 	cmp.w	r3, #4294967295
 800305e:	d124      	bne.n	80030aa <xQueueGenericSendFromISR+0x11e>
			{
				#if ( configUSE_QUEUE_SETS == 1 )
				{
					if( pxQueue->pxQueueSetContainer != NULL )
 8003060:	6b3b      	ldr	r3, [r7, #48]	; 0x30
 8003062:	6c9b      	ldr	r3, [r3, #72]	; 0x48
 8003064:	2b00      	cmp	r3, #0
 8003066:	d00d      	beq.n	8003084 <xQueueGenericSendFromISR+0xf8>
					{
						if( prvNotifyQueueSetContainer( pxQueue, xCopyPosition ) != pdFALSE )
 8003068:	6b38      	ldr	r0, [r7, #48]	; 0x30
 800306a:	6839      	ldr	r1, [r7, #0]
 800306c:	f000 fc50 	bl	8003910 <prvNotifyQueueSetContainer>
 8003070:	4603      	mov	r3, r0
 8003072:	2b00      	cmp	r3, #0
 8003074:	d021      	beq.n	80030ba <xQueueGenericSendFromISR+0x12e>
						{
							/* The queue is a member of a queue set, and posting
							to the queue set caused a higher priority task to
							unblock.  A context switch is required. */
							if( pxHigherPriorityTaskWoken != NULL )
 8003076:	687b      	ldr	r3, [r7, #4]
 8003078:	2b00      	cmp	r3, #0
 800307a:	d01e      	beq.n	80030ba <xQueueGenericSendFromISR+0x12e>
							{
								*pxHigherPriorityTaskWoken = pdTRUE;
 800307c:	687b      	ldr	r3, [r7, #4]
 800307e:	2201      	movs	r2, #1
 8003080:	601a      	str	r2, [r3, #0]
 8003082:	e01a      	b.n	80030ba <xQueueGenericSendFromISR+0x12e>
							mtCOVERAGE_TEST_MARKER();
						}
					}
					else
					{
						if( listLIST_IS_EMPTY( &( pxQueue->xTasksWaitingToReceive ) ) == pdFALSE )
 8003084:	6b3b      	ldr	r3, [r7, #48]	; 0x30
 8003086:	6a5b      	ldr	r3, [r3, #36]	; 0x24
 8003088:	2b00      	cmp	r3, #0
 800308a:	d016      	beq.n	80030ba <xQueueGenericSendFromISR+0x12e>
						{
							if( xTaskRemoveFromEventList( &( pxQueue->xTasksWaitingToReceive ) ) != pdFALSE )
 800308c:	6b3b      	ldr	r3, [r7, #48]	; 0x30
 800308e:	3324      	adds	r3, #36	; 0x24
 8003090:	4618      	mov	r0, r3
 8003092:	f001 f851 	bl	8004138 <xTaskRemoveFromEventList>
 8003096:	4603      	mov	r3, r0
 8003098:	2b00      	cmp	r3, #0
 800309a:	d00e      	beq.n	80030ba <xQueueGenericSendFromISR+0x12e>
							{
								/* The task waiting has a higher priority so
								record that a context switch is required. */
								if( pxHigherPriorityTaskWoken != NULL )
 800309c:	687b      	ldr	r3, [r7, #4]
 800309e:	2b00      	cmp	r3, #0
 80030a0:	d00b      	beq.n	80030ba <xQueueGenericSendFromISR+0x12e>
								{
									*pxHigherPriorityTaskWoken = pdTRUE;
 80030a2:	687b      	ldr	r3, [r7, #4]
 80030a4:	2201      	movs	r2, #1
 80030a6:	601a      	str	r2, [r3, #0]
 80030a8:	e007      	b.n	80030ba <xQueueGenericSendFromISR+0x12e>
			}
			else
			{
				/* Increment the lock count so the task that unlocks the queue
				knows that data was posted while it was locked. */
				pxQueue->cTxLock = ( int8_t ) ( cTxLock + 1 );
 80030aa:	f897 302b 	ldrb.w	r3, [r7, #43]	; 0x2b
 80030ae:	3301      	adds	r3, #1
 80030b0:	b2db      	uxtb	r3, r3
 80030b2:	b2da      	uxtb	r2, r3
 80030b4:	6b3b      	ldr	r3, [r7, #48]	; 0x30
 80030b6:	f883 2045 	strb.w	r2, [r3, #69]	; 0x45
			}

			xReturn = pdPASS;
 80030ba:	2301      	movs	r3, #1
 80030bc:	637b      	str	r3, [r7, #52]	; 0x34
	not (i.e. has a task with a higher priority than us been woken by this
	post). */
	uxSavedInterruptStatus = portSET_INTERRUPT_MASK_FROM_ISR();
	{
		if( ( pxQueue->uxMessagesWaiting < pxQueue->uxLength ) || ( xCopyPosition == queueOVERWRITE ) )
		{
 80030be:	e001      	b.n	80030c4 <xQueueGenericSendFromISR+0x138>
			xReturn = pdPASS;
		}
		else
		{
			traceQUEUE_SEND_FROM_ISR_FAILED( pxQueue );
			xReturn = errQUEUE_FULL;
 80030c0:	2300      	movs	r3, #0
 80030c2:	637b      	str	r3, [r7, #52]	; 0x34
 80030c4:	6afb      	ldr	r3, [r7, #44]	; 0x2c
 80030c6:	613b      	str	r3, [r7, #16]
}
/*-----------------------------------------------------------*/

portFORCE_INLINE static void vPortSetBASEPRI( uint32_t ulNewMaskValue )
{
	__asm volatile
 80030c8:	693b      	ldr	r3, [r7, #16]
 80030ca:	f383 8811 	msr	BASEPRI, r3
		}
	}
	portCLEAR_INTERRUPT_MASK_FROM_ISR( uxSavedInterruptStatus );

	return xReturn;
 80030ce:	6b7b      	ldr	r3, [r7, #52]	; 0x34
}
 80030d0:	4618      	mov	r0, r3
 80030d2:	3738      	adds	r7, #56	; 0x38
 80030d4:	46bd      	mov	sp, r7
 80030d6:	bd80      	pop	{r7, pc}

080030d8 <xQueueGiveFromISR>:
/*-----------------------------------------------------------*/

BaseType_t xQueueGiveFromISR( QueueHandle_t xQueue, BaseType_t * const pxHigherPriorityTaskWoken )
{
 80030d8:	b580      	push	{r7, lr}
 80030da:	b08e      	sub	sp, #56	; 0x38
 80030dc:	af00      	add	r7, sp, #0
 80030de:	6078      	str	r0, [r7, #4]
 80030e0:	6039      	str	r1, [r7, #0]
BaseType_t xReturn;
UBaseType_t uxSavedInterruptStatus;
Queue_t * const pxQueue = xQueue;
 80030e2:	687b      	ldr	r3, [r7, #4]
 80030e4:	633b      	str	r3, [r7, #48]	; 0x30
	item size is 0.  Don't directly wake a task that was blocked on a queue
	read, instead return a flag to say whether a context switch is required or
	not (i.e. has a task with a higher priority than us been woken by this
	post). */

	configASSERT( pxQueue );
 80030e6:	6b3b      	ldr	r3, [r7, #48]	; 0x30
 80030e8:	2b00      	cmp	r3, #0
 80030ea:	d109      	bne.n	8003100 <xQueueGiveFromISR+0x28>

portFORCE_INLINE static void vPortRaiseBASEPRI( void )
{
uint32_t ulNewBASEPRI;

	__asm volatile
 80030ec:	f04f 03fc 	mov.w	r3, #252	; 0xfc
 80030f0:	f383 8811 	msr	BASEPRI, r3
 80030f4:	f3bf 8f6f 	isb	sy
 80030f8:	f3bf 8f4f 	dsb	sy
 80030fc:	623b      	str	r3, [r7, #32]
 80030fe:	e7fe      	b.n	80030fe <xQueueGiveFromISR+0x26>

	/* xQueueGenericSendFromISR() should be used instead of xQueueGiveFromISR()
	if the item size is not 0. */
	configASSERT( pxQueue->uxItemSize == 0 );
 8003100:	6b3b      	ldr	r3, [r7, #48]	; 0x30
 8003102:	6c1b      	ldr	r3, [r3, #64]	; 0x40
 8003104:	2b00      	cmp	r3, #0
 8003106:	d009      	beq.n	800311c <xQueueGiveFromISR+0x44>
 8003108:	f04f 03fc 	mov.w	r3, #252	; 0xfc
 800310c:	f383 8811 	msr	BASEPRI, r3
 8003110:	f3bf 8f6f 	isb	sy
 8003114:	f3bf 8f4f 	dsb	sy
 8003118:	61fb      	str	r3, [r7, #28]
 800311a:	e7fe      	b.n	800311a <xQueueGiveFromISR+0x42>

	/* Normally a mutex would not be given from an interrupt, especially if
	there is a mutex holder, as priority inheritance makes no sense for an
	interrupts, only tasks. */
	configASSERT( !( ( pxQueue->uxQueueType == queueQUEUE_IS_MUTEX ) && ( pxQueue->u.xSemaphore.xMutexHolder != NULL ) ) );
 800311c:	6b3b      	ldr	r3, [r7, #48]	; 0x30
 800311e:	681b      	ldr	r3, [r3, #0]
 8003120:	2b00      	cmp	r3, #0
 8003122:	d103      	bne.n	800312c <xQueueGiveFromISR+0x54>
 8003124:	6b3b      	ldr	r3, [r7, #48]	; 0x30
 8003126:	689b      	ldr	r3, [r3, #8]
 8003128:	2b00      	cmp	r3, #0
 800312a:	d101      	bne.n	8003130 <xQueueGiveFromISR+0x58>
 800312c:	2301      	movs	r3, #1
 800312e:	e000      	b.n	8003132 <xQueueGiveFromISR+0x5a>
 8003130:	2300      	movs	r3, #0
 8003132:	2b00      	cmp	r3, #0
 8003134:	d109      	bne.n	800314a <xQueueGiveFromISR+0x72>
 8003136:	f04f 03fc 	mov.w	r3, #252	; 0xfc
 800313a:	f383 8811 	msr	BASEPRI, r3
 800313e:	f3bf 8f6f 	isb	sy
 8003142:	f3bf 8f4f 	dsb	sy
 8003146:	61bb      	str	r3, [r7, #24]
 8003148:	e7fe      	b.n	8003148 <xQueueGiveFromISR+0x70>
	that have been assigned a priority at or (logically) below the maximum
	system call	interrupt priority.  FreeRTOS maintains a separate interrupt
	safe API to ensure interrupt entry is as fast and as simple as possible.
	More information (albeit Cortex-M specific) is provided on the following
	link: http://www.freertos.org/RTOS-Cortex-M3-M4.html */
	portASSERT_IF_INTERRUPT_PRIORITY_INVALID();
 800314a:	f7ff fc25 	bl	8002998 <vPortValidateInterruptPriority>

portFORCE_INLINE static uint32_t ulPortRaiseBASEPRI( void )
{
uint32_t ulOriginalBASEPRI, ulNewBASEPRI;

	__asm volatile
 800314e:	f3ef 8211 	mrs	r2, BASEPRI
 8003152:	f04f 03fc 	mov.w	r3, #252	; 0xfc
 8003156:	f383 8811 	msr	BASEPRI, r3
 800315a:	f3bf 8f6f 	isb	sy
 800315e:	f3bf 8f4f 	dsb	sy
 8003162:	617a      	str	r2, [r7, #20]
 8003164:	613b      	str	r3, [r7, #16]
		:"=r" (ulOriginalBASEPRI), "=r" (ulNewBASEPRI) : "i" ( configMAX_SYSCALL_INTERRUPT_PRIORITY ) : "memory"
	);

	/* This return will not be reached but is necessary to prevent compiler
	warnings. */
	return ulOriginalBASEPRI;
 8003166:	697b      	ldr	r3, [r7, #20]

	uxSavedInterruptStatus = portSET_INTERRUPT_MASK_FROM_ISR();
 8003168:	62fb      	str	r3, [r7, #44]	; 0x2c
	{
		const UBaseType_t uxMessagesWaiting = pxQueue->uxMessagesWaiting;
 800316a:	6b3b      	ldr	r3, [r7, #48]	; 0x30
 800316c:	6b9b      	ldr	r3, [r3, #56]	; 0x38
 800316e:	62bb      	str	r3, [r7, #40]	; 0x28

		/* When the queue is used to implement a semaphore no data is ever
		moved through the queue but it is still valid to see if the queue 'has
		space'. */
		if( uxMessagesWaiting < pxQueue->uxLength )
 8003170:	6b3b      	ldr	r3, [r7, #48]	; 0x30
 8003172:	6bda      	ldr	r2, [r3, #60]	; 0x3c
 8003174:	6abb      	ldr	r3, [r7, #40]	; 0x28
 8003176:	429a      	cmp	r2, r3
 8003178:	d93d      	bls.n	80031f6 <xQueueGiveFromISR+0x11e>
		{
			const int8_t cTxLock = pxQueue->cTxLock;
 800317a:	6b3b      	ldr	r3, [r7, #48]	; 0x30
 800317c:	f893 3045 	ldrb.w	r3, [r3, #69]	; 0x45
 8003180:	f887 3027 	strb.w	r3, [r7, #39]	; 0x27
			holder - and if there is a mutex holder then the mutex cannot be
			given from an ISR.  As this is the ISR version of the function it
			can be assumed there is no mutex holder and no need to determine if
			priority disinheritance is needed.  Simply increase the count of
			messages (semaphores) available. */
			pxQueue->uxMessagesWaiting = uxMessagesWaiting + ( UBaseType_t ) 1;
 8003184:	6abb      	ldr	r3, [r7, #40]	; 0x28
 8003186:	1c5a      	adds	r2, r3, #1
 8003188:	6b3b      	ldr	r3, [r7, #48]	; 0x30
 800318a:	639a      	str	r2, [r3, #56]	; 0x38

			/* The event list is not altered if the queue is locked.  This will
			be done when the queue is unlocked later. */
			if( cTxLock == queueUNLOCKED )
 800318c:	f997 3027 	ldrsb.w	r3, [r7, #39]	; 0x27
 8003190:	f1b3 3fff 	cmp.w	r3, #4294967295
 8003194:	d124      	bne.n	80031e0 <xQueueGiveFromISR+0x108>
			{
				#if ( configUSE_QUEUE_SETS == 1 )
				{
					if( pxQueue->pxQueueSetContainer != NULL )
 8003196:	6b3b      	ldr	r3, [r7, #48]	; 0x30
 8003198:	6c9b      	ldr	r3, [r3, #72]	; 0x48
 800319a:	2b00      	cmp	r3, #0
 800319c:	d00d      	beq.n	80031ba <xQueueGiveFromISR+0xe2>
					{
						if( prvNotifyQueueSetContainer( pxQueue, queueSEND_TO_BACK ) != pdFALSE )
 800319e:	6b38      	ldr	r0, [r7, #48]	; 0x30
 80031a0:	2100      	movs	r1, #0
 80031a2:	f000 fbb5 	bl	8003910 <prvNotifyQueueSetContainer>
 80031a6:	4603      	mov	r3, r0
 80031a8:	2b00      	cmp	r3, #0
 80031aa:	d021      	beq.n	80031f0 <xQueueGiveFromISR+0x118>
						{
							/* The semaphore is a member of a queue set, and
							posting	to the queue set caused a higher priority
							task to	unblock.  A context switch is required. */
							if( pxHigherPriorityTaskWoken != NULL )
 80031ac:	683b      	ldr	r3, [r7, #0]
 80031ae:	2b00      	cmp	r3, #0
 80031b0:	d01e      	beq.n	80031f0 <xQueueGiveFromISR+0x118>
							{
								*pxHigherPriorityTaskWoken = pdTRUE;
 80031b2:	683b      	ldr	r3, [r7, #0]
 80031b4:	2201      	movs	r2, #1
 80031b6:	601a      	str	r2, [r3, #0]
 80031b8:	e01a      	b.n	80031f0 <xQueueGiveFromISR+0x118>
							mtCOVERAGE_TEST_MARKER();
						}
					}
					else
					{
						if( listLIST_IS_EMPTY( &( pxQueue->xTasksWaitingToReceive ) ) == pdFALSE )
 80031ba:	6b3b      	ldr	r3, [r7, #48]	; 0x30
 80031bc:	6a5b      	ldr	r3, [r3, #36]	; 0x24
 80031be:	2b00      	cmp	r3, #0
 80031c0:	d016      	beq.n	80031f0 <xQueueGiveFromISR+0x118>
						{
							if( xTaskRemoveFromEventList( &( pxQueue->xTasksWaitingToReceive ) ) != pdFALSE )
 80031c2:	6b3b      	ldr	r3, [r7, #48]	; 0x30
 80031c4:	3324      	adds	r3, #36	; 0x24
 80031c6:	4618      	mov	r0, r3
 80031c8:	f000 ffb6 	bl	8004138 <xTaskRemoveFromEventList>
 80031cc:	4603      	mov	r3, r0
 80031ce:	2b00      	cmp	r3, #0
 80031d0:	d00e      	beq.n	80031f0 <xQueueGiveFromISR+0x118>
							{
								/* The task waiting has a higher priority so
								record that a context switch is required. */
								if( pxHigherPriorityTaskWoken != NULL )
 80031d2:	683b      	ldr	r3, [r7, #0]
 80031d4:	2b00      	cmp	r3, #0
 80031d6:	d00b      	beq.n	80031f0 <xQueueGiveFromISR+0x118>
								{
									*pxHigherPriorityTaskWoken = pdTRUE;
 80031d8:	683b      	ldr	r3, [r7, #0]
 80031da:	2201      	movs	r2, #1
 80031dc:	601a      	str	r2, [r3, #0]
 80031de:	e007      	b.n	80031f0 <xQueueGiveFromISR+0x118>
			}
			else
			{
				/* Increment the lock count so the task that unlocks the queue
				knows that data was posted while it was locked. */
				pxQueue->cTxLock = ( int8_t ) ( cTxLock + 1 );
 80031e0:	f897 3027 	ldrb.w	r3, [r7, #39]	; 0x27
 80031e4:	3301      	adds	r3, #1
 80031e6:	b2db      	uxtb	r3, r3
 80031e8:	b2da      	uxtb	r2, r3
 80031ea:	6b3b      	ldr	r3, [r7, #48]	; 0x30
 80031ec:	f883 2045 	strb.w	r2, [r3, #69]	; 0x45
			}

			xReturn = pdPASS;
 80031f0:	2301      	movs	r3, #1
 80031f2:	637b      	str	r3, [r7, #52]	; 0x34
 80031f4:	e001      	b.n	80031fa <xQueueGiveFromISR+0x122>
		}
		else
		{
			traceQUEUE_SEND_FROM_ISR_FAILED( pxQueue );
			xReturn = errQUEUE_FULL;
 80031f6:	2300      	movs	r3, #0
 80031f8:	637b      	str	r3, [r7, #52]	; 0x34
 80031fa:	6afb      	ldr	r3, [r7, #44]	; 0x2c
 80031fc:	60fb      	str	r3, [r7, #12]
}
/*-----------------------------------------------------------*/

portFORCE_INLINE static void vPortSetBASEPRI( uint32_t ulNewMaskValue )
{
	__asm volatile
 80031fe:	68fb      	ldr	r3, [r7, #12]
 8003200:	f383 8811 	msr	BASEPRI, r3
		}
	}
	portCLEAR_INTERRUPT_MASK_FROM_ISR( uxSavedInterruptStatus );

	return xReturn;
 8003204:	6b7b      	ldr	r3, [r7, #52]	; 0x34
}
 8003206:	4618      	mov	r0, r3
 8003208:	3738      	adds	r7, #56	; 0x38
 800320a:	46bd      	mov	sp, r7
 800320c:	bd80      	pop	{r7, pc}
 800320e:	bf00      	nop

08003210 <xQueueReceive>:
/*-----------------------------------------------------------*/

BaseType_t xQueueReceive( QueueHandle_t xQueue, void * const pvBuffer, TickType_t xTicksToWait )
{
 8003210:	b580      	push	{r7, lr}
 8003212:	b08c      	sub	sp, #48	; 0x30
 8003214:	af00      	add	r7, sp, #0
 8003216:	60f8      	str	r0, [r7, #12]
 8003218:	60b9      	str	r1, [r7, #8]
 800321a:	607a      	str	r2, [r7, #4]
BaseType_t xEntryTimeSet = pdFALSE;
 800321c:	2300      	movs	r3, #0
 800321e:	62fb      	str	r3, [r7, #44]	; 0x2c
TimeOut_t xTimeOut;
Queue_t * const pxQueue = xQueue;
 8003220:	68fb      	ldr	r3, [r7, #12]
 8003222:	62bb      	str	r3, [r7, #40]	; 0x28

	/* Check the pointer is not NULL. */
	configASSERT( ( pxQueue ) );
 8003224:	6abb      	ldr	r3, [r7, #40]	; 0x28
 8003226:	2b00      	cmp	r3, #0
 8003228:	d109      	bne.n	800323e <xQueueReceive+0x2e>

portFORCE_INLINE static void vPortRaiseBASEPRI( void )
{
uint32_t ulNewBASEPRI;

	__asm volatile
 800322a:	f04f 03fc 	mov.w	r3, #252	; 0xfc
 800322e:	f383 8811 	msr	BASEPRI, r3
 8003232:	f3bf 8f6f 	isb	sy
 8003236:	f3bf 8f4f 	dsb	sy
 800323a:	623b      	str	r3, [r7, #32]
 800323c:	e7fe      	b.n	800323c <xQueueReceive+0x2c>

	/* The buffer into which data is received can only be NULL if the data size
	is zero (so no data is copied into the buffer. */
	configASSERT( !( ( ( pvBuffer ) == NULL ) && ( ( pxQueue )->uxItemSize != ( UBaseType_t ) 0U ) ) );
 800323e:	68bb      	ldr	r3, [r7, #8]
 8003240:	2b00      	cmp	r3, #0
 8003242:	d103      	bne.n	800324c <xQueueReceive+0x3c>
 8003244:	6abb      	ldr	r3, [r7, #40]	; 0x28
 8003246:	6c1b      	ldr	r3, [r3, #64]	; 0x40
 8003248:	2b00      	cmp	r3, #0
 800324a:	d101      	bne.n	8003250 <xQueueReceive+0x40>
 800324c:	2301      	movs	r3, #1
 800324e:	e000      	b.n	8003252 <xQueueReceive+0x42>
 8003250:	2300      	movs	r3, #0
 8003252:	2b00      	cmp	r3, #0
 8003254:	d109      	bne.n	800326a <xQueueReceive+0x5a>
 8003256:	f04f 03fc 	mov.w	r3, #252	; 0xfc
 800325a:	f383 8811 	msr	BASEPRI, r3
 800325e:	f3bf 8f6f 	isb	sy
 8003262:	f3bf 8f4f 	dsb	sy
 8003266:	61fb      	str	r3, [r7, #28]
 8003268:	e7fe      	b.n	8003268 <xQueueReceive+0x58>

	/* Cannot block if the scheduler is suspended. */
	#if ( ( INCLUDE_xTaskGetSchedulerState == 1 ) || ( configUSE_TIMERS == 1 ) )
	{
		configASSERT( !( ( xTaskGetSchedulerState() == taskSCHEDULER_SUSPENDED ) && ( xTicksToWait != 0 ) ) );
 800326a:	f001 f90d 	bl	8004488 <xTaskGetSchedulerState>
 800326e:	4603      	mov	r3, r0
 8003270:	2b00      	cmp	r3, #0
 8003272:	d102      	bne.n	800327a <xQueueReceive+0x6a>
 8003274:	687b      	ldr	r3, [r7, #4]
 8003276:	2b00      	cmp	r3, #0
 8003278:	d101      	bne.n	800327e <xQueueReceive+0x6e>
 800327a:	2301      	movs	r3, #1
 800327c:	e000      	b.n	8003280 <xQueueReceive+0x70>
 800327e:	2300      	movs	r3, #0
 8003280:	2b00      	cmp	r3, #0
 8003282:	d109      	bne.n	8003298 <xQueueReceive+0x88>
 8003284:	f04f 03fc 	mov.w	r3, #252	; 0xfc
 8003288:	f383 8811 	msr	BASEPRI, r3
 800328c:	f3bf 8f6f 	isb	sy
 8003290:	f3bf 8f4f 	dsb	sy
 8003294:	61bb      	str	r3, [r7, #24]
 8003296:	e7fe      	b.n	8003296 <xQueueReceive+0x86>
	/*lint -save -e904  This function relaxes the coding standard somewhat to
	allow return statements within the function itself.  This is done in the
	interest of execution time efficiency. */
	for( ;; )
	{
		taskENTER_CRITICAL();
 8003298:	f7ff faa4 	bl	80027e4 <vPortEnterCritical>
		{
			const UBaseType_t uxMessagesWaiting = pxQueue->uxMessagesWaiting;
 800329c:	6abb      	ldr	r3, [r7, #40]	; 0x28
 800329e:	6b9b      	ldr	r3, [r3, #56]	; 0x38
 80032a0:	627b      	str	r3, [r7, #36]	; 0x24

			/* Is there data in the queue now?  To be running the calling task
			must be the highest priority task wanting to access the queue. */
			if( uxMessagesWaiting > ( UBaseType_t ) 0 )
 80032a2:	6a7b      	ldr	r3, [r7, #36]	; 0x24
 80032a4:	2b00      	cmp	r3, #0
 80032a6:	d01f      	beq.n	80032e8 <xQueueReceive+0xd8>
			{
				/* Data available, remove one item. */
				prvCopyDataFromQueue( pxQueue, pvBuffer );
 80032a8:	6ab8      	ldr	r0, [r7, #40]	; 0x28
 80032aa:	68b9      	ldr	r1, [r7, #8]
 80032ac:	f000 fa1e 	bl	80036ec <prvCopyDataFromQueue>
				traceQUEUE_RECEIVE( pxQueue );
				pxQueue->uxMessagesWaiting = uxMessagesWaiting - ( UBaseType_t ) 1;
 80032b0:	6a7b      	ldr	r3, [r7, #36]	; 0x24
 80032b2:	1e5a      	subs	r2, r3, #1
 80032b4:	6abb      	ldr	r3, [r7, #40]	; 0x28
 80032b6:	639a      	str	r2, [r3, #56]	; 0x38

				/* There is now space in the queue, were any tasks waiting to
				post to the queue?  If so, unblock the highest priority waiting
				task. */
				if( listLIST_IS_EMPTY( &( pxQueue->xTasksWaitingToSend ) ) == pdFALSE )
 80032b8:	6abb      	ldr	r3, [r7, #40]	; 0x28
 80032ba:	691b      	ldr	r3, [r3, #16]
 80032bc:	2b00      	cmp	r3, #0
 80032be:	d00f      	beq.n	80032e0 <xQueueReceive+0xd0>
				{
					if( xTaskRemoveFromEventList( &( pxQueue->xTasksWaitingToSend ) ) != pdFALSE )
 80032c0:	6abb      	ldr	r3, [r7, #40]	; 0x28
 80032c2:	3310      	adds	r3, #16
 80032c4:	4618      	mov	r0, r3
 80032c6:	f000 ff37 	bl	8004138 <xTaskRemoveFromEventList>
 80032ca:	4603      	mov	r3, r0
 80032cc:	2b00      	cmp	r3, #0
 80032ce:	d007      	beq.n	80032e0 <xQueueReceive+0xd0>
					{
						queueYIELD_IF_USING_PREEMPTION();
 80032d0:	4b3e      	ldr	r3, [pc, #248]	; (80033cc <xQueueReceive+0x1bc>)
 80032d2:	f04f 5280 	mov.w	r2, #268435456	; 0x10000000
 80032d6:	601a      	str	r2, [r3, #0]
 80032d8:	f3bf 8f4f 	dsb	sy
 80032dc:	f3bf 8f6f 	isb	sy
				else
				{
					mtCOVERAGE_TEST_MARKER();
				}

				taskEXIT_CRITICAL();
 80032e0:	f7ff faae 	bl	8002840 <vPortExitCritical>
				return pdPASS;
 80032e4:	2301      	movs	r3, #1
 80032e6:	e06d      	b.n	80033c4 <xQueueReceive+0x1b4>
			}
			else
			{
				if( xTicksToWait == ( TickType_t ) 0 )
 80032e8:	687b      	ldr	r3, [r7, #4]
 80032ea:	2b00      	cmp	r3, #0
 80032ec:	d103      	bne.n	80032f6 <xQueueReceive+0xe6>
				{
					/* The queue was empty and no block time is specified (or
					the block time has expired) so leave now. */
					taskEXIT_CRITICAL();
 80032ee:	f7ff faa7 	bl	8002840 <vPortExitCritical>
					traceQUEUE_RECEIVE_FAILED( pxQueue );
					return errQUEUE_EMPTY;
 80032f2:	2300      	movs	r3, #0
 80032f4:	e066      	b.n	80033c4 <xQueueReceive+0x1b4>
				}
				else if( xEntryTimeSet == pdFALSE )
 80032f6:	6afb      	ldr	r3, [r7, #44]	; 0x2c
 80032f8:	2b00      	cmp	r3, #0
 80032fa:	d106      	bne.n	800330a <xQueueReceive+0xfa>
				{
					/* The queue was empty and a block time was specified so
					configure the timeout structure. */
					vTaskInternalSetTimeOutState( &xTimeOut );
 80032fc:	f107 0310 	add.w	r3, r7, #16
 8003300:	4618      	mov	r0, r3
 8003302:	f000 ff7d 	bl	8004200 <vTaskInternalSetTimeOutState>
					xEntryTimeSet = pdTRUE;
 8003306:	2301      	movs	r3, #1
 8003308:	62fb      	str	r3, [r7, #44]	; 0x2c
					/* Entry time was already set. */
					mtCOVERAGE_TEST_MARKER();
				}
			}
		}
		taskEXIT_CRITICAL();
 800330a:	f7ff fa99 	bl	8002840 <vPortExitCritical>

		/* Interrupts and other tasks can send to and receive from the queue
		now the critical section has been exited. */

		vTaskSuspendAll();
 800330e:	f000 fcf7 	bl	8003d00 <vTaskSuspendAll>
		prvLockQueue( pxQueue );
 8003312:	f7ff fa67 	bl	80027e4 <vPortEnterCritical>
 8003316:	6abb      	ldr	r3, [r7, #40]	; 0x28
 8003318:	f893 3044 	ldrb.w	r3, [r3, #68]	; 0x44
 800331c:	b2db      	uxtb	r3, r3
 800331e:	b25b      	sxtb	r3, r3
 8003320:	f1b3 3fff 	cmp.w	r3, #4294967295
 8003324:	d103      	bne.n	800332e <xQueueReceive+0x11e>
 8003326:	6abb      	ldr	r3, [r7, #40]	; 0x28
 8003328:	2200      	movs	r2, #0
 800332a:	f883 2044 	strb.w	r2, [r3, #68]	; 0x44
 800332e:	6abb      	ldr	r3, [r7, #40]	; 0x28
 8003330:	f893 3045 	ldrb.w	r3, [r3, #69]	; 0x45
 8003334:	b2db      	uxtb	r3, r3
 8003336:	b25b      	sxtb	r3, r3
 8003338:	f1b3 3fff 	cmp.w	r3, #4294967295
 800333c:	d103      	bne.n	8003346 <xQueueReceive+0x136>
 800333e:	6abb      	ldr	r3, [r7, #40]	; 0x28
 8003340:	2200      	movs	r2, #0
 8003342:	f883 2045 	strb.w	r2, [r3, #69]	; 0x45
 8003346:	f7ff fa7b 	bl	8002840 <vPortExitCritical>

		/* Update the timeout state to see if it has expired yet. */
		if( xTaskCheckForTimeOut( &xTimeOut, &xTicksToWait ) == pdFALSE )
 800334a:	f107 0210 	add.w	r2, r7, #16
 800334e:	1d3b      	adds	r3, r7, #4
 8003350:	4610      	mov	r0, r2
 8003352:	4619      	mov	r1, r3
 8003354:	f000 ff6a 	bl	800422c <xTaskCheckForTimeOut>
 8003358:	4603      	mov	r3, r0
 800335a:	2b00      	cmp	r3, #0
 800335c:	d124      	bne.n	80033a8 <xQueueReceive+0x198>
		{
			/* The timeout has not expired.  If the queue is still empty place
			the task on the list of tasks waiting to receive from the queue. */
			if( prvIsQueueEmpty( pxQueue ) != pdFALSE )
 800335e:	6ab8      	ldr	r0, [r7, #40]	; 0x28
 8003360:	f000 fa4a 	bl	80037f8 <prvIsQueueEmpty>
 8003364:	4603      	mov	r3, r0
 8003366:	2b00      	cmp	r3, #0
 8003368:	d018      	beq.n	800339c <xQueueReceive+0x18c>
			{
				traceBLOCKING_ON_QUEUE_RECEIVE( pxQueue );
				vTaskPlaceOnEventList( &( pxQueue->xTasksWaitingToReceive ), xTicksToWait );
 800336a:	6abb      	ldr	r3, [r7, #40]	; 0x28
 800336c:	f103 0224 	add.w	r2, r3, #36	; 0x24
 8003370:	687b      	ldr	r3, [r7, #4]
 8003372:	4610      	mov	r0, r2
 8003374:	4619      	mov	r1, r3
 8003376:	f000 fe93 	bl	80040a0 <vTaskPlaceOnEventList>
				prvUnlockQueue( pxQueue );
 800337a:	6ab8      	ldr	r0, [r7, #40]	; 0x28
 800337c:	f000 f9dc 	bl	8003738 <prvUnlockQueue>
				if( xTaskResumeAll() == pdFALSE )
 8003380:	f000 fccc 	bl	8003d1c <xTaskResumeAll>
 8003384:	4603      	mov	r3, r0
 8003386:	2b00      	cmp	r3, #0
 8003388:	d11b      	bne.n	80033c2 <xQueueReceive+0x1b2>
				{
					portYIELD_WITHIN_API();
 800338a:	4b10      	ldr	r3, [pc, #64]	; (80033cc <xQueueReceive+0x1bc>)
 800338c:	f04f 5280 	mov.w	r2, #268435456	; 0x10000000
 8003390:	601a      	str	r2, [r3, #0]
 8003392:	f3bf 8f4f 	dsb	sy
 8003396:	f3bf 8f6f 	isb	sy
 800339a:	e012      	b.n	80033c2 <xQueueReceive+0x1b2>
			}
			else
			{
				/* The queue contains data again.  Loop back to try and read the
				data. */
				prvUnlockQueue( pxQueue );
 800339c:	6ab8      	ldr	r0, [r7, #40]	; 0x28
 800339e:	f000 f9cb 	bl	8003738 <prvUnlockQueue>
				( void ) xTaskResumeAll();
 80033a2:	f000 fcbb 	bl	8003d1c <xTaskResumeAll>
 80033a6:	e777      	b.n	8003298 <xQueueReceive+0x88>
		}
		else
		{
			/* Timed out.  If there is no data in the queue exit, otherwise loop
			back and attempt to read the data. */
			prvUnlockQueue( pxQueue );
 80033a8:	6ab8      	ldr	r0, [r7, #40]	; 0x28
 80033aa:	f000 f9c5 	bl	8003738 <prvUnlockQueue>
			( void ) xTaskResumeAll();
 80033ae:	f000 fcb5 	bl	8003d1c <xTaskResumeAll>

			if( prvIsQueueEmpty( pxQueue ) != pdFALSE )
 80033b2:	6ab8      	ldr	r0, [r7, #40]	; 0x28
 80033b4:	f000 fa20 	bl	80037f8 <prvIsQueueEmpty>
 80033b8:	4603      	mov	r3, r0
 80033ba:	2b00      	cmp	r3, #0
 80033bc:	d001      	beq.n	80033c2 <xQueueReceive+0x1b2>
			{
				traceQUEUE_RECEIVE_FAILED( pxQueue );
				return errQUEUE_EMPTY;
 80033be:	2300      	movs	r3, #0
 80033c0:	e000      	b.n	80033c4 <xQueueReceive+0x1b4>
			else
			{
				mtCOVERAGE_TEST_MARKER();
			}
		}
	} /*lint -restore */
 80033c2:	e769      	b.n	8003298 <xQueueReceive+0x88>
}
 80033c4:	4618      	mov	r0, r3
 80033c6:	3730      	adds	r7, #48	; 0x30
 80033c8:	46bd      	mov	sp, r7
 80033ca:	bd80      	pop	{r7, pc}
 80033cc:	e000ed04 	.word	0xe000ed04

080033d0 <xQueueSemaphoreTake>:
/*-----------------------------------------------------------*/

BaseType_t xQueueSemaphoreTake( QueueHandle_t xQueue, TickType_t xTicksToWait )
{
 80033d0:	b580      	push	{r7, lr}
 80033d2:	b08e      	sub	sp, #56	; 0x38
 80033d4:	af00      	add	r7, sp, #0
 80033d6:	6078      	str	r0, [r7, #4]
 80033d8:	6039      	str	r1, [r7, #0]
BaseType_t xEntryTimeSet = pdFALSE;
 80033da:	2300      	movs	r3, #0
 80033dc:	637b      	str	r3, [r7, #52]	; 0x34
TimeOut_t xTimeOut;
Queue_t * const pxQueue = xQueue;
 80033de:	687b      	ldr	r3, [r7, #4]
 80033e0:	62fb      	str	r3, [r7, #44]	; 0x2c

#if( configUSE_MUTEXES == 1 )
	BaseType_t xInheritanceOccurred = pdFALSE;
 80033e2:	2300      	movs	r3, #0
 80033e4:	633b      	str	r3, [r7, #48]	; 0x30
#endif

	/* Check the queue pointer is not NULL. */
	configASSERT( ( pxQueue ) );
 80033e6:	6afb      	ldr	r3, [r7, #44]	; 0x2c
 80033e8:	2b00      	cmp	r3, #0
 80033ea:	d109      	bne.n	8003400 <xQueueSemaphoreTake+0x30>
 80033ec:	f04f 03fc 	mov.w	r3, #252	; 0xfc
 80033f0:	f383 8811 	msr	BASEPRI, r3
 80033f4:	f3bf 8f6f 	isb	sy
 80033f8:	f3bf 8f4f 	dsb	sy
 80033fc:	623b      	str	r3, [r7, #32]
 80033fe:	e7fe      	b.n	80033fe <xQueueSemaphoreTake+0x2e>

	/* Check this really is a semaphore, in which case the item size will be
	0. */
	configASSERT( pxQueue->uxItemSize == 0 );
 8003400:	6afb      	ldr	r3, [r7, #44]	; 0x2c
 8003402:	6c1b      	ldr	r3, [r3, #64]	; 0x40
 8003404:	2b00      	cmp	r3, #0
 8003406:	d009      	beq.n	800341c <xQueueSemaphoreTake+0x4c>
 8003408:	f04f 03fc 	mov.w	r3, #252	; 0xfc
 800340c:	f383 8811 	msr	BASEPRI, r3
 8003410:	f3bf 8f6f 	isb	sy
 8003414:	f3bf 8f4f 	dsb	sy
 8003418:	61fb      	str	r3, [r7, #28]
 800341a:	e7fe      	b.n	800341a <xQueueSemaphoreTake+0x4a>

	/* Cannot block if the scheduler is suspended. */
	#if ( ( INCLUDE_xTaskGetSchedulerState == 1 ) || ( configUSE_TIMERS == 1 ) )
	{
		configASSERT( !( ( xTaskGetSchedulerState() == taskSCHEDULER_SUSPENDED ) && ( xTicksToWait != 0 ) ) );
 800341c:	f001 f834 	bl	8004488 <xTaskGetSchedulerState>
 8003420:	4603      	mov	r3, r0
 8003422:	2b00      	cmp	r3, #0
 8003424:	d102      	bne.n	800342c <xQueueSemaphoreTake+0x5c>
 8003426:	683b      	ldr	r3, [r7, #0]
 8003428:	2b00      	cmp	r3, #0
 800342a:	d101      	bne.n	8003430 <xQueueSemaphoreTake+0x60>
 800342c:	2301      	movs	r3, #1
 800342e:	e000      	b.n	8003432 <xQueueSemaphoreTake+0x62>
 8003430:	2300      	movs	r3, #0
 8003432:	2b00      	cmp	r3, #0
 8003434:	d109      	bne.n	800344a <xQueueSemaphoreTake+0x7a>
 8003436:	f04f 03fc 	mov.w	r3, #252	; 0xfc
 800343a:	f383 8811 	msr	BASEPRI, r3
 800343e:	f3bf 8f6f 	isb	sy
 8003442:	f3bf 8f4f 	dsb	sy
 8003446:	61bb      	str	r3, [r7, #24]
 8003448:	e7fe      	b.n	8003448 <xQueueSemaphoreTake+0x78>
	/*lint -save -e904 This function relaxes the coding standard somewhat to allow return
	statements within the function itself.  This is done in the interest
	of execution time efficiency. */
	for( ;; )
	{
		taskENTER_CRITICAL();
 800344a:	f7ff f9cb 	bl	80027e4 <vPortEnterCritical>
		{
			/* Semaphores are queues with an item size of 0, and where the
			number of messages in the queue is the semaphore's count value. */
			const UBaseType_t uxSemaphoreCount = pxQueue->uxMessagesWaiting;
 800344e:	6afb      	ldr	r3, [r7, #44]	; 0x2c
 8003450:	6b9b      	ldr	r3, [r3, #56]	; 0x38
 8003452:	62bb      	str	r3, [r7, #40]	; 0x28

			/* Is there data in the queue now?  To be running the calling task
			must be the highest priority task wanting to access the queue. */
			if( uxSemaphoreCount > ( UBaseType_t ) 0 )
 8003454:	6abb      	ldr	r3, [r7, #40]	; 0x28
 8003456:	2b00      	cmp	r3, #0
 8003458:	d024      	beq.n	80034a4 <xQueueSemaphoreTake+0xd4>
			{
				traceQUEUE_RECEIVE( pxQueue );

				/* Semaphores are queues with a data size of zero and where the
				messages waiting is the semaphore's count.  Reduce the count. */
				pxQueue->uxMessagesWaiting = uxSemaphoreCount - ( UBaseType_t ) 1;
 800345a:	6abb      	ldr	r3, [r7, #40]	; 0x28
 800345c:	1e5a      	subs	r2, r3, #1
 800345e:	6afb      	ldr	r3, [r7, #44]	; 0x2c
 8003460:	639a      	str	r2, [r3, #56]	; 0x38

				#if ( configUSE_MUTEXES == 1 )
				{
					if( pxQueue->uxQueueType == queueQUEUE_IS_MUTEX )
 8003462:	6afb      	ldr	r3, [r7, #44]	; 0x2c
 8003464:	681b      	ldr	r3, [r3, #0]
 8003466:	2b00      	cmp	r3, #0
 8003468:	d104      	bne.n	8003474 <xQueueSemaphoreTake+0xa4>
					{
						/* Record the information required to implement
						priority inheritance should it become necessary. */
						pxQueue->u.xSemaphore.xMutexHolder = pvTaskIncrementMutexHeldCount();
 800346a:	f001 f9cd 	bl	8004808 <pvTaskIncrementMutexHeldCount>
 800346e:	4602      	mov	r2, r0
 8003470:	6afb      	ldr	r3, [r7, #44]	; 0x2c
 8003472:	609a      	str	r2, [r3, #8]
				}
				#endif /* configUSE_MUTEXES */

				/* Check to see if other tasks are blocked waiting to give the
				semaphore, and if so, unblock the highest priority such task. */
				if( listLIST_IS_EMPTY( &( pxQueue->xTasksWaitingToSend ) ) == pdFALSE )
 8003474:	6afb      	ldr	r3, [r7, #44]	; 0x2c
 8003476:	691b      	ldr	r3, [r3, #16]
 8003478:	2b00      	cmp	r3, #0
 800347a:	d00f      	beq.n	800349c <xQueueSemaphoreTake+0xcc>
				{
					if( xTaskRemoveFromEventList( &( pxQueue->xTasksWaitingToSend ) ) != pdFALSE )
 800347c:	6afb      	ldr	r3, [r7, #44]	; 0x2c
 800347e:	3310      	adds	r3, #16
 8003480:	4618      	mov	r0, r3
 8003482:	f000 fe59 	bl	8004138 <xTaskRemoveFromEventList>
 8003486:	4603      	mov	r3, r0
 8003488:	2b00      	cmp	r3, #0
 800348a:	d007      	beq.n	800349c <xQueueSemaphoreTake+0xcc>
					{
						queueYIELD_IF_USING_PREEMPTION();
 800348c:	4b54      	ldr	r3, [pc, #336]	; (80035e0 <xQueueSemaphoreTake+0x210>)
 800348e:	f04f 5280 	mov.w	r2, #268435456	; 0x10000000
 8003492:	601a      	str	r2, [r3, #0]
 8003494:	f3bf 8f4f 	dsb	sy
 8003498:	f3bf 8f6f 	isb	sy
				else
				{
					mtCOVERAGE_TEST_MARKER();
				}

				taskEXIT_CRITICAL();
 800349c:	f7ff f9d0 	bl	8002840 <vPortExitCritical>
				return pdPASS;
 80034a0:	2301      	movs	r3, #1
 80034a2:	e099      	b.n	80035d8 <xQueueSemaphoreTake+0x208>
			}
			else
			{
				if( xTicksToWait == ( TickType_t ) 0 )
 80034a4:	683b      	ldr	r3, [r7, #0]
 80034a6:	2b00      	cmp	r3, #0
 80034a8:	d110      	bne.n	80034cc <xQueueSemaphoreTake+0xfc>
					/* For inheritance to have occurred there must have been an
					initial timeout, and an adjusted timeout cannot become 0, as
					if it were 0 the function would have exited. */
					#if( configUSE_MUTEXES == 1 )
					{
						configASSERT( xInheritanceOccurred == pdFALSE );
 80034aa:	6b3b      	ldr	r3, [r7, #48]	; 0x30
 80034ac:	2b00      	cmp	r3, #0
 80034ae:	d009      	beq.n	80034c4 <xQueueSemaphoreTake+0xf4>
 80034b0:	f04f 03fc 	mov.w	r3, #252	; 0xfc
 80034b4:	f383 8811 	msr	BASEPRI, r3
 80034b8:	f3bf 8f6f 	isb	sy
 80034bc:	f3bf 8f4f 	dsb	sy
 80034c0:	617b      	str	r3, [r7, #20]
 80034c2:	e7fe      	b.n	80034c2 <xQueueSemaphoreTake+0xf2>
					}
					#endif /* configUSE_MUTEXES */

					/* The semaphore count was 0 and no block time is specified
					(or the block time has expired) so exit now. */
					taskEXIT_CRITICAL();
 80034c4:	f7ff f9bc 	bl	8002840 <vPortExitCritical>
					traceQUEUE_RECEIVE_FAILED( pxQueue );
					return errQUEUE_EMPTY;
 80034c8:	2300      	movs	r3, #0
 80034ca:	e085      	b.n	80035d8 <xQueueSemaphoreTake+0x208>
				}
				else if( xEntryTimeSet == pdFALSE )
 80034cc:	6b7b      	ldr	r3, [r7, #52]	; 0x34
 80034ce:	2b00      	cmp	r3, #0
 80034d0:	d106      	bne.n	80034e0 <xQueueSemaphoreTake+0x110>
				{
					/* The semaphore count was 0 and a block time was specified
					so configure the timeout structure ready to block. */
					vTaskInternalSetTimeOutState( &xTimeOut );
 80034d2:	f107 030c 	add.w	r3, r7, #12
 80034d6:	4618      	mov	r0, r3
 80034d8:	f000 fe92 	bl	8004200 <vTaskInternalSetTimeOutState>
					xEntryTimeSet = pdTRUE;
 80034dc:	2301      	movs	r3, #1
 80034de:	637b      	str	r3, [r7, #52]	; 0x34
					/* Entry time was already set. */
					mtCOVERAGE_TEST_MARKER();
				}
			}
		}
		taskEXIT_CRITICAL();
 80034e0:	f7ff f9ae 	bl	8002840 <vPortExitCritical>

		/* Interrupts and other tasks can give to and take from the semaphore
		now the critical section has been exited. */

		vTaskSuspendAll();
 80034e4:	f000 fc0c 	bl	8003d00 <vTaskSuspendAll>
		prvLockQueue( pxQueue );
 80034e8:	f7ff f97c 	bl	80027e4 <vPortEnterCritical>
 80034ec:	6afb      	ldr	r3, [r7, #44]	; 0x2c
 80034ee:	f893 3044 	ldrb.w	r3, [r3, #68]	; 0x44
 80034f2:	b2db      	uxtb	r3, r3
 80034f4:	b25b      	sxtb	r3, r3
 80034f6:	f1b3 3fff 	cmp.w	r3, #4294967295
 80034fa:	d103      	bne.n	8003504 <xQueueSemaphoreTake+0x134>
 80034fc:	6afb      	ldr	r3, [r7, #44]	; 0x2c
 80034fe:	2200      	movs	r2, #0
 8003500:	f883 2044 	strb.w	r2, [r3, #68]	; 0x44
 8003504:	6afb      	ldr	r3, [r7, #44]	; 0x2c
 8003506:	f893 3045 	ldrb.w	r3, [r3, #69]	; 0x45
 800350a:	b2db      	uxtb	r3, r3
 800350c:	b25b      	sxtb	r3, r3
 800350e:	f1b3 3fff 	cmp.w	r3, #4294967295
 8003512:	d103      	bne.n	800351c <xQueueSemaphoreTake+0x14c>
 8003514:	6afb      	ldr	r3, [r7, #44]	; 0x2c
 8003516:	2200      	movs	r2, #0
 8003518:	f883 2045 	strb.w	r2, [r3, #69]	; 0x45
 800351c:	f7ff f990 	bl	8002840 <vPortExitCritical>

		/* Update the timeout state to see if it has expired yet. */
		if( xTaskCheckForTimeOut( &xTimeOut, &xTicksToWait ) == pdFALSE )
 8003520:	f107 020c 	add.w	r2, r7, #12
 8003524:	463b      	mov	r3, r7
 8003526:	4610      	mov	r0, r2
 8003528:	4619      	mov	r1, r3
 800352a:	f000 fe7f 	bl	800422c <xTaskCheckForTimeOut>
 800352e:	4603      	mov	r3, r0
 8003530:	2b00      	cmp	r3, #0
 8003532:	d132      	bne.n	800359a <xQueueSemaphoreTake+0x1ca>
		{
			/* A block time is specified and not expired.  If the semaphore
			count is 0 then enter the Blocked state to wait for a semaphore to
			become available.  As semaphores are implemented with queues the
			queue being empty is equivalent to the semaphore count being 0. */
			if( prvIsQueueEmpty( pxQueue ) != pdFALSE )
 8003534:	6af8      	ldr	r0, [r7, #44]	; 0x2c
 8003536:	f000 f95f 	bl	80037f8 <prvIsQueueEmpty>
 800353a:	4603      	mov	r3, r0
 800353c:	2b00      	cmp	r3, #0
 800353e:	d026      	beq.n	800358e <xQueueSemaphoreTake+0x1be>
			{
				traceBLOCKING_ON_QUEUE_RECEIVE( pxQueue );

				#if ( configUSE_MUTEXES == 1 )
				{
					if( pxQueue->uxQueueType == queueQUEUE_IS_MUTEX )
 8003540:	6afb      	ldr	r3, [r7, #44]	; 0x2c
 8003542:	681b      	ldr	r3, [r3, #0]
 8003544:	2b00      	cmp	r3, #0
 8003546:	d109      	bne.n	800355c <xQueueSemaphoreTake+0x18c>
					{
						taskENTER_CRITICAL();
 8003548:	f7ff f94c 	bl	80027e4 <vPortEnterCritical>
						{
							xInheritanceOccurred = xTaskPriorityInherit( pxQueue->u.xSemaphore.xMutexHolder );
 800354c:	6afb      	ldr	r3, [r7, #44]	; 0x2c
 800354e:	689b      	ldr	r3, [r3, #8]
 8003550:	4618      	mov	r0, r3
 8003552:	f000 ffb7 	bl	80044c4 <xTaskPriorityInherit>
 8003556:	6338      	str	r0, [r7, #48]	; 0x30
						}
						taskEXIT_CRITICAL();
 8003558:	f7ff f972 	bl	8002840 <vPortExitCritical>
						mtCOVERAGE_TEST_MARKER();
					}
				}
				#endif

				vTaskPlaceOnEventList( &( pxQueue->xTasksWaitingToReceive ), xTicksToWait );
 800355c:	6afb      	ldr	r3, [r7, #44]	; 0x2c
 800355e:	f103 0224 	add.w	r2, r3, #36	; 0x24
 8003562:	683b      	ldr	r3, [r7, #0]
 8003564:	4610      	mov	r0, r2
 8003566:	4619      	mov	r1, r3
 8003568:	f000 fd9a 	bl	80040a0 <vTaskPlaceOnEventList>
				prvUnlockQueue( pxQueue );
 800356c:	6af8      	ldr	r0, [r7, #44]	; 0x2c
 800356e:	f000 f8e3 	bl	8003738 <prvUnlockQueue>
				if( xTaskResumeAll() == pdFALSE )
 8003572:	f000 fbd3 	bl	8003d1c <xTaskResumeAll>
 8003576:	4603      	mov	r3, r0
 8003578:	2b00      	cmp	r3, #0
 800357a:	d12c      	bne.n	80035d6 <xQueueSemaphoreTake+0x206>
				{
					portYIELD_WITHIN_API();
 800357c:	4b18      	ldr	r3, [pc, #96]	; (80035e0 <xQueueSemaphoreTake+0x210>)
 800357e:	f04f 5280 	mov.w	r2, #268435456	; 0x10000000
 8003582:	601a      	str	r2, [r3, #0]
 8003584:	f3bf 8f4f 	dsb	sy
 8003588:	f3bf 8f6f 	isb	sy
 800358c:	e023      	b.n	80035d6 <xQueueSemaphoreTake+0x206>
			}
			else
			{
				/* There was no timeout and the semaphore count was not 0, so
				attempt to take the semaphore again. */
				prvUnlockQueue( pxQueue );
 800358e:	6af8      	ldr	r0, [r7, #44]	; 0x2c
 8003590:	f000 f8d2 	bl	8003738 <prvUnlockQueue>
				( void ) xTaskResumeAll();
 8003594:	f000 fbc2 	bl	8003d1c <xTaskResumeAll>
 8003598:	e757      	b.n	800344a <xQueueSemaphoreTake+0x7a>
			}
		}
		else
		{
			/* Timed out. */
			prvUnlockQueue( pxQueue );
 800359a:	6af8      	ldr	r0, [r7, #44]	; 0x2c
 800359c:	f000 f8cc 	bl	8003738 <prvUnlockQueue>
			( void ) xTaskResumeAll();
 80035a0:	f000 fbbc 	bl	8003d1c <xTaskResumeAll>

			/* If the semaphore count is 0 exit now as the timeout has
			expired.  Otherwise return to attempt to take the semaphore that is
			known to be available.  As semaphores are implemented by queues the
			queue being empty is equivalent to the semaphore count being 0. */
			if( prvIsQueueEmpty( pxQueue ) != pdFALSE )
 80035a4:	6af8      	ldr	r0, [r7, #44]	; 0x2c
 80035a6:	f000 f927 	bl	80037f8 <prvIsQueueEmpty>
 80035aa:	4603      	mov	r3, r0
 80035ac:	2b00      	cmp	r3, #0
 80035ae:	d012      	beq.n	80035d6 <xQueueSemaphoreTake+0x206>
				#if ( configUSE_MUTEXES == 1 )
				{
					/* xInheritanceOccurred could only have be set if
					pxQueue->uxQueueType == queueQUEUE_IS_MUTEX so no need to
					test the mutex type again to check it is actually a mutex. */
					if( xInheritanceOccurred != pdFALSE )
 80035b0:	6b3b      	ldr	r3, [r7, #48]	; 0x30
 80035b2:	2b00      	cmp	r3, #0
 80035b4:	d00d      	beq.n	80035d2 <xQueueSemaphoreTake+0x202>
					{
						taskENTER_CRITICAL();
 80035b6:	f7ff f915 	bl	80027e4 <vPortEnterCritical>
							/* This task blocking on the mutex caused another
							task to inherit this task's priority.  Now this task
							has timed out the priority should be disinherited
							again, but only as low as the next highest priority
							task that is waiting for the same mutex. */
							uxHighestWaitingPriority = prvGetDisinheritPriorityAfterTimeout( pxQueue );
 80035ba:	6af8      	ldr	r0, [r7, #44]	; 0x2c
 80035bc:	f000 f812 	bl	80035e4 <prvGetDisinheritPriorityAfterTimeout>
 80035c0:	6278      	str	r0, [r7, #36]	; 0x24
							vTaskPriorityDisinheritAfterTimeout( pxQueue->u.xSemaphore.xMutexHolder, uxHighestWaitingPriority );
 80035c2:	6afb      	ldr	r3, [r7, #44]	; 0x2c
 80035c4:	689b      	ldr	r3, [r3, #8]
 80035c6:	4618      	mov	r0, r3
 80035c8:	6a79      	ldr	r1, [r7, #36]	; 0x24
 80035ca:	f001 f883 	bl	80046d4 <vTaskPriorityDisinheritAfterTimeout>
						}
						taskEXIT_CRITICAL();
 80035ce:	f7ff f937 	bl	8002840 <vPortExitCritical>
					}
				}
				#endif /* configUSE_MUTEXES */

				traceQUEUE_RECEIVE_FAILED( pxQueue );
				return errQUEUE_EMPTY;
 80035d2:	2300      	movs	r3, #0
 80035d4:	e000      	b.n	80035d8 <xQueueSemaphoreTake+0x208>
			else
			{
				mtCOVERAGE_TEST_MARKER();
			}
		}
	} /*lint -restore */
 80035d6:	e738      	b.n	800344a <xQueueSemaphoreTake+0x7a>
}
 80035d8:	4618      	mov	r0, r3
 80035da:	3738      	adds	r7, #56	; 0x38
 80035dc:	46bd      	mov	sp, r7
 80035de:	bd80      	pop	{r7, pc}
 80035e0:	e000ed04 	.word	0xe000ed04

080035e4 <prvGetDisinheritPriorityAfterTimeout>:
/*-----------------------------------------------------------*/

#if( configUSE_MUTEXES == 1 )

	static UBaseType_t prvGetDisinheritPriorityAfterTimeout( const Queue_t * const pxQueue )
	{
 80035e4:	b480      	push	{r7}
 80035e6:	b085      	sub	sp, #20
 80035e8:	af00      	add	r7, sp, #0
 80035ea:	6078      	str	r0, [r7, #4]
		priority, but the waiting task times out, then the holder should
		disinherit the priority - but only down to the highest priority of any
		other tasks that are waiting for the same mutex.  For this purpose,
		return the priority of the highest priority task that is waiting for the
		mutex. */
		if( listCURRENT_LIST_LENGTH( &( pxQueue->xTasksWaitingToReceive ) ) > 0U )
 80035ec:	687b      	ldr	r3, [r7, #4]
 80035ee:	6a5b      	ldr	r3, [r3, #36]	; 0x24
 80035f0:	2b00      	cmp	r3, #0
 80035f2:	d006      	beq.n	8003602 <prvGetDisinheritPriorityAfterTimeout+0x1e>
		{
			uxHighestPriorityOfWaitingTasks = ( UBaseType_t ) configMAX_PRIORITIES - ( UBaseType_t ) listGET_ITEM_VALUE_OF_HEAD_ENTRY( &( pxQueue->xTasksWaitingToReceive ) );
 80035f4:	687b      	ldr	r3, [r7, #4]
 80035f6:	6b1b      	ldr	r3, [r3, #48]	; 0x30
 80035f8:	681b      	ldr	r3, [r3, #0]
 80035fa:	f1c3 0305 	rsb	r3, r3, #5
 80035fe:	60fb      	str	r3, [r7, #12]
 8003600:	e001      	b.n	8003606 <prvGetDisinheritPriorityAfterTimeout+0x22>
		}
		else
		{
			uxHighestPriorityOfWaitingTasks = tskIDLE_PRIORITY;
 8003602:	2300      	movs	r3, #0
 8003604:	60fb      	str	r3, [r7, #12]
		}

		return uxHighestPriorityOfWaitingTasks;
 8003606:	68fb      	ldr	r3, [r7, #12]
	}
 8003608:	4618      	mov	r0, r3
 800360a:	3714      	adds	r7, #20
 800360c:	46bd      	mov	sp, r7
 800360e:	f85d 7b04 	ldr.w	r7, [sp], #4
 8003612:	4770      	bx	lr

08003614 <prvCopyDataToQueue>:

#endif /* configUSE_MUTEXES */
/*-----------------------------------------------------------*/

static BaseType_t prvCopyDataToQueue( Queue_t * const pxQueue, const void *pvItemToQueue, const BaseType_t xPosition )
{
 8003614:	b580      	push	{r7, lr}
 8003616:	b086      	sub	sp, #24
 8003618:	af00      	add	r7, sp, #0
 800361a:	60f8      	str	r0, [r7, #12]
 800361c:	60b9      	str	r1, [r7, #8]
 800361e:	607a      	str	r2, [r7, #4]
BaseType_t xReturn = pdFALSE;
 8003620:	2300      	movs	r3, #0
 8003622:	617b      	str	r3, [r7, #20]
UBaseType_t uxMessagesWaiting;

	/* This function is called from a critical section. */

	uxMessagesWaiting = pxQueue->uxMessagesWaiting;
 8003624:	68fb      	ldr	r3, [r7, #12]
 8003626:	6b9b      	ldr	r3, [r3, #56]	; 0x38
 8003628:	613b      	str	r3, [r7, #16]

	if( pxQueue->uxItemSize == ( UBaseType_t ) 0 )
 800362a:	68fb      	ldr	r3, [r7, #12]
 800362c:	6c1b      	ldr	r3, [r3, #64]	; 0x40
 800362e:	2b00      	cmp	r3, #0
 8003630:	d10d      	bne.n	800364e <prvCopyDataToQueue+0x3a>
	{
		#if ( configUSE_MUTEXES == 1 )
		{
			if( pxQueue->uxQueueType == queueQUEUE_IS_MUTEX )
 8003632:	68fb      	ldr	r3, [r7, #12]
 8003634:	681b      	ldr	r3, [r3, #0]
 8003636:	2b00      	cmp	r3, #0
 8003638:	d14f      	bne.n	80036da <prvCopyDataToQueue+0xc6>
			{
				/* The mutex is no longer being held. */
				xReturn = xTaskPriorityDisinherit( pxQueue->u.xSemaphore.xMutexHolder );
 800363a:	68fb      	ldr	r3, [r7, #12]
 800363c:	689b      	ldr	r3, [r3, #8]
 800363e:	4618      	mov	r0, r3
 8003640:	f000 ffc2 	bl	80045c8 <xTaskPriorityDisinherit>
 8003644:	6178      	str	r0, [r7, #20]
				pxQueue->u.xSemaphore.xMutexHolder = NULL;
 8003646:	68fb      	ldr	r3, [r7, #12]
 8003648:	2200      	movs	r2, #0
 800364a:	609a      	str	r2, [r3, #8]
 800364c:	e045      	b.n	80036da <prvCopyDataToQueue+0xc6>
				mtCOVERAGE_TEST_MARKER();
			}
		}
		#endif /* configUSE_MUTEXES */
	}
	else if( xPosition == queueSEND_TO_BACK )
 800364e:	687b      	ldr	r3, [r7, #4]
 8003650:	2b00      	cmp	r3, #0
 8003652:	d11a      	bne.n	800368a <prvCopyDataToQueue+0x76>
	{
		( void ) memcpy( ( void * ) pxQueue->pcWriteTo, pvItemToQueue, ( size_t ) pxQueue->uxItemSize ); /*lint !e961 !e418 !e9087 MISRA exception as the casts are only redundant for some ports, plus previous logic ensures a null pointer can only be passed to memcpy() if the copy size is 0.  Cast to void required by function signature and safe as no alignment requirement and copy length specified in bytes. */
 8003654:	68fb      	ldr	r3, [r7, #12]
 8003656:	685a      	ldr	r2, [r3, #4]
 8003658:	68fb      	ldr	r3, [r7, #12]
 800365a:	6c1b      	ldr	r3, [r3, #64]	; 0x40
 800365c:	4610      	mov	r0, r2
 800365e:	68b9      	ldr	r1, [r7, #8]
 8003660:	461a      	mov	r2, r3
 8003662:	f002 f81d 	bl	80056a0 <memcpy>
		pxQueue->pcWriteTo += pxQueue->uxItemSize; /*lint !e9016 Pointer arithmetic on char types ok, especially in this use case where it is the clearest way of conveying intent. */
 8003666:	68fb      	ldr	r3, [r7, #12]
 8003668:	685a      	ldr	r2, [r3, #4]
 800366a:	68fb      	ldr	r3, [r7, #12]
 800366c:	6c1b      	ldr	r3, [r3, #64]	; 0x40
 800366e:	441a      	add	r2, r3
 8003670:	68fb      	ldr	r3, [r7, #12]
 8003672:	605a      	str	r2, [r3, #4]
		if( pxQueue->pcWriteTo >= pxQueue->u.xQueue.pcTail ) /*lint !e946 MISRA exception justified as comparison of pointers is the cleanest solution. */
 8003674:	68fb      	ldr	r3, [r7, #12]
 8003676:	685a      	ldr	r2, [r3, #4]
 8003678:	68fb      	ldr	r3, [r7, #12]
 800367a:	689b      	ldr	r3, [r3, #8]
 800367c:	429a      	cmp	r2, r3
 800367e:	d32c      	bcc.n	80036da <prvCopyDataToQueue+0xc6>
		{
			pxQueue->pcWriteTo = pxQueue->pcHead;
 8003680:	68fb      	ldr	r3, [r7, #12]
 8003682:	681a      	ldr	r2, [r3, #0]
 8003684:	68fb      	ldr	r3, [r7, #12]
 8003686:	605a      	str	r2, [r3, #4]
 8003688:	e027      	b.n	80036da <prvCopyDataToQueue+0xc6>
			mtCOVERAGE_TEST_MARKER();
		}
	}
	else
	{
		( void ) memcpy( ( void * ) pxQueue->u.xQueue.pcReadFrom, pvItemToQueue, ( size_t ) pxQueue->uxItemSize ); /*lint !e961 !e9087 !e418 MISRA exception as the casts are only redundant for some ports.  Cast to void required by function signature and safe as no alignment requirement and copy length specified in bytes.  Assert checks null pointer only used when length is 0. */
 800368a:	68fb      	ldr	r3, [r7, #12]
 800368c:	68da      	ldr	r2, [r3, #12]
 800368e:	68fb      	ldr	r3, [r7, #12]
 8003690:	6c1b      	ldr	r3, [r3, #64]	; 0x40
 8003692:	4610      	mov	r0, r2
 8003694:	68b9      	ldr	r1, [r7, #8]
 8003696:	461a      	mov	r2, r3
 8003698:	f002 f802 	bl	80056a0 <memcpy>
		pxQueue->u.xQueue.pcReadFrom -= pxQueue->uxItemSize;
 800369c:	68fb      	ldr	r3, [r7, #12]
 800369e:	68da      	ldr	r2, [r3, #12]
 80036a0:	68fb      	ldr	r3, [r7, #12]
 80036a2:	6c1b      	ldr	r3, [r3, #64]	; 0x40
 80036a4:	425b      	negs	r3, r3
 80036a6:	441a      	add	r2, r3
 80036a8:	68fb      	ldr	r3, [r7, #12]
 80036aa:	60da      	str	r2, [r3, #12]
		if( pxQueue->u.xQueue.pcReadFrom < pxQueue->pcHead ) /*lint !e946 MISRA exception justified as comparison of pointers is the cleanest solution. */
 80036ac:	68fb      	ldr	r3, [r7, #12]
 80036ae:	68da      	ldr	r2, [r3, #12]
 80036b0:	68fb      	ldr	r3, [r7, #12]
 80036b2:	681b      	ldr	r3, [r3, #0]
 80036b4:	429a      	cmp	r2, r3
 80036b6:	d207      	bcs.n	80036c8 <prvCopyDataToQueue+0xb4>
		{
			pxQueue->u.xQueue.pcReadFrom = ( pxQueue->u.xQueue.pcTail - pxQueue->uxItemSize );
 80036b8:	68fb      	ldr	r3, [r7, #12]
 80036ba:	689a      	ldr	r2, [r3, #8]
 80036bc:	68fb      	ldr	r3, [r7, #12]
 80036be:	6c1b      	ldr	r3, [r3, #64]	; 0x40
 80036c0:	425b      	negs	r3, r3
 80036c2:	441a      	add	r2, r3
 80036c4:	68fb      	ldr	r3, [r7, #12]
 80036c6:	60da      	str	r2, [r3, #12]
		else
		{
			mtCOVERAGE_TEST_MARKER();
		}

		if( xPosition == queueOVERWRITE )
 80036c8:	687b      	ldr	r3, [r7, #4]
 80036ca:	2b02      	cmp	r3, #2
 80036cc:	d105      	bne.n	80036da <prvCopyDataToQueue+0xc6>
		{
			if( uxMessagesWaiting > ( UBaseType_t ) 0 )
 80036ce:	693b      	ldr	r3, [r7, #16]
 80036d0:	2b00      	cmp	r3, #0
 80036d2:	d002      	beq.n	80036da <prvCopyDataToQueue+0xc6>
			{
				/* An item is not being added but overwritten, so subtract
				one from the recorded number of items in the queue so when
				one is added again below the number of recorded items remains
				correct. */
				--uxMessagesWaiting;
 80036d4:	693b      	ldr	r3, [r7, #16]
 80036d6:	3b01      	subs	r3, #1
 80036d8:	613b      	str	r3, [r7, #16]
		{
			mtCOVERAGE_TEST_MARKER();
		}
	}

	pxQueue->uxMessagesWaiting = uxMessagesWaiting + ( UBaseType_t ) 1;
 80036da:	693b      	ldr	r3, [r7, #16]
 80036dc:	1c5a      	adds	r2, r3, #1
 80036de:	68fb      	ldr	r3, [r7, #12]
 80036e0:	639a      	str	r2, [r3, #56]	; 0x38

	return xReturn;
 80036e2:	697b      	ldr	r3, [r7, #20]
}
 80036e4:	4618      	mov	r0, r3
 80036e6:	3718      	adds	r7, #24
 80036e8:	46bd      	mov	sp, r7
 80036ea:	bd80      	pop	{r7, pc}

080036ec <prvCopyDataFromQueue>:
/*-----------------------------------------------------------*/

static void prvCopyDataFromQueue( Queue_t * const pxQueue, void * const pvBuffer )
{
 80036ec:	b580      	push	{r7, lr}
 80036ee:	b082      	sub	sp, #8
 80036f0:	af00      	add	r7, sp, #0
 80036f2:	6078      	str	r0, [r7, #4]
 80036f4:	6039      	str	r1, [r7, #0]
	if( pxQueue->uxItemSize != ( UBaseType_t ) 0 )
 80036f6:	687b      	ldr	r3, [r7, #4]
 80036f8:	6c1b      	ldr	r3, [r3, #64]	; 0x40
 80036fa:	2b00      	cmp	r3, #0
 80036fc:	d019      	beq.n	8003732 <prvCopyDataFromQueue+0x46>
	{
		pxQueue->u.xQueue.pcReadFrom += pxQueue->uxItemSize; /*lint !e9016 Pointer arithmetic on char types ok, especially in this use case where it is the clearest way of conveying intent. */
 80036fe:	687b      	ldr	r3, [r7, #4]
 8003700:	68da      	ldr	r2, [r3, #12]
 8003702:	687b      	ldr	r3, [r7, #4]
 8003704:	6c1b      	ldr	r3, [r3, #64]	; 0x40
 8003706:	441a      	add	r2, r3
 8003708:	687b      	ldr	r3, [r7, #4]
 800370a:	60da      	str	r2, [r3, #12]
		if( pxQueue->u.xQueue.pcReadFrom >= pxQueue->u.xQueue.pcTail ) /*lint !e946 MISRA exception justified as use of the relational operator is the cleanest solutions. */
 800370c:	687b      	ldr	r3, [r7, #4]
 800370e:	68da      	ldr	r2, [r3, #12]
 8003710:	687b      	ldr	r3, [r7, #4]
 8003712:	689b      	ldr	r3, [r3, #8]
 8003714:	429a      	cmp	r2, r3
 8003716:	d303      	bcc.n	8003720 <prvCopyDataFromQueue+0x34>
		{
			pxQueue->u.xQueue.pcReadFrom = pxQueue->pcHead;
 8003718:	687b      	ldr	r3, [r7, #4]
 800371a:	681a      	ldr	r2, [r3, #0]
 800371c:	687b      	ldr	r3, [r7, #4]
 800371e:	60da      	str	r2, [r3, #12]
		}
		else
		{
			mtCOVERAGE_TEST_MARKER();
		}
		( void ) memcpy( ( void * ) pvBuffer, ( void * ) pxQueue->u.xQueue.pcReadFrom, ( size_t ) pxQueue->uxItemSize ); /*lint !e961 !e418 !e9087 MISRA exception as the casts are only redundant for some ports.  Also previous logic ensures a null pointer can only be passed to memcpy() when the count is 0.  Cast to void required by function signature and safe as no alignment requirement and copy length specified in bytes. */
 8003720:	687b      	ldr	r3, [r7, #4]
 8003722:	68da      	ldr	r2, [r3, #12]
 8003724:	687b      	ldr	r3, [r7, #4]
 8003726:	6c1b      	ldr	r3, [r3, #64]	; 0x40
 8003728:	6838      	ldr	r0, [r7, #0]
 800372a:	4611      	mov	r1, r2
 800372c:	461a      	mov	r2, r3
 800372e:	f001 ffb7 	bl	80056a0 <memcpy>
	}
}
 8003732:	3708      	adds	r7, #8
 8003734:	46bd      	mov	sp, r7
 8003736:	bd80      	pop	{r7, pc}

08003738 <prvUnlockQueue>:
/*-----------------------------------------------------------*/

static void prvUnlockQueue( Queue_t * const pxQueue )
{
 8003738:	b580      	push	{r7, lr}
 800373a:	b084      	sub	sp, #16
 800373c:	af00      	add	r7, sp, #0
 800373e:	6078      	str	r0, [r7, #4]

	/* The lock counts contains the number of extra data items placed or
	removed from the queue while the queue was locked.  When a queue is
	locked items can be added or removed, but the event lists cannot be
	updated. */
	taskENTER_CRITICAL();
 8003740:	f7ff f850 	bl	80027e4 <vPortEnterCritical>
	{
		int8_t cTxLock = pxQueue->cTxLock;
 8003744:	687b      	ldr	r3, [r7, #4]
 8003746:	f893 3045 	ldrb.w	r3, [r3, #69]	; 0x45
 800374a:	73fb      	strb	r3, [r7, #15]

		/* See if data was added to the queue while it was locked. */
		while( cTxLock > queueLOCKED_UNMODIFIED )
 800374c:	e021      	b.n	8003792 <prvUnlockQueue+0x5a>
		{
			/* Data was posted while the queue was locked.  Are any tasks
			blocked waiting for data to become available? */
			#if ( configUSE_QUEUE_SETS == 1 )
			{
				if( pxQueue->pxQueueSetContainer != NULL )
 800374e:	687b      	ldr	r3, [r7, #4]
 8003750:	6c9b      	ldr	r3, [r3, #72]	; 0x48
 8003752:	2b00      	cmp	r3, #0
 8003754:	d009      	beq.n	800376a <prvUnlockQueue+0x32>
				{
					if( prvNotifyQueueSetContainer( pxQueue, queueSEND_TO_BACK ) != pdFALSE )
 8003756:	6878      	ldr	r0, [r7, #4]
 8003758:	2100      	movs	r1, #0
 800375a:	f000 f8d9 	bl	8003910 <prvNotifyQueueSetContainer>
 800375e:	4603      	mov	r3, r0
 8003760:	2b00      	cmp	r3, #0
 8003762:	d012      	beq.n	800378a <prvUnlockQueue+0x52>
					{
						/* The queue is a member of a queue set, and posting to
						the queue set caused a higher priority task to unblock.
						A context switch is required. */
						vTaskMissedYield();
 8003764:	f000 fdd2 	bl	800430c <vTaskMissedYield>
 8003768:	e00f      	b.n	800378a <prvUnlockQueue+0x52>
				else
				{
					/* Tasks that are removed from the event list will get
					added to the pending ready list as the scheduler is still
					suspended. */
					if( listLIST_IS_EMPTY( &( pxQueue->xTasksWaitingToReceive ) ) == pdFALSE )
 800376a:	687b      	ldr	r3, [r7, #4]
 800376c:	6a5b      	ldr	r3, [r3, #36]	; 0x24
 800376e:	2b00      	cmp	r3, #0
 8003770:	d00a      	beq.n	8003788 <prvUnlockQueue+0x50>
					{
						if( xTaskRemoveFromEventList( &( pxQueue->xTasksWaitingToReceive ) ) != pdFALSE )
 8003772:	687b      	ldr	r3, [r7, #4]
 8003774:	3324      	adds	r3, #36	; 0x24
 8003776:	4618      	mov	r0, r3
 8003778:	f000 fcde 	bl	8004138 <xTaskRemoveFromEventList>
 800377c:	4603      	mov	r3, r0
 800377e:	2b00      	cmp	r3, #0
 8003780:	d003      	beq.n	800378a <prvUnlockQueue+0x52>
						{
							/* The task waiting has a higher priority so record that a
							context	switch is required. */
							vTaskMissedYield();
 8003782:	f000 fdc3 	bl	800430c <vTaskMissedYield>
 8003786:	e000      	b.n	800378a <prvUnlockQueue+0x52>
							mtCOVERAGE_TEST_MARKER();
						}
					}
					else
					{
						break;
 8003788:	e007      	b.n	800379a <prvUnlockQueue+0x62>
					break;
				}
			}
			#endif /* configUSE_QUEUE_SETS */

			--cTxLock;
 800378a:	7bfb      	ldrb	r3, [r7, #15]
 800378c:	3b01      	subs	r3, #1
 800378e:	b2db      	uxtb	r3, r3
 8003790:	73fb      	strb	r3, [r7, #15]
	taskENTER_CRITICAL();
	{
		int8_t cTxLock = pxQueue->cTxLock;

		/* See if data was added to the queue while it was locked. */
		while( cTxLock > queueLOCKED_UNMODIFIED )
 8003792:	f997 300f 	ldrsb.w	r3, [r7, #15]
 8003796:	2b00      	cmp	r3, #0
 8003798:	dcd9      	bgt.n	800374e <prvUnlockQueue+0x16>
			#endif /* configUSE_QUEUE_SETS */

			--cTxLock;
		}

		pxQueue->cTxLock = queueUNLOCKED;
 800379a:	687b      	ldr	r3, [r7, #4]
 800379c:	22ff      	movs	r2, #255	; 0xff
 800379e:	f883 2045 	strb.w	r2, [r3, #69]	; 0x45
	}
	taskEXIT_CRITICAL();
 80037a2:	f7ff f84d 	bl	8002840 <vPortExitCritical>

	/* Do the same for the Rx lock. */
	taskENTER_CRITICAL();
 80037a6:	f7ff f81d 	bl	80027e4 <vPortEnterCritical>
	{
		int8_t cRxLock = pxQueue->cRxLock;
 80037aa:	687b      	ldr	r3, [r7, #4]
 80037ac:	f893 3044 	ldrb.w	r3, [r3, #68]	; 0x44
 80037b0:	73bb      	strb	r3, [r7, #14]

		while( cRxLock > queueLOCKED_UNMODIFIED )
 80037b2:	e013      	b.n	80037dc <prvUnlockQueue+0xa4>
		{
			if( listLIST_IS_EMPTY( &( pxQueue->xTasksWaitingToSend ) ) == pdFALSE )
 80037b4:	687b      	ldr	r3, [r7, #4]
 80037b6:	691b      	ldr	r3, [r3, #16]
 80037b8:	2b00      	cmp	r3, #0
 80037ba:	d00e      	beq.n	80037da <prvUnlockQueue+0xa2>
			{
				if( xTaskRemoveFromEventList( &( pxQueue->xTasksWaitingToSend ) ) != pdFALSE )
 80037bc:	687b      	ldr	r3, [r7, #4]
 80037be:	3310      	adds	r3, #16
 80037c0:	4618      	mov	r0, r3
 80037c2:	f000 fcb9 	bl	8004138 <xTaskRemoveFromEventList>
 80037c6:	4603      	mov	r3, r0
 80037c8:	2b00      	cmp	r3, #0
 80037ca:	d001      	beq.n	80037d0 <prvUnlockQueue+0x98>
				{
					vTaskMissedYield();
 80037cc:	f000 fd9e 	bl	800430c <vTaskMissedYield>
				else
				{
					mtCOVERAGE_TEST_MARKER();
				}

				--cRxLock;
 80037d0:	7bbb      	ldrb	r3, [r7, #14]
 80037d2:	3b01      	subs	r3, #1
 80037d4:	b2db      	uxtb	r3, r3
 80037d6:	73bb      	strb	r3, [r7, #14]
 80037d8:	e000      	b.n	80037dc <prvUnlockQueue+0xa4>
			}
			else
			{
				break;
 80037da:	e003      	b.n	80037e4 <prvUnlockQueue+0xac>
	/* Do the same for the Rx lock. */
	taskENTER_CRITICAL();
	{
		int8_t cRxLock = pxQueue->cRxLock;

		while( cRxLock > queueLOCKED_UNMODIFIED )
 80037dc:	f997 300e 	ldrsb.w	r3, [r7, #14]
 80037e0:	2b00      	cmp	r3, #0
 80037e2:	dce7      	bgt.n	80037b4 <prvUnlockQueue+0x7c>
			{
				break;
			}
		}

		pxQueue->cRxLock = queueUNLOCKED;
 80037e4:	687b      	ldr	r3, [r7, #4]
 80037e6:	22ff      	movs	r2, #255	; 0xff
 80037e8:	f883 2044 	strb.w	r2, [r3, #68]	; 0x44
	}
	taskEXIT_CRITICAL();
 80037ec:	f7ff f828 	bl	8002840 <vPortExitCritical>
}
 80037f0:	3710      	adds	r7, #16
 80037f2:	46bd      	mov	sp, r7
 80037f4:	bd80      	pop	{r7, pc}
 80037f6:	bf00      	nop

080037f8 <prvIsQueueEmpty>:
/*-----------------------------------------------------------*/

static BaseType_t prvIsQueueEmpty( const Queue_t *pxQueue )
{
 80037f8:	b580      	push	{r7, lr}
 80037fa:	b084      	sub	sp, #16
 80037fc:	af00      	add	r7, sp, #0
 80037fe:	6078      	str	r0, [r7, #4]
BaseType_t xReturn;

	taskENTER_CRITICAL();
 8003800:	f7fe fff0 	bl	80027e4 <vPortEnterCritical>
	{
		if( pxQueue->uxMessagesWaiting == ( UBaseType_t )  0 )
 8003804:	687b      	ldr	r3, [r7, #4]
 8003806:	6b9b      	ldr	r3, [r3, #56]	; 0x38
 8003808:	2b00      	cmp	r3, #0
 800380a:	d102      	bne.n	8003812 <prvIsQueueEmpty+0x1a>
		{
			xReturn = pdTRUE;
 800380c:	2301      	movs	r3, #1
 800380e:	60fb      	str	r3, [r7, #12]
 8003810:	e001      	b.n	8003816 <prvIsQueueEmpty+0x1e>
		}
		else
		{
			xReturn = pdFALSE;
 8003812:	2300      	movs	r3, #0
 8003814:	60fb      	str	r3, [r7, #12]
		}
	}
	taskEXIT_CRITICAL();
 8003816:	f7ff f813 	bl	8002840 <vPortExitCritical>

	return xReturn;
 800381a:	68fb      	ldr	r3, [r7, #12]
}
 800381c:	4618      	mov	r0, r3
 800381e:	3710      	adds	r7, #16
 8003820:	46bd      	mov	sp, r7
 8003822:	bd80      	pop	{r7, pc}

08003824 <prvIsQueueFull>:
	return xReturn;
} /*lint !e818 xQueue could not be pointer to const because it is a typedef. */
/*-----------------------------------------------------------*/

static BaseType_t prvIsQueueFull( const Queue_t *pxQueue )
{
 8003824:	b580      	push	{r7, lr}
 8003826:	b084      	sub	sp, #16
 8003828:	af00      	add	r7, sp, #0
 800382a:	6078      	str	r0, [r7, #4]
BaseType_t xReturn;

	taskENTER_CRITICAL();
 800382c:	f7fe ffda 	bl	80027e4 <vPortEnterCritical>
	{
		if( pxQueue->uxMessagesWaiting == pxQueue->uxLength )
 8003830:	687b      	ldr	r3, [r7, #4]
 8003832:	6b9a      	ldr	r2, [r3, #56]	; 0x38
 8003834:	687b      	ldr	r3, [r7, #4]
 8003836:	6bdb      	ldr	r3, [r3, #60]	; 0x3c
 8003838:	429a      	cmp	r2, r3
 800383a:	d102      	bne.n	8003842 <prvIsQueueFull+0x1e>
		{
			xReturn = pdTRUE;
 800383c:	2301      	movs	r3, #1
 800383e:	60fb      	str	r3, [r7, #12]
 8003840:	e001      	b.n	8003846 <prvIsQueueFull+0x22>
		}
		else
		{
			xReturn = pdFALSE;
 8003842:	2300      	movs	r3, #0
 8003844:	60fb      	str	r3, [r7, #12]
		}
	}
	taskEXIT_CRITICAL();
 8003846:	f7fe fffb 	bl	8002840 <vPortExitCritical>

	return xReturn;
 800384a:	68fb      	ldr	r3, [r7, #12]
}
 800384c:	4618      	mov	r0, r3
 800384e:	3710      	adds	r7, #16
 8003850:	46bd      	mov	sp, r7
 8003852:	bd80      	pop	{r7, pc}

08003854 <vQueueAddToRegistry>:
/*-----------------------------------------------------------*/

#if ( configQUEUE_REGISTRY_SIZE > 0 )

	void vQueueAddToRegistry( QueueHandle_t xQueue, const char *pcQueueName ) /*lint !e971 Unqualified char types are allowed for strings and single characters only. */
	{
 8003854:	b480      	push	{r7}
 8003856:	b085      	sub	sp, #20
 8003858:	af00      	add	r7, sp, #0
 800385a:	6078      	str	r0, [r7, #4]
 800385c:	6039      	str	r1, [r7, #0]
	UBaseType_t ux;

		/* See if there is an empty space in the registry.  A NULL name denotes
		a free slot. */
		for( ux = ( UBaseType_t ) 0U; ux < ( UBaseType_t ) configQUEUE_REGISTRY_SIZE; ux++ )
 800385e:	2300      	movs	r3, #0
 8003860:	60fb      	str	r3, [r7, #12]
 8003862:	e014      	b.n	800388e <vQueueAddToRegistry+0x3a>
		{
			if( xQueueRegistry[ ux ].pcQueueName == NULL )
 8003864:	4a0e      	ldr	r2, [pc, #56]	; (80038a0 <vQueueAddToRegistry+0x4c>)
 8003866:	68fb      	ldr	r3, [r7, #12]
 8003868:	f852 3033 	ldr.w	r3, [r2, r3, lsl #3]
 800386c:	2b00      	cmp	r3, #0
 800386e:	d10b      	bne.n	8003888 <vQueueAddToRegistry+0x34>
			{
				/* Store the information on this queue. */
				xQueueRegistry[ ux ].pcQueueName = pcQueueName;
 8003870:	490b      	ldr	r1, [pc, #44]	; (80038a0 <vQueueAddToRegistry+0x4c>)
 8003872:	68fb      	ldr	r3, [r7, #12]
 8003874:	683a      	ldr	r2, [r7, #0]
 8003876:	f841 2033 	str.w	r2, [r1, r3, lsl #3]
				xQueueRegistry[ ux ].xHandle = xQueue;
 800387a:	4a09      	ldr	r2, [pc, #36]	; (80038a0 <vQueueAddToRegistry+0x4c>)
 800387c:	68fb      	ldr	r3, [r7, #12]
 800387e:	00db      	lsls	r3, r3, #3
 8003880:	4413      	add	r3, r2
 8003882:	687a      	ldr	r2, [r7, #4]
 8003884:	605a      	str	r2, [r3, #4]

				traceQUEUE_REGISTRY_ADD( xQueue, pcQueueName );
				break;
 8003886:	e005      	b.n	8003894 <vQueueAddToRegistry+0x40>
	{
	UBaseType_t ux;

		/* See if there is an empty space in the registry.  A NULL name denotes
		a free slot. */
		for( ux = ( UBaseType_t ) 0U; ux < ( UBaseType_t ) configQUEUE_REGISTRY_SIZE; ux++ )
 8003888:	68fb      	ldr	r3, [r7, #12]
 800388a:	3301      	adds	r3, #1
 800388c:	60fb      	str	r3, [r7, #12]
 800388e:	68fb      	ldr	r3, [r7, #12]
 8003890:	2b07      	cmp	r3, #7
 8003892:	d9e7      	bls.n	8003864 <vQueueAddToRegistry+0x10>
			else
			{
				mtCOVERAGE_TEST_MARKER();
			}
		}
	}
 8003894:	3714      	adds	r7, #20
 8003896:	46bd      	mov	sp, r7
 8003898:	f85d 7b04 	ldr.w	r7, [sp], #4
 800389c:	4770      	bx	lr
 800389e:	bf00      	nop
 80038a0:	1ffe8a34 	.word	0x1ffe8a34

080038a4 <vQueueWaitForMessageRestricted>:
/*-----------------------------------------------------------*/

#if ( configUSE_TIMERS == 1 )

	void vQueueWaitForMessageRestricted( QueueHandle_t xQueue, TickType_t xTicksToWait, const BaseType_t xWaitIndefinitely )
	{
 80038a4:	b580      	push	{r7, lr}
 80038a6:	b086      	sub	sp, #24
 80038a8:	af00      	add	r7, sp, #0
 80038aa:	60f8      	str	r0, [r7, #12]
 80038ac:	60b9      	str	r1, [r7, #8]
 80038ae:	607a      	str	r2, [r7, #4]
	Queue_t * const pxQueue = xQueue;
 80038b0:	68fb      	ldr	r3, [r7, #12]
 80038b2:	617b      	str	r3, [r7, #20]
		will not actually cause the task to block, just place it on a blocked
		list.  It will not block until the scheduler is unlocked - at which
		time a yield will be performed.  If an item is added to the queue while
		the queue is locked, and the calling task blocks on the queue, then the
		calling task will be immediately unblocked when the queue is unlocked. */
		prvLockQueue( pxQueue );
 80038b4:	f7fe ff96 	bl	80027e4 <vPortEnterCritical>
 80038b8:	697b      	ldr	r3, [r7, #20]
 80038ba:	f893 3044 	ldrb.w	r3, [r3, #68]	; 0x44
 80038be:	b2db      	uxtb	r3, r3
 80038c0:	b25b      	sxtb	r3, r3
 80038c2:	f1b3 3fff 	cmp.w	r3, #4294967295
 80038c6:	d103      	bne.n	80038d0 <vQueueWaitForMessageRestricted+0x2c>
 80038c8:	697b      	ldr	r3, [r7, #20]
 80038ca:	2200      	movs	r2, #0
 80038cc:	f883 2044 	strb.w	r2, [r3, #68]	; 0x44
 80038d0:	697b      	ldr	r3, [r7, #20]
 80038d2:	f893 3045 	ldrb.w	r3, [r3, #69]	; 0x45
 80038d6:	b2db      	uxtb	r3, r3
 80038d8:	b25b      	sxtb	r3, r3
 80038da:	f1b3 3fff 	cmp.w	r3, #4294967295
 80038de:	d103      	bne.n	80038e8 <vQueueWaitForMessageRestricted+0x44>
 80038e0:	697b      	ldr	r3, [r7, #20]
 80038e2:	2200      	movs	r2, #0
 80038e4:	f883 2045 	strb.w	r2, [r3, #69]	; 0x45
 80038e8:	f7fe ffaa 	bl	8002840 <vPortExitCritical>
		if( pxQueue->uxMessagesWaiting == ( UBaseType_t ) 0U )
 80038ec:	697b      	ldr	r3, [r7, #20]
 80038ee:	6b9b      	ldr	r3, [r3, #56]	; 0x38
 80038f0:	2b00      	cmp	r3, #0
 80038f2:	d106      	bne.n	8003902 <vQueueWaitForMessageRestricted+0x5e>
		{
			/* There is nothing in the queue, block for the specified period. */
			vTaskPlaceOnEventListRestricted( &( pxQueue->xTasksWaitingToReceive ), xTicksToWait, xWaitIndefinitely );
 80038f4:	697b      	ldr	r3, [r7, #20]
 80038f6:	3324      	adds	r3, #36	; 0x24
 80038f8:	4618      	mov	r0, r3
 80038fa:	68b9      	ldr	r1, [r7, #8]
 80038fc:	687a      	ldr	r2, [r7, #4]
 80038fe:	f000 fbf1 	bl	80040e4 <vTaskPlaceOnEventListRestricted>
		}
		else
		{
			mtCOVERAGE_TEST_MARKER();
		}
		prvUnlockQueue( pxQueue );
 8003902:	6978      	ldr	r0, [r7, #20]
 8003904:	f7ff ff18 	bl	8003738 <prvUnlockQueue>
	}
 8003908:	3718      	adds	r7, #24
 800390a:	46bd      	mov	sp, r7
 800390c:	bd80      	pop	{r7, pc}
 800390e:	bf00      	nop

08003910 <prvNotifyQueueSetContainer>:
/*-----------------------------------------------------------*/

#if ( configUSE_QUEUE_SETS == 1 )

	static BaseType_t prvNotifyQueueSetContainer( const Queue_t * const pxQueue, const BaseType_t xCopyPosition )
	{
 8003910:	b580      	push	{r7, lr}
 8003912:	b088      	sub	sp, #32
 8003914:	af00      	add	r7, sp, #0
 8003916:	6078      	str	r0, [r7, #4]
 8003918:	6039      	str	r1, [r7, #0]
	Queue_t *pxQueueSetContainer = pxQueue->pxQueueSetContainer;
 800391a:	687b      	ldr	r3, [r7, #4]
 800391c:	6c9b      	ldr	r3, [r3, #72]	; 0x48
 800391e:	61bb      	str	r3, [r7, #24]
	BaseType_t xReturn = pdFALSE;
 8003920:	2300      	movs	r3, #0
 8003922:	61fb      	str	r3, [r7, #28]

		/* This function must be called form a critical section. */

		configASSERT( pxQueueSetContainer );
 8003924:	69bb      	ldr	r3, [r7, #24]
 8003926:	2b00      	cmp	r3, #0
 8003928:	d109      	bne.n	800393e <prvNotifyQueueSetContainer+0x2e>
 800392a:	f04f 03fc 	mov.w	r3, #252	; 0xfc
 800392e:	f383 8811 	msr	BASEPRI, r3
 8003932:	f3bf 8f6f 	isb	sy
 8003936:	f3bf 8f4f 	dsb	sy
 800393a:	613b      	str	r3, [r7, #16]
 800393c:	e7fe      	b.n	800393c <prvNotifyQueueSetContainer+0x2c>
		configASSERT( pxQueueSetContainer->uxMessagesWaiting < pxQueueSetContainer->uxLength );
 800393e:	69bb      	ldr	r3, [r7, #24]
 8003940:	6b9a      	ldr	r2, [r3, #56]	; 0x38
 8003942:	69bb      	ldr	r3, [r7, #24]
 8003944:	6bdb      	ldr	r3, [r3, #60]	; 0x3c
 8003946:	429a      	cmp	r2, r3
 8003948:	d309      	bcc.n	800395e <prvNotifyQueueSetContainer+0x4e>
 800394a:	f04f 03fc 	mov.w	r3, #252	; 0xfc
 800394e:	f383 8811 	msr	BASEPRI, r3
 8003952:	f3bf 8f6f 	isb	sy
 8003956:	f3bf 8f4f 	dsb	sy
 800395a:	60fb      	str	r3, [r7, #12]
 800395c:	e7fe      	b.n	800395c <prvNotifyQueueSetContainer+0x4c>

		if( pxQueueSetContainer->uxMessagesWaiting < pxQueueSetContainer->uxLength )
 800395e:	69bb      	ldr	r3, [r7, #24]
 8003960:	6b9a      	ldr	r2, [r3, #56]	; 0x38
 8003962:	69bb      	ldr	r3, [r7, #24]
 8003964:	6bdb      	ldr	r3, [r3, #60]	; 0x3c
 8003966:	429a      	cmp	r2, r3
 8003968:	d226      	bcs.n	80039b8 <prvNotifyQueueSetContainer+0xa8>
		{
			const int8_t cTxLock = pxQueueSetContainer->cTxLock;
 800396a:	69bb      	ldr	r3, [r7, #24]
 800396c:	f893 3045 	ldrb.w	r3, [r3, #69]	; 0x45
 8003970:	75fb      	strb	r3, [r7, #23]

			traceQUEUE_SEND( pxQueueSetContainer );

			/* The data copied is the handle of the queue that contains data. */
			xReturn = prvCopyDataToQueue( pxQueueSetContainer, &pxQueue, xCopyPosition );
 8003972:	1d3b      	adds	r3, r7, #4
 8003974:	69b8      	ldr	r0, [r7, #24]
 8003976:	4619      	mov	r1, r3
 8003978:	683a      	ldr	r2, [r7, #0]
 800397a:	f7ff fe4b 	bl	8003614 <prvCopyDataToQueue>
 800397e:	61f8      	str	r0, [r7, #28]

			if( cTxLock == queueUNLOCKED )
 8003980:	f997 3017 	ldrsb.w	r3, [r7, #23]
 8003984:	f1b3 3fff 	cmp.w	r3, #4294967295
 8003988:	d10e      	bne.n	80039a8 <prvNotifyQueueSetContainer+0x98>
			{
				if( listLIST_IS_EMPTY( &( pxQueueSetContainer->xTasksWaitingToReceive ) ) == pdFALSE )
 800398a:	69bb      	ldr	r3, [r7, #24]
 800398c:	6a5b      	ldr	r3, [r3, #36]	; 0x24
 800398e:	2b00      	cmp	r3, #0
 8003990:	d012      	beq.n	80039b8 <prvNotifyQueueSetContainer+0xa8>
				{
					if( xTaskRemoveFromEventList( &( pxQueueSetContainer->xTasksWaitingToReceive ) ) != pdFALSE )
 8003992:	69bb      	ldr	r3, [r7, #24]
 8003994:	3324      	adds	r3, #36	; 0x24
 8003996:	4618      	mov	r0, r3
 8003998:	f000 fbce 	bl	8004138 <xTaskRemoveFromEventList>
 800399c:	4603      	mov	r3, r0
 800399e:	2b00      	cmp	r3, #0
 80039a0:	d00a      	beq.n	80039b8 <prvNotifyQueueSetContainer+0xa8>
					{
						/* The task waiting has a higher priority. */
						xReturn = pdTRUE;
 80039a2:	2301      	movs	r3, #1
 80039a4:	61fb      	str	r3, [r7, #28]
 80039a6:	e007      	b.n	80039b8 <prvNotifyQueueSetContainer+0xa8>
					mtCOVERAGE_TEST_MARKER();
				}
			}
			else
			{
				pxQueueSetContainer->cTxLock = ( int8_t ) ( cTxLock + 1 );
 80039a8:	7dfb      	ldrb	r3, [r7, #23]
 80039aa:	3301      	adds	r3, #1
 80039ac:	b2db      	uxtb	r3, r3
 80039ae:	b2da      	uxtb	r2, r3
 80039b0:	69bb      	ldr	r3, [r7, #24]
 80039b2:	f883 2045 	strb.w	r2, [r3, #69]	; 0x45
 80039b6:	e7ff      	b.n	80039b8 <prvNotifyQueueSetContainer+0xa8>
		else
		{
			mtCOVERAGE_TEST_MARKER();
		}

		return xReturn;
 80039b8:	69fb      	ldr	r3, [r7, #28]
	}
 80039ba:	4618      	mov	r0, r3
 80039bc:	3720      	adds	r7, #32
 80039be:	46bd      	mov	sp, r7
 80039c0:	bd80      	pop	{r7, pc}
 80039c2:	bf00      	nop

080039c4 <xTaskCreate>:
							const char * const pcName,		/*lint !e971 Unqualified char types are allowed for strings and single characters only. */
							const configSTACK_DEPTH_TYPE usStackDepth,
							void * const pvParameters,
							UBaseType_t uxPriority,
							TaskHandle_t * const pxCreatedTask )
	{
 80039c4:	b580      	push	{r7, lr}
 80039c6:	b08c      	sub	sp, #48	; 0x30
 80039c8:	af04      	add	r7, sp, #16
 80039ca:	60f8      	str	r0, [r7, #12]
 80039cc:	60b9      	str	r1, [r7, #8]
 80039ce:	603b      	str	r3, [r7, #0]
 80039d0:	4613      	mov	r3, r2
 80039d2:	80fb      	strh	r3, [r7, #6]
		#else /* portSTACK_GROWTH */
		{
		StackType_t *pxStack;

			/* Allocate space for the stack used by the task being created. */
			pxStack = pvPortMalloc( ( ( ( size_t ) usStackDepth ) * sizeof( StackType_t ) ) ); /*lint !e9079 All values returned by pvPortMalloc() have at least the alignment required by the MCU's stack and this allocation is the stack. */
 80039d4:	88fb      	ldrh	r3, [r7, #6]
 80039d6:	009b      	lsls	r3, r3, #2
 80039d8:	4618      	mov	r0, r3
 80039da:	f7ff f819 	bl	8002a10 <pvPortMalloc>
 80039de:	6178      	str	r0, [r7, #20]

			if( pxStack != NULL )
 80039e0:	697b      	ldr	r3, [r7, #20]
 80039e2:	2b00      	cmp	r3, #0
 80039e4:	d00e      	beq.n	8003a04 <xTaskCreate+0x40>
			{
				/* Allocate space for the TCB. */
				pxNewTCB = ( TCB_t * ) pvPortMalloc( sizeof( TCB_t ) ); /*lint !e9087 !e9079 All values returned by pvPortMalloc() have at least the alignment required by the MCU's stack, and the first member of TCB_t is always a pointer to the task's stack. */
 80039e6:	2070      	movs	r0, #112	; 0x70
 80039e8:	f7ff f812 	bl	8002a10 <pvPortMalloc>
 80039ec:	61f8      	str	r0, [r7, #28]

				if( pxNewTCB != NULL )
 80039ee:	69fb      	ldr	r3, [r7, #28]
 80039f0:	2b00      	cmp	r3, #0
 80039f2:	d003      	beq.n	80039fc <xTaskCreate+0x38>
				{
					/* Store the stack location in the TCB. */
					pxNewTCB->pxStack = pxStack;
 80039f4:	69fb      	ldr	r3, [r7, #28]
 80039f6:	697a      	ldr	r2, [r7, #20]
 80039f8:	631a      	str	r2, [r3, #48]	; 0x30
 80039fa:	e005      	b.n	8003a08 <xTaskCreate+0x44>
				}
				else
				{
					/* The stack cannot be used as the TCB was not created.  Free
					it again. */
					vPortFree( pxStack );
 80039fc:	6978      	ldr	r0, [r7, #20]
 80039fe:	f7ff f819 	bl	8002a34 <vPortFree>
 8003a02:	e001      	b.n	8003a08 <xTaskCreate+0x44>
				}
			}
			else
			{
				pxNewTCB = NULL;
 8003a04:	2300      	movs	r3, #0
 8003a06:	61fb      	str	r3, [r7, #28]
			}
		}
		#endif /* portSTACK_GROWTH */

		if( pxNewTCB != NULL )
 8003a08:	69fb      	ldr	r3, [r7, #28]
 8003a0a:	2b00      	cmp	r3, #0
 8003a0c:	d013      	beq.n	8003a36 <xTaskCreate+0x72>
				task was created dynamically in case it is later deleted. */
				pxNewTCB->ucStaticallyAllocated = tskDYNAMICALLY_ALLOCATED_STACK_AND_TCB;
			}
			#endif /* tskSTATIC_AND_DYNAMIC_ALLOCATION_POSSIBLE */

			prvInitialiseNewTask( pxTaskCode, pcName, ( uint32_t ) usStackDepth, pvParameters, uxPriority, pxCreatedTask, pxNewTCB, NULL );
 8003a0e:	88fa      	ldrh	r2, [r7, #6]
 8003a10:	6abb      	ldr	r3, [r7, #40]	; 0x28
 8003a12:	9300      	str	r3, [sp, #0]
 8003a14:	6afb      	ldr	r3, [r7, #44]	; 0x2c
 8003a16:	9301      	str	r3, [sp, #4]
 8003a18:	69fb      	ldr	r3, [r7, #28]
 8003a1a:	9302      	str	r3, [sp, #8]
 8003a1c:	2300      	movs	r3, #0
 8003a1e:	9303      	str	r3, [sp, #12]
 8003a20:	68f8      	ldr	r0, [r7, #12]
 8003a22:	68b9      	ldr	r1, [r7, #8]
 8003a24:	683b      	ldr	r3, [r7, #0]
 8003a26:	f000 f80f 	bl	8003a48 <prvInitialiseNewTask>
			prvAddNewTaskToReadyList( pxNewTCB );
 8003a2a:	69f8      	ldr	r0, [r7, #28]
 8003a2c:	f000 f8ae 	bl	8003b8c <prvAddNewTaskToReadyList>
			xReturn = pdPASS;
 8003a30:	2301      	movs	r3, #1
 8003a32:	61bb      	str	r3, [r7, #24]
 8003a34:	e002      	b.n	8003a3c <xTaskCreate+0x78>
		}
		else
		{
			xReturn = errCOULD_NOT_ALLOCATE_REQUIRED_MEMORY;
 8003a36:	f04f 33ff 	mov.w	r3, #4294967295
 8003a3a:	61bb      	str	r3, [r7, #24]
		}

		return xReturn;
 8003a3c:	69bb      	ldr	r3, [r7, #24]
	}
 8003a3e:	4618      	mov	r0, r3
 8003a40:	3720      	adds	r7, #32
 8003a42:	46bd      	mov	sp, r7
 8003a44:	bd80      	pop	{r7, pc}
 8003a46:	bf00      	nop

08003a48 <prvInitialiseNewTask>:
									void * const pvParameters,
									UBaseType_t uxPriority,
									TaskHandle_t * const pxCreatedTask,
									TCB_t *pxNewTCB,
									const MemoryRegion_t * const xRegions )
{
 8003a48:	b580      	push	{r7, lr}
 8003a4a:	b088      	sub	sp, #32
 8003a4c:	af00      	add	r7, sp, #0
 8003a4e:	60f8      	str	r0, [r7, #12]
 8003a50:	60b9      	str	r1, [r7, #8]
 8003a52:	607a      	str	r2, [r7, #4]
 8003a54:	603b      	str	r3, [r7, #0]

	/* Avoid dependency on memset() if it is not required. */
	#if( tskSET_NEW_STACKS_TO_KNOWN_VALUE == 1 )
	{
		/* Fill the stack with a known value to assist debugging. */
		( void ) memset( pxNewTCB->pxStack, ( int ) tskSTACK_FILL_BYTE, ( size_t ) ulStackDepth * sizeof( StackType_t ) );
 8003a56:	6b3b      	ldr	r3, [r7, #48]	; 0x30
 8003a58:	6b1a      	ldr	r2, [r3, #48]	; 0x30
 8003a5a:	687b      	ldr	r3, [r7, #4]
 8003a5c:	009b      	lsls	r3, r3, #2
 8003a5e:	4610      	mov	r0, r2
 8003a60:	21a5      	movs	r1, #165	; 0xa5
 8003a62:	461a      	mov	r2, r3
 8003a64:	f001 fe27 	bl	80056b6 <memset>
	grows from high memory to low (as per the 80x86) or vice versa.
	portSTACK_GROWTH is used to make the result positive or negative as required
	by the port. */
	#if( portSTACK_GROWTH < 0 )
	{
		pxTopOfStack = &( pxNewTCB->pxStack[ ulStackDepth - ( uint32_t ) 1 ] );
 8003a68:	6b3b      	ldr	r3, [r7, #48]	; 0x30
 8003a6a:	6b1a      	ldr	r2, [r3, #48]	; 0x30
 8003a6c:	687b      	ldr	r3, [r7, #4]
 8003a6e:	f103 4380 	add.w	r3, r3, #1073741824	; 0x40000000
 8003a72:	3b01      	subs	r3, #1
 8003a74:	009b      	lsls	r3, r3, #2
 8003a76:	4413      	add	r3, r2
 8003a78:	61bb      	str	r3, [r7, #24]
		pxTopOfStack = ( StackType_t * ) ( ( ( portPOINTER_SIZE_TYPE ) pxTopOfStack ) & ( ~( ( portPOINTER_SIZE_TYPE ) portBYTE_ALIGNMENT_MASK ) ) ); /*lint !e923 !e9033 !e9078 MISRA exception.  Avoiding casts between pointers and integers is not practical.  Size differences accounted for using portPOINTER_SIZE_TYPE type.  Checked by assert(). */
 8003a7a:	69bb      	ldr	r3, [r7, #24]
 8003a7c:	f023 0307 	bic.w	r3, r3, #7
 8003a80:	61bb      	str	r3, [r7, #24]

		/* Check the alignment of the calculated top of stack is correct. */
		configASSERT( ( ( ( portPOINTER_SIZE_TYPE ) pxTopOfStack & ( portPOINTER_SIZE_TYPE ) portBYTE_ALIGNMENT_MASK ) == 0UL ) );
 8003a82:	69bb      	ldr	r3, [r7, #24]
 8003a84:	f003 0307 	and.w	r3, r3, #7
 8003a88:	2b00      	cmp	r3, #0
 8003a8a:	d009      	beq.n	8003aa0 <prvInitialiseNewTask+0x58>
 8003a8c:	f04f 03fc 	mov.w	r3, #252	; 0xfc
 8003a90:	f383 8811 	msr	BASEPRI, r3
 8003a94:	f3bf 8f6f 	isb	sy
 8003a98:	f3bf 8f4f 	dsb	sy
 8003a9c:	617b      	str	r3, [r7, #20]
 8003a9e:	e7fe      	b.n	8003a9e <prvInitialiseNewTask+0x56>
		pxNewTCB->pxEndOfStack = pxNewTCB->pxStack + ( ulStackDepth - ( uint32_t ) 1 );
	}
	#endif /* portSTACK_GROWTH */

	/* Store the task name in the TCB. */
	if( pcName != NULL )
 8003aa0:	68bb      	ldr	r3, [r7, #8]
 8003aa2:	2b00      	cmp	r3, #0
 8003aa4:	d01e      	beq.n	8003ae4 <prvInitialiseNewTask+0x9c>
	{
		for( x = ( UBaseType_t ) 0; x < ( UBaseType_t ) configMAX_TASK_NAME_LEN; x++ )
 8003aa6:	2300      	movs	r3, #0
 8003aa8:	61fb      	str	r3, [r7, #28]
 8003aaa:	e013      	b.n	8003ad4 <prvInitialiseNewTask+0x8c>
		{
			pxNewTCB->pcTaskName[ x ] = pcName[ x ];
 8003aac:	68ba      	ldr	r2, [r7, #8]
 8003aae:	69fb      	ldr	r3, [r7, #28]
 8003ab0:	4413      	add	r3, r2
 8003ab2:	7819      	ldrb	r1, [r3, #0]
 8003ab4:	6b3a      	ldr	r2, [r7, #48]	; 0x30
 8003ab6:	69fb      	ldr	r3, [r7, #28]
 8003ab8:	4413      	add	r3, r2
 8003aba:	3330      	adds	r3, #48	; 0x30
 8003abc:	460a      	mov	r2, r1
 8003abe:	711a      	strb	r2, [r3, #4]

			/* Don't copy all configMAX_TASK_NAME_LEN if the string is shorter than
			configMAX_TASK_NAME_LEN characters just in case the memory after the
			string is not accessible (extremely unlikely). */
			if( pcName[ x ] == ( char ) 0x00 )
 8003ac0:	68ba      	ldr	r2, [r7, #8]
 8003ac2:	69fb      	ldr	r3, [r7, #28]
 8003ac4:	4413      	add	r3, r2
 8003ac6:	781b      	ldrb	r3, [r3, #0]
 8003ac8:	2b00      	cmp	r3, #0
 8003aca:	d100      	bne.n	8003ace <prvInitialiseNewTask+0x86>
			{
				break;
 8003acc:	e005      	b.n	8003ada <prvInitialiseNewTask+0x92>
	#endif /* portSTACK_GROWTH */

	/* Store the task name in the TCB. */
	if( pcName != NULL )
	{
		for( x = ( UBaseType_t ) 0; x < ( UBaseType_t ) configMAX_TASK_NAME_LEN; x++ )
 8003ace:	69fb      	ldr	r3, [r7, #28]
 8003ad0:	3301      	adds	r3, #1
 8003ad2:	61fb      	str	r3, [r7, #28]
 8003ad4:	69fb      	ldr	r3, [r7, #28]
 8003ad6:	2b0f      	cmp	r3, #15
 8003ad8:	d9e8      	bls.n	8003aac <prvInitialiseNewTask+0x64>
			}
		}

		/* Ensure the name string is terminated in the case that the string length
		was greater or equal to configMAX_TASK_NAME_LEN. */
		pxNewTCB->pcTaskName[ configMAX_TASK_NAME_LEN - 1 ] = '\0';
 8003ada:	6b3b      	ldr	r3, [r7, #48]	; 0x30
 8003adc:	2200      	movs	r2, #0
 8003ade:	f883 2043 	strb.w	r2, [r3, #67]	; 0x43
 8003ae2:	e003      	b.n	8003aec <prvInitialiseNewTask+0xa4>
	}
	else
	{
		/* The task has not been given a name, so just ensure there is a NULL
		terminator when it is read out. */
		pxNewTCB->pcTaskName[ 0 ] = 0x00;
 8003ae4:	6b3b      	ldr	r3, [r7, #48]	; 0x30
 8003ae6:	2200      	movs	r2, #0
 8003ae8:	f883 2034 	strb.w	r2, [r3, #52]	; 0x34
	}

	/* This is used as an array index so must ensure it's not too large.  First
	remove the privilege bit if one is present. */
	if( uxPriority >= ( UBaseType_t ) configMAX_PRIORITIES )
 8003aec:	6abb      	ldr	r3, [r7, #40]	; 0x28
 8003aee:	2b04      	cmp	r3, #4
 8003af0:	d901      	bls.n	8003af6 <prvInitialiseNewTask+0xae>
	{
		uxPriority = ( UBaseType_t ) configMAX_PRIORITIES - ( UBaseType_t ) 1U;
 8003af2:	2304      	movs	r3, #4
 8003af4:	62bb      	str	r3, [r7, #40]	; 0x28
	else
	{
		mtCOVERAGE_TEST_MARKER();
	}

	pxNewTCB->uxPriority = uxPriority;
 8003af6:	6b3b      	ldr	r3, [r7, #48]	; 0x30
 8003af8:	6aba      	ldr	r2, [r7, #40]	; 0x28
 8003afa:	62da      	str	r2, [r3, #44]	; 0x2c
	#if ( configUSE_MUTEXES == 1 )
	{
		pxNewTCB->uxBasePriority = uxPriority;
 8003afc:	6b3b      	ldr	r3, [r7, #48]	; 0x30
 8003afe:	6aba      	ldr	r2, [r7, #40]	; 0x28
 8003b00:	64da      	str	r2, [r3, #76]	; 0x4c
		pxNewTCB->uxMutexesHeld = 0;
 8003b02:	6b3b      	ldr	r3, [r7, #48]	; 0x30
 8003b04:	2200      	movs	r2, #0
 8003b06:	651a      	str	r2, [r3, #80]	; 0x50
	}
	#endif /* configUSE_MUTEXES */

	vListInitialiseItem( &( pxNewTCB->xStateListItem ) );
 8003b08:	6b3b      	ldr	r3, [r7, #48]	; 0x30
 8003b0a:	3304      	adds	r3, #4
 8003b0c:	4618      	mov	r0, r3
 8003b0e:	f7fe ffc3 	bl	8002a98 <vListInitialiseItem>
	vListInitialiseItem( &( pxNewTCB->xEventListItem ) );
 8003b12:	6b3b      	ldr	r3, [r7, #48]	; 0x30
 8003b14:	3318      	adds	r3, #24
 8003b16:	4618      	mov	r0, r3
 8003b18:	f7fe ffbe 	bl	8002a98 <vListInitialiseItem>

	/* Set the pxNewTCB as a link back from the ListItem_t.  This is so we can get
	back to	the containing TCB from a generic item in a list. */
	listSET_LIST_ITEM_OWNER( &( pxNewTCB->xStateListItem ), pxNewTCB );
 8003b1c:	6b3b      	ldr	r3, [r7, #48]	; 0x30
 8003b1e:	6b3a      	ldr	r2, [r7, #48]	; 0x30
 8003b20:	611a      	str	r2, [r3, #16]

	/* Event lists are always in priority order. */
	listSET_LIST_ITEM_VALUE( &( pxNewTCB->xEventListItem ), ( TickType_t ) configMAX_PRIORITIES - ( TickType_t ) uxPriority ); /*lint !e961 MISRA exception as the casts are only redundant for some ports. */
 8003b22:	6abb      	ldr	r3, [r7, #40]	; 0x28
 8003b24:	f1c3 0205 	rsb	r2, r3, #5
 8003b28:	6b3b      	ldr	r3, [r7, #48]	; 0x30
 8003b2a:	619a      	str	r2, [r3, #24]
	listSET_LIST_ITEM_OWNER( &( pxNewTCB->xEventListItem ), pxNewTCB );
 8003b2c:	6b3b      	ldr	r3, [r7, #48]	; 0x30
 8003b2e:	6b3a      	ldr	r2, [r7, #48]	; 0x30
 8003b30:	625a      	str	r2, [r3, #36]	; 0x24
	}
	#endif

	#if( configNUM_THREAD_LOCAL_STORAGE_POINTERS != 0 )
	{
		for( x = 0; x < ( UBaseType_t ) configNUM_THREAD_LOCAL_STORAGE_POINTERS; x++ )
 8003b32:	2300      	movs	r3, #0
 8003b34:	61fb      	str	r3, [r7, #28]
 8003b36:	e009      	b.n	8003b4c <prvInitialiseNewTask+0x104>
		{
			pxNewTCB->pvThreadLocalStoragePointers[ x ] = NULL;
 8003b38:	6b3a      	ldr	r2, [r7, #48]	; 0x30
 8003b3a:	69fb      	ldr	r3, [r7, #28]
 8003b3c:	3314      	adds	r3, #20
 8003b3e:	009b      	lsls	r3, r3, #2
 8003b40:	4413      	add	r3, r2
 8003b42:	2200      	movs	r2, #0
 8003b44:	605a      	str	r2, [r3, #4]
	}
	#endif

	#if( configNUM_THREAD_LOCAL_STORAGE_POINTERS != 0 )
	{
		for( x = 0; x < ( UBaseType_t ) configNUM_THREAD_LOCAL_STORAGE_POINTERS; x++ )
 8003b46:	69fb      	ldr	r3, [r7, #28]
 8003b48:	3301      	adds	r3, #1
 8003b4a:	61fb      	str	r3, [r7, #28]
 8003b4c:	69fb      	ldr	r3, [r7, #28]
 8003b4e:	2b04      	cmp	r3, #4
 8003b50:	d9f2      	bls.n	8003b38 <prvInitialiseNewTask+0xf0>
	}
	#endif

	#if ( configUSE_TASK_NOTIFICATIONS == 1 )
	{
		pxNewTCB->ulNotifiedValue = 0;
 8003b52:	6b3b      	ldr	r3, [r7, #48]	; 0x30
 8003b54:	2200      	movs	r2, #0
 8003b56:	669a      	str	r2, [r3, #104]	; 0x68
		pxNewTCB->ucNotifyState = taskNOT_WAITING_NOTIFICATION;
 8003b58:	6b3b      	ldr	r3, [r7, #48]	; 0x30
 8003b5a:	2200      	movs	r2, #0
 8003b5c:	f883 206c 	strb.w	r2, [r3, #108]	; 0x6c
	}
	#endif

	#if( INCLUDE_xTaskAbortDelay == 1 )
	{
		pxNewTCB->ucDelayAborted = pdFALSE;
 8003b60:	6b3b      	ldr	r3, [r7, #48]	; 0x30
 8003b62:	2200      	movs	r2, #0
 8003b64:	f883 206d 	strb.w	r2, [r3, #109]	; 0x6d
			}
			#endif /* portSTACK_GROWTH */
		}
		#else /* portHAS_STACK_OVERFLOW_CHECKING */
		{
			pxNewTCB->pxTopOfStack = pxPortInitialiseStack( pxTopOfStack, pxTaskCode, pvParameters );
 8003b68:	69b8      	ldr	r0, [r7, #24]
 8003b6a:	68f9      	ldr	r1, [r7, #12]
 8003b6c:	683a      	ldr	r2, [r7, #0]
 8003b6e:	f7fe fd0f 	bl	8002590 <pxPortInitialiseStack>
 8003b72:	4602      	mov	r2, r0
 8003b74:	6b3b      	ldr	r3, [r7, #48]	; 0x30
 8003b76:	601a      	str	r2, [r3, #0]
		}
		#endif /* portHAS_STACK_OVERFLOW_CHECKING */
	}
	#endif /* portUSING_MPU_WRAPPERS */

	if( pxCreatedTask != NULL )
 8003b78:	6afb      	ldr	r3, [r7, #44]	; 0x2c
 8003b7a:	2b00      	cmp	r3, #0
 8003b7c:	d002      	beq.n	8003b84 <prvInitialiseNewTask+0x13c>
	{
		/* Pass the handle out in an anonymous way.  The handle can be used to
		change the created task's priority, delete the created task, etc.*/
		*pxCreatedTask = ( TaskHandle_t ) pxNewTCB;
 8003b7e:	6afb      	ldr	r3, [r7, #44]	; 0x2c
 8003b80:	6b3a      	ldr	r2, [r7, #48]	; 0x30
 8003b82:	601a      	str	r2, [r3, #0]
	}
	else
	{
		mtCOVERAGE_TEST_MARKER();
	}
}
 8003b84:	3720      	adds	r7, #32
 8003b86:	46bd      	mov	sp, r7
 8003b88:	bd80      	pop	{r7, pc}
 8003b8a:	bf00      	nop

08003b8c <prvAddNewTaskToReadyList>:
/*-----------------------------------------------------------*/

static void prvAddNewTaskToReadyList( TCB_t *pxNewTCB )
{
 8003b8c:	b580      	push	{r7, lr}
 8003b8e:	b082      	sub	sp, #8
 8003b90:	af00      	add	r7, sp, #0
 8003b92:	6078      	str	r0, [r7, #4]
	/* Ensure interrupts don't access the task lists while the lists are being
	updated. */
	taskENTER_CRITICAL();
 8003b94:	f7fe fe26 	bl	80027e4 <vPortEnterCritical>
	{
		uxCurrentNumberOfTasks++;
 8003b98:	4b2d      	ldr	r3, [pc, #180]	; (8003c50 <prvAddNewTaskToReadyList+0xc4>)
 8003b9a:	681b      	ldr	r3, [r3, #0]
 8003b9c:	3301      	adds	r3, #1
 8003b9e:	4a2c      	ldr	r2, [pc, #176]	; (8003c50 <prvAddNewTaskToReadyList+0xc4>)
 8003ba0:	6013      	str	r3, [r2, #0]
		if( pxCurrentTCB == NULL )
 8003ba2:	4b2c      	ldr	r3, [pc, #176]	; (8003c54 <prvAddNewTaskToReadyList+0xc8>)
 8003ba4:	681b      	ldr	r3, [r3, #0]
 8003ba6:	2b00      	cmp	r3, #0
 8003ba8:	d109      	bne.n	8003bbe <prvAddNewTaskToReadyList+0x32>
		{
			/* There are no other tasks, or all the other tasks are in
			the suspended state - make this the current task. */
			pxCurrentTCB = pxNewTCB;
 8003baa:	4a2a      	ldr	r2, [pc, #168]	; (8003c54 <prvAddNewTaskToReadyList+0xc8>)
 8003bac:	687b      	ldr	r3, [r7, #4]
 8003bae:	6013      	str	r3, [r2, #0]

			if( uxCurrentNumberOfTasks == ( UBaseType_t ) 1 )
 8003bb0:	4b27      	ldr	r3, [pc, #156]	; (8003c50 <prvAddNewTaskToReadyList+0xc4>)
 8003bb2:	681b      	ldr	r3, [r3, #0]
 8003bb4:	2b01      	cmp	r3, #1
 8003bb6:	d110      	bne.n	8003bda <prvAddNewTaskToReadyList+0x4e>
			{
				/* This is the first task to be created so do the preliminary
				initialisation required.  We will not recover if this call
				fails, but we will report the failure. */
				prvInitialiseTaskLists();
 8003bb8:	f000 fbcc 	bl	8004354 <prvInitialiseTaskLists>
 8003bbc:	e00d      	b.n	8003bda <prvAddNewTaskToReadyList+0x4e>
		else
		{
			/* If the scheduler is not already running, make this task the
			current task if it is the highest priority task to be created
			so far. */
			if( xSchedulerRunning == pdFALSE )
 8003bbe:	4b26      	ldr	r3, [pc, #152]	; (8003c58 <prvAddNewTaskToReadyList+0xcc>)
 8003bc0:	681b      	ldr	r3, [r3, #0]
 8003bc2:	2b00      	cmp	r3, #0
 8003bc4:	d109      	bne.n	8003bda <prvAddNewTaskToReadyList+0x4e>
			{
				if( pxCurrentTCB->uxPriority <= pxNewTCB->uxPriority )
 8003bc6:	4b23      	ldr	r3, [pc, #140]	; (8003c54 <prvAddNewTaskToReadyList+0xc8>)
 8003bc8:	681b      	ldr	r3, [r3, #0]
 8003bca:	6ada      	ldr	r2, [r3, #44]	; 0x2c
 8003bcc:	687b      	ldr	r3, [r7, #4]
 8003bce:	6adb      	ldr	r3, [r3, #44]	; 0x2c
 8003bd0:	429a      	cmp	r2, r3
 8003bd2:	d802      	bhi.n	8003bda <prvAddNewTaskToReadyList+0x4e>
				{
					pxCurrentTCB = pxNewTCB;
 8003bd4:	4a1f      	ldr	r2, [pc, #124]	; (8003c54 <prvAddNewTaskToReadyList+0xc8>)
 8003bd6:	687b      	ldr	r3, [r7, #4]
 8003bd8:	6013      	str	r3, [r2, #0]
			{
				mtCOVERAGE_TEST_MARKER();
			}
		}

		uxTaskNumber++;
 8003bda:	4b20      	ldr	r3, [pc, #128]	; (8003c5c <prvAddNewTaskToReadyList+0xd0>)
 8003bdc:	681b      	ldr	r3, [r3, #0]
 8003bde:	3301      	adds	r3, #1
 8003be0:	4a1e      	ldr	r2, [pc, #120]	; (8003c5c <prvAddNewTaskToReadyList+0xd0>)
 8003be2:	6013      	str	r3, [r2, #0]

		#if ( configUSE_TRACE_FACILITY == 1 )
		{
			/* Add a counter into the TCB for tracing only. */
			pxNewTCB->uxTCBNumber = uxTaskNumber;
 8003be4:	4b1d      	ldr	r3, [pc, #116]	; (8003c5c <prvAddNewTaskToReadyList+0xd0>)
 8003be6:	681a      	ldr	r2, [r3, #0]
 8003be8:	687b      	ldr	r3, [r7, #4]
 8003bea:	645a      	str	r2, [r3, #68]	; 0x44
		}
		#endif /* configUSE_TRACE_FACILITY */
		traceTASK_CREATE( pxNewTCB );

		prvAddTaskToReadyList( pxNewTCB );
 8003bec:	687b      	ldr	r3, [r7, #4]
 8003bee:	6adb      	ldr	r3, [r3, #44]	; 0x2c
 8003bf0:	461a      	mov	r2, r3
 8003bf2:	2301      	movs	r3, #1
 8003bf4:	fa03 f202 	lsl.w	r2, r3, r2
 8003bf8:	4b19      	ldr	r3, [pc, #100]	; (8003c60 <prvAddNewTaskToReadyList+0xd4>)
 8003bfa:	681b      	ldr	r3, [r3, #0]
 8003bfc:	4313      	orrs	r3, r2
 8003bfe:	4a18      	ldr	r2, [pc, #96]	; (8003c60 <prvAddNewTaskToReadyList+0xd4>)
 8003c00:	6013      	str	r3, [r2, #0]
 8003c02:	687b      	ldr	r3, [r7, #4]
 8003c04:	6ada      	ldr	r2, [r3, #44]	; 0x2c
 8003c06:	4613      	mov	r3, r2
 8003c08:	009b      	lsls	r3, r3, #2
 8003c0a:	4413      	add	r3, r2
 8003c0c:	009b      	lsls	r3, r3, #2
 8003c0e:	4a15      	ldr	r2, [pc, #84]	; (8003c64 <prvAddNewTaskToReadyList+0xd8>)
 8003c10:	441a      	add	r2, r3
 8003c12:	687b      	ldr	r3, [r7, #4]
 8003c14:	3304      	adds	r3, #4
 8003c16:	4610      	mov	r0, r2
 8003c18:	4619      	mov	r1, r3
 8003c1a:	f7fe ff49 	bl	8002ab0 <vListInsertEnd>

		portSETUP_TCB( pxNewTCB );
	}
	taskEXIT_CRITICAL();
 8003c1e:	f7fe fe0f 	bl	8002840 <vPortExitCritical>

	if( xSchedulerRunning != pdFALSE )
 8003c22:	4b0d      	ldr	r3, [pc, #52]	; (8003c58 <prvAddNewTaskToReadyList+0xcc>)
 8003c24:	681b      	ldr	r3, [r3, #0]
 8003c26:	2b00      	cmp	r3, #0
 8003c28:	d00e      	beq.n	8003c48 <prvAddNewTaskToReadyList+0xbc>
	{
		/* If the created task is of a higher priority than the current task
		then it should run now. */
		if( pxCurrentTCB->uxPriority < pxNewTCB->uxPriority )
 8003c2a:	4b0a      	ldr	r3, [pc, #40]	; (8003c54 <prvAddNewTaskToReadyList+0xc8>)
 8003c2c:	681b      	ldr	r3, [r3, #0]
 8003c2e:	6ada      	ldr	r2, [r3, #44]	; 0x2c
 8003c30:	687b      	ldr	r3, [r7, #4]
 8003c32:	6adb      	ldr	r3, [r3, #44]	; 0x2c
 8003c34:	429a      	cmp	r2, r3
 8003c36:	d207      	bcs.n	8003c48 <prvAddNewTaskToReadyList+0xbc>
		{
			taskYIELD_IF_USING_PREEMPTION();
 8003c38:	4b0b      	ldr	r3, [pc, #44]	; (8003c68 <prvAddNewTaskToReadyList+0xdc>)
 8003c3a:	f04f 5280 	mov.w	r2, #268435456	; 0x10000000
 8003c3e:	601a      	str	r2, [r3, #0]
 8003c40:	f3bf 8f4f 	dsb	sy
 8003c44:	f3bf 8f6f 	isb	sy
	}
	else
	{
		mtCOVERAGE_TEST_MARKER();
	}
}
 8003c48:	3708      	adds	r7, #8
 8003c4a:	46bd      	mov	sp, r7
 8003c4c:	bd80      	pop	{r7, pc}
 8003c4e:	bf00      	nop
 8003c50:	1ffe89b0 	.word	0x1ffe89b0
 8003c54:	1ffe88d8 	.word	0x1ffe88d8
 8003c58:	1ffe89bc 	.word	0x1ffe89bc
 8003c5c:	1ffe89cc 	.word	0x1ffe89cc
 8003c60:	1ffe89b8 	.word	0x1ffe89b8
 8003c64:	1ffe88dc 	.word	0x1ffe88dc
 8003c68:	e000ed04 	.word	0xe000ed04

08003c6c <vTaskStartScheduler>:

#endif /* ( ( INCLUDE_xTaskResumeFromISR == 1 ) && ( INCLUDE_vTaskSuspend == 1 ) ) */
/*-----------------------------------------------------------*/

void vTaskStartScheduler( void )
{
 8003c6c:	b580      	push	{r7, lr}
 8003c6e:	b086      	sub	sp, #24
 8003c70:	af02      	add	r7, sp, #8
		}
	}
	#else
	{
		/* The Idle task is being created using dynamically allocated RAM. */
		xReturn = xTaskCreate(	prvIdleTask,
 8003c72:	2300      	movs	r3, #0
 8003c74:	9300      	str	r3, [sp, #0]
 8003c76:	4b1c      	ldr	r3, [pc, #112]	; (8003ce8 <vTaskStartScheduler+0x7c>)
 8003c78:	9301      	str	r3, [sp, #4]
 8003c7a:	481c      	ldr	r0, [pc, #112]	; (8003cec <vTaskStartScheduler+0x80>)
 8003c7c:	491c      	ldr	r1, [pc, #112]	; (8003cf0 <vTaskStartScheduler+0x84>)
 8003c7e:	2282      	movs	r2, #130	; 0x82
 8003c80:	2300      	movs	r3, #0
 8003c82:	f7ff fe9f 	bl	80039c4 <xTaskCreate>
 8003c86:	60f8      	str	r0, [r7, #12]
	}
	#endif /* configSUPPORT_STATIC_ALLOCATION */

	#if ( configUSE_TIMERS == 1 )
	{
		if( xReturn == pdPASS )
 8003c88:	68fb      	ldr	r3, [r7, #12]
 8003c8a:	2b01      	cmp	r3, #1
 8003c8c:	d102      	bne.n	8003c94 <vTaskStartScheduler+0x28>
		{
			xReturn = xTimerCreateTimerTask();
 8003c8e:	f000 fe39 	bl	8004904 <xTimerCreateTimerTask>
 8003c92:	60f8      	str	r0, [r7, #12]
			mtCOVERAGE_TEST_MARKER();
		}
	}
	#endif /* configUSE_TIMERS */

	if( xReturn == pdPASS )
 8003c94:	68fb      	ldr	r3, [r7, #12]
 8003c96:	2b01      	cmp	r3, #1
 8003c98:	d115      	bne.n	8003cc6 <vTaskStartScheduler+0x5a>
 8003c9a:	f04f 03fc 	mov.w	r3, #252	; 0xfc
 8003c9e:	f383 8811 	msr	BASEPRI, r3
 8003ca2:	f3bf 8f6f 	isb	sy
 8003ca6:	f3bf 8f4f 	dsb	sy
 8003caa:	60bb      	str	r3, [r7, #8]
			structure specific to the task that will run first. */
			_impure_ptr = &( pxCurrentTCB->xNewLib_reent );
		}
		#endif /* configUSE_NEWLIB_REENTRANT */

		xNextTaskUnblockTime = portMAX_DELAY;
 8003cac:	4b11      	ldr	r3, [pc, #68]	; (8003cf4 <vTaskStartScheduler+0x88>)
 8003cae:	f04f 32ff 	mov.w	r2, #4294967295
 8003cb2:	601a      	str	r2, [r3, #0]
		xSchedulerRunning = pdTRUE;
 8003cb4:	4b10      	ldr	r3, [pc, #64]	; (8003cf8 <vTaskStartScheduler+0x8c>)
 8003cb6:	2201      	movs	r2, #1
 8003cb8:	601a      	str	r2, [r3, #0]
		xTickCount = ( TickType_t ) configINITIAL_TICK_COUNT;
 8003cba:	4b10      	ldr	r3, [pc, #64]	; (8003cfc <vTaskStartScheduler+0x90>)
 8003cbc:	2200      	movs	r2, #0
 8003cbe:	601a      	str	r2, [r3, #0]

		traceTASK_SWITCHED_IN();

		/* Setting up the timer tick is hardware specific and thus in the
		portable interface. */
		if( xPortStartScheduler() != pdFALSE )
 8003cc0:	f7fe fcf2 	bl	80026a8 <xPortStartScheduler>
 8003cc4:	e00d      	b.n	8003ce2 <vTaskStartScheduler+0x76>
	else
	{
		/* This line will only be reached if the kernel could not be started,
		because there was not enough FreeRTOS heap to create the idle task
		or the timer task. */
		configASSERT( xReturn != errCOULD_NOT_ALLOCATE_REQUIRED_MEMORY );
 8003cc6:	68fb      	ldr	r3, [r7, #12]
 8003cc8:	f1b3 3fff 	cmp.w	r3, #4294967295
 8003ccc:	d109      	bne.n	8003ce2 <vTaskStartScheduler+0x76>
 8003cce:	f04f 03fc 	mov.w	r3, #252	; 0xfc
 8003cd2:	f383 8811 	msr	BASEPRI, r3
 8003cd6:	f3bf 8f6f 	isb	sy
 8003cda:	f3bf 8f4f 	dsb	sy
 8003cde:	607b      	str	r3, [r7, #4]
 8003ce0:	e7fe      	b.n	8003ce0 <vTaskStartScheduler+0x74>
	}

	/* Prevent compiler warnings if INCLUDE_xTaskGetIdleTaskHandle is set to 0,
	meaning xIdleTaskHandle is not used anywhere else. */
	( void ) xIdleTaskHandle;
}
 8003ce2:	3710      	adds	r7, #16
 8003ce4:	46bd      	mov	sp, r7
 8003ce6:	bd80      	pop	{r7, pc}
 8003ce8:	1ffe89d4 	.word	0x1ffe89d4
 8003cec:	08004325 	.word	0x08004325
 8003cf0:	08005980 	.word	0x08005980
 8003cf4:	1ffe89d0 	.word	0x1ffe89d0
 8003cf8:	1ffe89bc 	.word	0x1ffe89bc
 8003cfc:	1ffe89b4 	.word	0x1ffe89b4

08003d00 <vTaskSuspendAll>:
	vPortEndScheduler();
}
/*----------------------------------------------------------*/

void vTaskSuspendAll( void )
{
 8003d00:	b480      	push	{r7}
 8003d02:	af00      	add	r7, sp, #0
	/* A critical section is not required as the variable is of type
	BaseType_t.  Please read Richard Barry's reply in the following link to a
	post in the FreeRTOS support forum before reporting this as a bug! -
	http://goo.gl/wu4acr */
	++uxSchedulerSuspended;
 8003d04:	4b04      	ldr	r3, [pc, #16]	; (8003d18 <vTaskSuspendAll+0x18>)
 8003d06:	681b      	ldr	r3, [r3, #0]
 8003d08:	3301      	adds	r3, #1
 8003d0a:	4a03      	ldr	r2, [pc, #12]	; (8003d18 <vTaskSuspendAll+0x18>)
 8003d0c:	6013      	str	r3, [r2, #0]
	portMEMORY_BARRIER();
}
 8003d0e:	46bd      	mov	sp, r7
 8003d10:	f85d 7b04 	ldr.w	r7, [sp], #4
 8003d14:	4770      	bx	lr
 8003d16:	bf00      	nop
 8003d18:	1ffe89d8 	.word	0x1ffe89d8

08003d1c <xTaskResumeAll>:

#endif /* configUSE_TICKLESS_IDLE */
/*----------------------------------------------------------*/

BaseType_t xTaskResumeAll( void )
{
 8003d1c:	b580      	push	{r7, lr}
 8003d1e:	b084      	sub	sp, #16
 8003d20:	af00      	add	r7, sp, #0
TCB_t *pxTCB = NULL;
 8003d22:	2300      	movs	r3, #0
 8003d24:	60fb      	str	r3, [r7, #12]
BaseType_t xAlreadyYielded = pdFALSE;
 8003d26:	2300      	movs	r3, #0
 8003d28:	60bb      	str	r3, [r7, #8]

	/* If uxSchedulerSuspended is zero then this function does not match a
	previous call to vTaskSuspendAll(). */
	configASSERT( uxSchedulerSuspended );
 8003d2a:	4b42      	ldr	r3, [pc, #264]	; (8003e34 <xTaskResumeAll+0x118>)
 8003d2c:	681b      	ldr	r3, [r3, #0]
 8003d2e:	2b00      	cmp	r3, #0
 8003d30:	d109      	bne.n	8003d46 <xTaskResumeAll+0x2a>
 8003d32:	f04f 03fc 	mov.w	r3, #252	; 0xfc
 8003d36:	f383 8811 	msr	BASEPRI, r3
 8003d3a:	f3bf 8f6f 	isb	sy
 8003d3e:	f3bf 8f4f 	dsb	sy
 8003d42:	603b      	str	r3, [r7, #0]
 8003d44:	e7fe      	b.n	8003d44 <xTaskResumeAll+0x28>
	/* It is possible that an ISR caused a task to be removed from an event
	list while the scheduler was suspended.  If this was the case then the
	removed task will have been added to the xPendingReadyList.  Once the
	scheduler has been resumed it is safe to move all the pending ready
	tasks from this list into their appropriate ready list. */
	taskENTER_CRITICAL();
 8003d46:	f7fe fd4d 	bl	80027e4 <vPortEnterCritical>
	{
		--uxSchedulerSuspended;
 8003d4a:	4b3a      	ldr	r3, [pc, #232]	; (8003e34 <xTaskResumeAll+0x118>)
 8003d4c:	681b      	ldr	r3, [r3, #0]
 8003d4e:	3b01      	subs	r3, #1
 8003d50:	4a38      	ldr	r2, [pc, #224]	; (8003e34 <xTaskResumeAll+0x118>)
 8003d52:	6013      	str	r3, [r2, #0]

		if( uxSchedulerSuspended == ( UBaseType_t ) pdFALSE )
 8003d54:	4b37      	ldr	r3, [pc, #220]	; (8003e34 <xTaskResumeAll+0x118>)
 8003d56:	681b      	ldr	r3, [r3, #0]
 8003d58:	2b00      	cmp	r3, #0
 8003d5a:	d163      	bne.n	8003e24 <xTaskResumeAll+0x108>
		{
			if( uxCurrentNumberOfTasks > ( UBaseType_t ) 0U )
 8003d5c:	4b36      	ldr	r3, [pc, #216]	; (8003e38 <xTaskResumeAll+0x11c>)
 8003d5e:	681b      	ldr	r3, [r3, #0]
 8003d60:	2b00      	cmp	r3, #0
 8003d62:	d05f      	beq.n	8003e24 <xTaskResumeAll+0x108>
			{
				/* Move any readied tasks from the pending list into the
				appropriate ready list. */
				while( listLIST_IS_EMPTY( &xPendingReadyList ) == pdFALSE )
 8003d64:	e030      	b.n	8003dc8 <xTaskResumeAll+0xac>
				{
					pxTCB = listGET_OWNER_OF_HEAD_ENTRY( ( &xPendingReadyList ) ); /*lint !e9079 void * is used as this macro is used with timers and co-routines too.  Alignment is known to be fine as the type of the pointer stored and retrieved is the same. */
 8003d66:	4b35      	ldr	r3, [pc, #212]	; (8003e3c <xTaskResumeAll+0x120>)
 8003d68:	68db      	ldr	r3, [r3, #12]
 8003d6a:	68db      	ldr	r3, [r3, #12]
 8003d6c:	60fb      	str	r3, [r7, #12]
					( void ) uxListRemove( &( pxTCB->xEventListItem ) );
 8003d6e:	68fb      	ldr	r3, [r7, #12]
 8003d70:	3318      	adds	r3, #24
 8003d72:	4618      	mov	r0, r3
 8003d74:	f7fe fef8 	bl	8002b68 <uxListRemove>
					( void ) uxListRemove( &( pxTCB->xStateListItem ) );
 8003d78:	68fb      	ldr	r3, [r7, #12]
 8003d7a:	3304      	adds	r3, #4
 8003d7c:	4618      	mov	r0, r3
 8003d7e:	f7fe fef3 	bl	8002b68 <uxListRemove>
					prvAddTaskToReadyList( pxTCB );
 8003d82:	68fb      	ldr	r3, [r7, #12]
 8003d84:	6adb      	ldr	r3, [r3, #44]	; 0x2c
 8003d86:	461a      	mov	r2, r3
 8003d88:	2301      	movs	r3, #1
 8003d8a:	fa03 f202 	lsl.w	r2, r3, r2
 8003d8e:	4b2c      	ldr	r3, [pc, #176]	; (8003e40 <xTaskResumeAll+0x124>)
 8003d90:	681b      	ldr	r3, [r3, #0]
 8003d92:	4313      	orrs	r3, r2
 8003d94:	4a2a      	ldr	r2, [pc, #168]	; (8003e40 <xTaskResumeAll+0x124>)
 8003d96:	6013      	str	r3, [r2, #0]
 8003d98:	68fb      	ldr	r3, [r7, #12]
 8003d9a:	6ada      	ldr	r2, [r3, #44]	; 0x2c
 8003d9c:	4613      	mov	r3, r2
 8003d9e:	009b      	lsls	r3, r3, #2
 8003da0:	4413      	add	r3, r2
 8003da2:	009b      	lsls	r3, r3, #2
 8003da4:	4a27      	ldr	r2, [pc, #156]	; (8003e44 <xTaskResumeAll+0x128>)
 8003da6:	441a      	add	r2, r3
 8003da8:	68fb      	ldr	r3, [r7, #12]
 8003daa:	3304      	adds	r3, #4
 8003dac:	4610      	mov	r0, r2
 8003dae:	4619      	mov	r1, r3
 8003db0:	f7fe fe7e 	bl	8002ab0 <vListInsertEnd>

					/* If the moved task has a priority higher than the current
					task then a yield must be performed. */
					if( pxTCB->uxPriority >= pxCurrentTCB->uxPriority )
 8003db4:	68fb      	ldr	r3, [r7, #12]
 8003db6:	6ada      	ldr	r2, [r3, #44]	; 0x2c
 8003db8:	4b23      	ldr	r3, [pc, #140]	; (8003e48 <xTaskResumeAll+0x12c>)
 8003dba:	681b      	ldr	r3, [r3, #0]
 8003dbc:	6adb      	ldr	r3, [r3, #44]	; 0x2c
 8003dbe:	429a      	cmp	r2, r3
 8003dc0:	d302      	bcc.n	8003dc8 <xTaskResumeAll+0xac>
					{
						xYieldPending = pdTRUE;
 8003dc2:	4b22      	ldr	r3, [pc, #136]	; (8003e4c <xTaskResumeAll+0x130>)
 8003dc4:	2201      	movs	r2, #1
 8003dc6:	601a      	str	r2, [r3, #0]
		{
			if( uxCurrentNumberOfTasks > ( UBaseType_t ) 0U )
			{
				/* Move any readied tasks from the pending list into the
				appropriate ready list. */
				while( listLIST_IS_EMPTY( &xPendingReadyList ) == pdFALSE )
 8003dc8:	4b1c      	ldr	r3, [pc, #112]	; (8003e3c <xTaskResumeAll+0x120>)
 8003dca:	681b      	ldr	r3, [r3, #0]
 8003dcc:	2b00      	cmp	r3, #0
 8003dce:	d1ca      	bne.n	8003d66 <xTaskResumeAll+0x4a>
					{
						mtCOVERAGE_TEST_MARKER();
					}
				}

				if( pxTCB != NULL )
 8003dd0:	68fb      	ldr	r3, [r7, #12]
 8003dd2:	2b00      	cmp	r3, #0
 8003dd4:	d001      	beq.n	8003dda <xTaskResumeAll+0xbe>
					which may have prevented the next unblock time from being
					re-calculated, in which case re-calculate it now.  Mainly
					important for low power tickless implementations, where
					this can prevent an unnecessary exit from low power
					state. */
					prvResetNextTaskUnblockTime();
 8003dd6:	f000 fb37 	bl	8004448 <prvResetNextTaskUnblockTime>
				/* If any ticks occurred while the scheduler was suspended then
				they should be processed now.  This ensures the tick count does
				not	slip, and that any delayed tasks are resumed at the correct
				time. */
				{
					UBaseType_t uxPendedCounts = uxPendedTicks; /* Non-volatile copy. */
 8003dda:	4b1d      	ldr	r3, [pc, #116]	; (8003e50 <xTaskResumeAll+0x134>)
 8003ddc:	681b      	ldr	r3, [r3, #0]
 8003dde:	607b      	str	r3, [r7, #4]

					if( uxPendedCounts > ( UBaseType_t ) 0U )
 8003de0:	687b      	ldr	r3, [r7, #4]
 8003de2:	2b00      	cmp	r3, #0
 8003de4:	d010      	beq.n	8003e08 <xTaskResumeAll+0xec>
					{
						do
						{
							if( xTaskIncrementTick() != pdFALSE )
 8003de6:	f000 f847 	bl	8003e78 <xTaskIncrementTick>
 8003dea:	4603      	mov	r3, r0
 8003dec:	2b00      	cmp	r3, #0
 8003dee:	d002      	beq.n	8003df6 <xTaskResumeAll+0xda>
							{
								xYieldPending = pdTRUE;
 8003df0:	4b16      	ldr	r3, [pc, #88]	; (8003e4c <xTaskResumeAll+0x130>)
 8003df2:	2201      	movs	r2, #1
 8003df4:	601a      	str	r2, [r3, #0]
							}
							else
							{
								mtCOVERAGE_TEST_MARKER();
							}
							--uxPendedCounts;
 8003df6:	687b      	ldr	r3, [r7, #4]
 8003df8:	3b01      	subs	r3, #1
 8003dfa:	607b      	str	r3, [r7, #4]
						} while( uxPendedCounts > ( UBaseType_t ) 0U );
 8003dfc:	687b      	ldr	r3, [r7, #4]
 8003dfe:	2b00      	cmp	r3, #0
 8003e00:	d1f1      	bne.n	8003de6 <xTaskResumeAll+0xca>

						uxPendedTicks = 0;
 8003e02:	4b13      	ldr	r3, [pc, #76]	; (8003e50 <xTaskResumeAll+0x134>)
 8003e04:	2200      	movs	r2, #0
 8003e06:	601a      	str	r2, [r3, #0]
					{
						mtCOVERAGE_TEST_MARKER();
					}
				}

				if( xYieldPending != pdFALSE )
 8003e08:	4b10      	ldr	r3, [pc, #64]	; (8003e4c <xTaskResumeAll+0x130>)
 8003e0a:	681b      	ldr	r3, [r3, #0]
 8003e0c:	2b00      	cmp	r3, #0
 8003e0e:	d009      	beq.n	8003e24 <xTaskResumeAll+0x108>
				{
					#if( configUSE_PREEMPTION != 0 )
					{
						xAlreadyYielded = pdTRUE;
 8003e10:	2301      	movs	r3, #1
 8003e12:	60bb      	str	r3, [r7, #8]
					}
					#endif
					taskYIELD_IF_USING_PREEMPTION();
 8003e14:	4b0f      	ldr	r3, [pc, #60]	; (8003e54 <xTaskResumeAll+0x138>)
 8003e16:	f04f 5280 	mov.w	r2, #268435456	; 0x10000000
 8003e1a:	601a      	str	r2, [r3, #0]
 8003e1c:	f3bf 8f4f 	dsb	sy
 8003e20:	f3bf 8f6f 	isb	sy
		else
		{
			mtCOVERAGE_TEST_MARKER();
		}
	}
	taskEXIT_CRITICAL();
 8003e24:	f7fe fd0c 	bl	8002840 <vPortExitCritical>

	return xAlreadyYielded;
 8003e28:	68bb      	ldr	r3, [r7, #8]
}
 8003e2a:	4618      	mov	r0, r3
 8003e2c:	3710      	adds	r7, #16
 8003e2e:	46bd      	mov	sp, r7
 8003e30:	bd80      	pop	{r7, pc}
 8003e32:	bf00      	nop
 8003e34:	1ffe89d8 	.word	0x1ffe89d8
 8003e38:	1ffe89b0 	.word	0x1ffe89b0
 8003e3c:	1ffe8970 	.word	0x1ffe8970
 8003e40:	1ffe89b8 	.word	0x1ffe89b8
 8003e44:	1ffe88dc 	.word	0x1ffe88dc
 8003e48:	1ffe88d8 	.word	0x1ffe88d8
 8003e4c:	1ffe89c4 	.word	0x1ffe89c4
 8003e50:	1ffe89c0 	.word	0x1ffe89c0
 8003e54:	e000ed04 	.word	0xe000ed04

08003e58 <xTaskGetTickCount>:
/*-----------------------------------------------------------*/

TickType_t xTaskGetTickCount( void )
{
 8003e58:	b480      	push	{r7}
 8003e5a:	b083      	sub	sp, #12
 8003e5c:	af00      	add	r7, sp, #0
TickType_t xTicks;

	/* Critical section required if running on a 16 bit processor. */
	portTICK_TYPE_ENTER_CRITICAL();
	{
		xTicks = xTickCount;
 8003e5e:	4b05      	ldr	r3, [pc, #20]	; (8003e74 <xTaskGetTickCount+0x1c>)
 8003e60:	681b      	ldr	r3, [r3, #0]
 8003e62:	607b      	str	r3, [r7, #4]
	}
	portTICK_TYPE_EXIT_CRITICAL();

	return xTicks;
 8003e64:	687b      	ldr	r3, [r7, #4]
}
 8003e66:	4618      	mov	r0, r3
 8003e68:	370c      	adds	r7, #12
 8003e6a:	46bd      	mov	sp, r7
 8003e6c:	f85d 7b04 	ldr.w	r7, [sp], #4
 8003e70:	4770      	bx	lr
 8003e72:	bf00      	nop
 8003e74:	1ffe89b4 	.word	0x1ffe89b4

08003e78 <xTaskIncrementTick>:

#endif /* INCLUDE_xTaskAbortDelay */
/*----------------------------------------------------------*/

BaseType_t xTaskIncrementTick( void )
{
 8003e78:	b580      	push	{r7, lr}
 8003e7a:	b086      	sub	sp, #24
 8003e7c:	af00      	add	r7, sp, #0
TCB_t * pxTCB;
TickType_t xItemValue;
BaseType_t xSwitchRequired = pdFALSE;
 8003e7e:	2300      	movs	r3, #0
 8003e80:	617b      	str	r3, [r7, #20]

	/* Called by the portable layer each time a tick interrupt occurs.
	Increments the tick then checks to see if the new tick value will cause any
	tasks to be unblocked. */
	traceTASK_INCREMENT_TICK( xTickCount );
	if( uxSchedulerSuspended == ( UBaseType_t ) pdFALSE )
 8003e82:	4b4f      	ldr	r3, [pc, #316]	; (8003fc0 <xTaskIncrementTick+0x148>)
 8003e84:	681b      	ldr	r3, [r3, #0]
 8003e86:	2b00      	cmp	r3, #0
 8003e88:	f040 8089 	bne.w	8003f9e <xTaskIncrementTick+0x126>
	{
		/* Minor optimisation.  The tick count cannot change in this
		block. */
		const TickType_t xConstTickCount = xTickCount + ( TickType_t ) 1;
 8003e8c:	4b4d      	ldr	r3, [pc, #308]	; (8003fc4 <xTaskIncrementTick+0x14c>)
 8003e8e:	681b      	ldr	r3, [r3, #0]
 8003e90:	3301      	adds	r3, #1
 8003e92:	613b      	str	r3, [r7, #16]

		/* Increment the RTOS tick, switching the delayed and overflowed
		delayed lists if it wraps to 0. */
		xTickCount = xConstTickCount;
 8003e94:	4a4b      	ldr	r2, [pc, #300]	; (8003fc4 <xTaskIncrementTick+0x14c>)
 8003e96:	693b      	ldr	r3, [r7, #16]
 8003e98:	6013      	str	r3, [r2, #0]

		if( xConstTickCount == ( TickType_t ) 0U ) /*lint !e774 'if' does not always evaluate to false as it is looking for an overflow. */
 8003e9a:	693b      	ldr	r3, [r7, #16]
 8003e9c:	2b00      	cmp	r3, #0
 8003e9e:	d11f      	bne.n	8003ee0 <xTaskIncrementTick+0x68>
		{
			taskSWITCH_DELAYED_LISTS();
 8003ea0:	4b49      	ldr	r3, [pc, #292]	; (8003fc8 <xTaskIncrementTick+0x150>)
 8003ea2:	681b      	ldr	r3, [r3, #0]
 8003ea4:	681b      	ldr	r3, [r3, #0]
 8003ea6:	2b00      	cmp	r3, #0
 8003ea8:	d009      	beq.n	8003ebe <xTaskIncrementTick+0x46>
 8003eaa:	f04f 03fc 	mov.w	r3, #252	; 0xfc
 8003eae:	f383 8811 	msr	BASEPRI, r3
 8003eb2:	f3bf 8f6f 	isb	sy
 8003eb6:	f3bf 8f4f 	dsb	sy
 8003eba:	603b      	str	r3, [r7, #0]
 8003ebc:	e7fe      	b.n	8003ebc <xTaskIncrementTick+0x44>
 8003ebe:	4b42      	ldr	r3, [pc, #264]	; (8003fc8 <xTaskIncrementTick+0x150>)
 8003ec0:	681b      	ldr	r3, [r3, #0]
 8003ec2:	60fb      	str	r3, [r7, #12]
 8003ec4:	4b41      	ldr	r3, [pc, #260]	; (8003fcc <xTaskIncrementTick+0x154>)
 8003ec6:	681b      	ldr	r3, [r3, #0]
 8003ec8:	4a3f      	ldr	r2, [pc, #252]	; (8003fc8 <xTaskIncrementTick+0x150>)
 8003eca:	6013      	str	r3, [r2, #0]
 8003ecc:	4a3f      	ldr	r2, [pc, #252]	; (8003fcc <xTaskIncrementTick+0x154>)
 8003ece:	68fb      	ldr	r3, [r7, #12]
 8003ed0:	6013      	str	r3, [r2, #0]
 8003ed2:	4b3f      	ldr	r3, [pc, #252]	; (8003fd0 <xTaskIncrementTick+0x158>)
 8003ed4:	681b      	ldr	r3, [r3, #0]
 8003ed6:	3301      	adds	r3, #1
 8003ed8:	4a3d      	ldr	r2, [pc, #244]	; (8003fd0 <xTaskIncrementTick+0x158>)
 8003eda:	6013      	str	r3, [r2, #0]
 8003edc:	f000 fab4 	bl	8004448 <prvResetNextTaskUnblockTime>

		/* See if this tick has made a timeout expire.  Tasks are stored in
		the	queue in the order of their wake time - meaning once one task
		has been found whose block time has not expired there is no need to
		look any further down the list. */
		if( xConstTickCount >= xNextTaskUnblockTime )
 8003ee0:	4b3c      	ldr	r3, [pc, #240]	; (8003fd4 <xTaskIncrementTick+0x15c>)
 8003ee2:	681b      	ldr	r3, [r3, #0]
 8003ee4:	693a      	ldr	r2, [r7, #16]
 8003ee6:	429a      	cmp	r2, r3
 8003ee8:	d34a      	bcc.n	8003f80 <xTaskIncrementTick+0x108>
		{
			for( ;; )
			{
				if( listLIST_IS_EMPTY( pxDelayedTaskList ) != pdFALSE )
 8003eea:	4b37      	ldr	r3, [pc, #220]	; (8003fc8 <xTaskIncrementTick+0x150>)
 8003eec:	681b      	ldr	r3, [r3, #0]
 8003eee:	681b      	ldr	r3, [r3, #0]
 8003ef0:	2b00      	cmp	r3, #0
 8003ef2:	d104      	bne.n	8003efe <xTaskIncrementTick+0x86>
					/* The delayed list is empty.  Set xNextTaskUnblockTime
					to the maximum possible value so it is extremely
					unlikely that the
					if( xTickCount >= xNextTaskUnblockTime ) test will pass
					next time through. */
					xNextTaskUnblockTime = portMAX_DELAY; /*lint !e961 MISRA exception as the casts are only redundant for some ports. */
 8003ef4:	4b37      	ldr	r3, [pc, #220]	; (8003fd4 <xTaskIncrementTick+0x15c>)
 8003ef6:	f04f 32ff 	mov.w	r2, #4294967295
 8003efa:	601a      	str	r2, [r3, #0]
					break;
 8003efc:	e040      	b.n	8003f80 <xTaskIncrementTick+0x108>
				{
					/* The delayed list is not empty, get the value of the
					item at the head of the delayed list.  This is the time
					at which the task at the head of the delayed list must
					be removed from the Blocked state. */
					pxTCB = listGET_OWNER_OF_HEAD_ENTRY( pxDelayedTaskList ); /*lint !e9079 void * is used as this macro is used with timers and co-routines too.  Alignment is known to be fine as the type of the pointer stored and retrieved is the same. */
 8003efe:	4b32      	ldr	r3, [pc, #200]	; (8003fc8 <xTaskIncrementTick+0x150>)
 8003f00:	681b      	ldr	r3, [r3, #0]
 8003f02:	68db      	ldr	r3, [r3, #12]
 8003f04:	68db      	ldr	r3, [r3, #12]
 8003f06:	60bb      	str	r3, [r7, #8]
					xItemValue = listGET_LIST_ITEM_VALUE( &( pxTCB->xStateListItem ) );
 8003f08:	68bb      	ldr	r3, [r7, #8]
 8003f0a:	685b      	ldr	r3, [r3, #4]
 8003f0c:	607b      	str	r3, [r7, #4]

					if( xConstTickCount < xItemValue )
 8003f0e:	693a      	ldr	r2, [r7, #16]
 8003f10:	687b      	ldr	r3, [r7, #4]
 8003f12:	429a      	cmp	r2, r3
 8003f14:	d203      	bcs.n	8003f1e <xTaskIncrementTick+0xa6>
						/* It is not time to unblock this item yet, but the
						item value is the time at which the task at the head
						of the blocked list must be removed from the Blocked
						state -	so record the item value in
						xNextTaskUnblockTime. */
						xNextTaskUnblockTime = xItemValue;
 8003f16:	4a2f      	ldr	r2, [pc, #188]	; (8003fd4 <xTaskIncrementTick+0x15c>)
 8003f18:	687b      	ldr	r3, [r7, #4]
 8003f1a:	6013      	str	r3, [r2, #0]
						break; /*lint !e9011 Code structure here is deedmed easier to understand with multiple breaks. */
 8003f1c:	e030      	b.n	8003f80 <xTaskIncrementTick+0x108>
					{
						mtCOVERAGE_TEST_MARKER();
					}

					/* It is time to remove the item from the Blocked state. */
					( void ) uxListRemove( &( pxTCB->xStateListItem ) );
 8003f1e:	68bb      	ldr	r3, [r7, #8]
 8003f20:	3304      	adds	r3, #4
 8003f22:	4618      	mov	r0, r3
 8003f24:	f7fe fe20 	bl	8002b68 <uxListRemove>

					/* Is the task waiting on an event also?  If so remove
					it from the event list. */
					if( listLIST_ITEM_CONTAINER( &( pxTCB->xEventListItem ) ) != NULL )
 8003f28:	68bb      	ldr	r3, [r7, #8]
 8003f2a:	6a9b      	ldr	r3, [r3, #40]	; 0x28
 8003f2c:	2b00      	cmp	r3, #0
 8003f2e:	d004      	beq.n	8003f3a <xTaskIncrementTick+0xc2>
					{
						( void ) uxListRemove( &( pxTCB->xEventListItem ) );
 8003f30:	68bb      	ldr	r3, [r7, #8]
 8003f32:	3318      	adds	r3, #24
 8003f34:	4618      	mov	r0, r3
 8003f36:	f7fe fe17 	bl	8002b68 <uxListRemove>
						mtCOVERAGE_TEST_MARKER();
					}

					/* Place the unblocked task into the appropriate ready
					list. */
					prvAddTaskToReadyList( pxTCB );
 8003f3a:	68bb      	ldr	r3, [r7, #8]
 8003f3c:	6adb      	ldr	r3, [r3, #44]	; 0x2c
 8003f3e:	461a      	mov	r2, r3
 8003f40:	2301      	movs	r3, #1
 8003f42:	fa03 f202 	lsl.w	r2, r3, r2
 8003f46:	4b24      	ldr	r3, [pc, #144]	; (8003fd8 <xTaskIncrementTick+0x160>)
 8003f48:	681b      	ldr	r3, [r3, #0]
 8003f4a:	4313      	orrs	r3, r2
 8003f4c:	4a22      	ldr	r2, [pc, #136]	; (8003fd8 <xTaskIncrementTick+0x160>)
 8003f4e:	6013      	str	r3, [r2, #0]
 8003f50:	68bb      	ldr	r3, [r7, #8]
 8003f52:	6ada      	ldr	r2, [r3, #44]	; 0x2c
 8003f54:	4613      	mov	r3, r2
 8003f56:	009b      	lsls	r3, r3, #2
 8003f58:	4413      	add	r3, r2
 8003f5a:	009b      	lsls	r3, r3, #2
 8003f5c:	4a1f      	ldr	r2, [pc, #124]	; (8003fdc <xTaskIncrementTick+0x164>)
 8003f5e:	441a      	add	r2, r3
 8003f60:	68bb      	ldr	r3, [r7, #8]
 8003f62:	3304      	adds	r3, #4
 8003f64:	4610      	mov	r0, r2
 8003f66:	4619      	mov	r1, r3
 8003f68:	f7fe fda2 	bl	8002ab0 <vListInsertEnd>
					{
						/* Preemption is on, but a context switch should
						only be performed if the unblocked task has a
						priority that is equal to or higher than the
						currently executing task. */
						if( pxTCB->uxPriority >= pxCurrentTCB->uxPriority )
 8003f6c:	68bb      	ldr	r3, [r7, #8]
 8003f6e:	6ada      	ldr	r2, [r3, #44]	; 0x2c
 8003f70:	4b1b      	ldr	r3, [pc, #108]	; (8003fe0 <xTaskIncrementTick+0x168>)
 8003f72:	681b      	ldr	r3, [r3, #0]
 8003f74:	6adb      	ldr	r3, [r3, #44]	; 0x2c
 8003f76:	429a      	cmp	r2, r3
 8003f78:	d301      	bcc.n	8003f7e <xTaskIncrementTick+0x106>
						{
							xSwitchRequired = pdTRUE;
 8003f7a:	2301      	movs	r3, #1
 8003f7c:	617b      	str	r3, [r7, #20]
							mtCOVERAGE_TEST_MARKER();
						}
					}
					#endif /* configUSE_PREEMPTION */
				}
			}
 8003f7e:	e7b4      	b.n	8003eea <xTaskIncrementTick+0x72>
		/* Tasks of equal priority to the currently running task will share
		processing time (time slice) if preemption is on, and the application
		writer has not explicitly turned time slicing off. */
		#if ( ( configUSE_PREEMPTION == 1 ) && ( configUSE_TIME_SLICING == 1 ) )
		{
			if( listCURRENT_LIST_LENGTH( &( pxReadyTasksLists[ pxCurrentTCB->uxPriority ] ) ) > ( UBaseType_t ) 1 )
 8003f80:	4b17      	ldr	r3, [pc, #92]	; (8003fe0 <xTaskIncrementTick+0x168>)
 8003f82:	681b      	ldr	r3, [r3, #0]
 8003f84:	6ada      	ldr	r2, [r3, #44]	; 0x2c
 8003f86:	4915      	ldr	r1, [pc, #84]	; (8003fdc <xTaskIncrementTick+0x164>)
 8003f88:	4613      	mov	r3, r2
 8003f8a:	009b      	lsls	r3, r3, #2
 8003f8c:	4413      	add	r3, r2
 8003f8e:	009b      	lsls	r3, r3, #2
 8003f90:	440b      	add	r3, r1
 8003f92:	681b      	ldr	r3, [r3, #0]
 8003f94:	2b01      	cmp	r3, #1
 8003f96:	d901      	bls.n	8003f9c <xTaskIncrementTick+0x124>
			{
				xSwitchRequired = pdTRUE;
 8003f98:	2301      	movs	r3, #1
 8003f9a:	617b      	str	r3, [r7, #20]
 8003f9c:	e004      	b.n	8003fa8 <xTaskIncrementTick+0x130>
		}
		#endif /* configUSE_TICK_HOOK */
	}
	else
	{
		++uxPendedTicks;
 8003f9e:	4b11      	ldr	r3, [pc, #68]	; (8003fe4 <xTaskIncrementTick+0x16c>)
 8003fa0:	681b      	ldr	r3, [r3, #0]
 8003fa2:	3301      	adds	r3, #1
 8003fa4:	4a0f      	ldr	r2, [pc, #60]	; (8003fe4 <xTaskIncrementTick+0x16c>)
 8003fa6:	6013      	str	r3, [r2, #0]
		#endif
	}

	#if ( configUSE_PREEMPTION == 1 )
	{
		if( xYieldPending != pdFALSE )
 8003fa8:	4b0f      	ldr	r3, [pc, #60]	; (8003fe8 <xTaskIncrementTick+0x170>)
 8003faa:	681b      	ldr	r3, [r3, #0]
 8003fac:	2b00      	cmp	r3, #0
 8003fae:	d001      	beq.n	8003fb4 <xTaskIncrementTick+0x13c>
		{
			xSwitchRequired = pdTRUE;
 8003fb0:	2301      	movs	r3, #1
 8003fb2:	617b      	str	r3, [r7, #20]
			mtCOVERAGE_TEST_MARKER();
		}
	}
	#endif /* configUSE_PREEMPTION */

	return xSwitchRequired;
 8003fb4:	697b      	ldr	r3, [r7, #20]
}
 8003fb6:	4618      	mov	r0, r3
 8003fb8:	3718      	adds	r7, #24
 8003fba:	46bd      	mov	sp, r7
 8003fbc:	bd80      	pop	{r7, pc}
 8003fbe:	bf00      	nop
 8003fc0:	1ffe89d8 	.word	0x1ffe89d8
 8003fc4:	1ffe89b4 	.word	0x1ffe89b4
 8003fc8:	1ffe8968 	.word	0x1ffe8968
 8003fcc:	1ffe896c 	.word	0x1ffe896c
 8003fd0:	1ffe89c8 	.word	0x1ffe89c8
 8003fd4:	1ffe89d0 	.word	0x1ffe89d0
 8003fd8:	1ffe89b8 	.word	0x1ffe89b8
 8003fdc:	1ffe88dc 	.word	0x1ffe88dc
 8003fe0:	1ffe88d8 	.word	0x1ffe88d8
 8003fe4:	1ffe89c0 	.word	0x1ffe89c0
 8003fe8:	1ffe89c4 	.word	0x1ffe89c4

08003fec <vTaskSwitchContext>:

#endif /* configUSE_APPLICATION_TASK_TAG */
/*-----------------------------------------------------------*/

void vTaskSwitchContext( void )
{
 8003fec:	b480      	push	{r7}
 8003fee:	b087      	sub	sp, #28
 8003ff0:	af00      	add	r7, sp, #0
	if( uxSchedulerSuspended != ( UBaseType_t ) pdFALSE )
 8003ff2:	4b26      	ldr	r3, [pc, #152]	; (800408c <vTaskSwitchContext+0xa0>)
 8003ff4:	681b      	ldr	r3, [r3, #0]
 8003ff6:	2b00      	cmp	r3, #0
 8003ff8:	d003      	beq.n	8004002 <vTaskSwitchContext+0x16>
	{
		/* The scheduler is currently suspended - do not allow a context
		switch. */
		xYieldPending = pdTRUE;
 8003ffa:	4b25      	ldr	r3, [pc, #148]	; (8004090 <vTaskSwitchContext+0xa4>)
 8003ffc:	2201      	movs	r2, #1
 8003ffe:	601a      	str	r2, [r3, #0]
 8004000:	e03e      	b.n	8004080 <vTaskSwitchContext+0x94>
	}
	else
	{
		xYieldPending = pdFALSE;
 8004002:	4b23      	ldr	r3, [pc, #140]	; (8004090 <vTaskSwitchContext+0xa4>)
 8004004:	2200      	movs	r2, #0
 8004006:	601a      	str	r2, [r3, #0]
		}
		#endif

		/* Select a new task to run using either the generic C or port
		optimised asm code. */
		taskSELECT_HIGHEST_PRIORITY_TASK(); /*lint !e9079 void * is used as this macro is used with timers and co-routines too.  Alignment is known to be fine as the type of the pointer stored and retrieved is the same. */
 8004008:	4b22      	ldr	r3, [pc, #136]	; (8004094 <vTaskSwitchContext+0xa8>)
 800400a:	681b      	ldr	r3, [r3, #0]
 800400c:	60fb      	str	r3, [r7, #12]
	/* Generic helper function. */
	__attribute__( ( always_inline ) ) static inline uint8_t ucPortCountLeadingZeros( uint32_t ulBitmap )
	{
	uint8_t ucReturn;

		__asm volatile ( "clz %0, %1" : "=r" ( ucReturn ) : "r" ( ulBitmap ) : "memory" );
 800400e:	68fb      	ldr	r3, [r7, #12]
 8004010:	fab3 f383 	clz	r3, r3
 8004014:	72fb      	strb	r3, [r7, #11]
		return ucReturn;
 8004016:	7afb      	ldrb	r3, [r7, #11]
 8004018:	f1c3 031f 	rsb	r3, r3, #31
 800401c:	617b      	str	r3, [r7, #20]
 800401e:	491e      	ldr	r1, [pc, #120]	; (8004098 <vTaskSwitchContext+0xac>)
 8004020:	697a      	ldr	r2, [r7, #20]
 8004022:	4613      	mov	r3, r2
 8004024:	009b      	lsls	r3, r3, #2
 8004026:	4413      	add	r3, r2
 8004028:	009b      	lsls	r3, r3, #2
 800402a:	440b      	add	r3, r1
 800402c:	681b      	ldr	r3, [r3, #0]
 800402e:	2b00      	cmp	r3, #0
 8004030:	d109      	bne.n	8004046 <vTaskSwitchContext+0x5a>

portFORCE_INLINE static void vPortRaiseBASEPRI( void )
{
uint32_t ulNewBASEPRI;

	__asm volatile
 8004032:	f04f 03fc 	mov.w	r3, #252	; 0xfc
 8004036:	f383 8811 	msr	BASEPRI, r3
 800403a:	f3bf 8f6f 	isb	sy
 800403e:	f3bf 8f4f 	dsb	sy
 8004042:	607b      	str	r3, [r7, #4]
 8004044:	e7fe      	b.n	8004044 <vTaskSwitchContext+0x58>
 8004046:	697a      	ldr	r2, [r7, #20]
 8004048:	4613      	mov	r3, r2
 800404a:	009b      	lsls	r3, r3, #2
 800404c:	4413      	add	r3, r2
 800404e:	009b      	lsls	r3, r3, #2
 8004050:	4a11      	ldr	r2, [pc, #68]	; (8004098 <vTaskSwitchContext+0xac>)
 8004052:	4413      	add	r3, r2
 8004054:	613b      	str	r3, [r7, #16]
 8004056:	693b      	ldr	r3, [r7, #16]
 8004058:	685b      	ldr	r3, [r3, #4]
 800405a:	685a      	ldr	r2, [r3, #4]
 800405c:	693b      	ldr	r3, [r7, #16]
 800405e:	605a      	str	r2, [r3, #4]
 8004060:	693b      	ldr	r3, [r7, #16]
 8004062:	685a      	ldr	r2, [r3, #4]
 8004064:	693b      	ldr	r3, [r7, #16]
 8004066:	3308      	adds	r3, #8
 8004068:	429a      	cmp	r2, r3
 800406a:	d104      	bne.n	8004076 <vTaskSwitchContext+0x8a>
 800406c:	693b      	ldr	r3, [r7, #16]
 800406e:	685b      	ldr	r3, [r3, #4]
 8004070:	685a      	ldr	r2, [r3, #4]
 8004072:	693b      	ldr	r3, [r7, #16]
 8004074:	605a      	str	r2, [r3, #4]
 8004076:	693b      	ldr	r3, [r7, #16]
 8004078:	685b      	ldr	r3, [r3, #4]
 800407a:	68db      	ldr	r3, [r3, #12]
 800407c:	4a07      	ldr	r2, [pc, #28]	; (800409c <vTaskSwitchContext+0xb0>)
 800407e:	6013      	str	r3, [r2, #0]
			structure specific to this task. */
			_impure_ptr = &( pxCurrentTCB->xNewLib_reent );
		}
		#endif /* configUSE_NEWLIB_REENTRANT */
	}
}
 8004080:	371c      	adds	r7, #28
 8004082:	46bd      	mov	sp, r7
 8004084:	f85d 7b04 	ldr.w	r7, [sp], #4
 8004088:	4770      	bx	lr
 800408a:	bf00      	nop
 800408c:	1ffe89d8 	.word	0x1ffe89d8
 8004090:	1ffe89c4 	.word	0x1ffe89c4
 8004094:	1ffe89b8 	.word	0x1ffe89b8
 8004098:	1ffe88dc 	.word	0x1ffe88dc
 800409c:	1ffe88d8 	.word	0x1ffe88d8

080040a0 <vTaskPlaceOnEventList>:
/*-----------------------------------------------------------*/

void vTaskPlaceOnEventList( List_t * const pxEventList, const TickType_t xTicksToWait )
{
 80040a0:	b580      	push	{r7, lr}
 80040a2:	b084      	sub	sp, #16
 80040a4:	af00      	add	r7, sp, #0
 80040a6:	6078      	str	r0, [r7, #4]
 80040a8:	6039      	str	r1, [r7, #0]
	configASSERT( pxEventList );
 80040aa:	687b      	ldr	r3, [r7, #4]
 80040ac:	2b00      	cmp	r3, #0
 80040ae:	d109      	bne.n	80040c4 <vTaskPlaceOnEventList+0x24>
 80040b0:	f04f 03fc 	mov.w	r3, #252	; 0xfc
 80040b4:	f383 8811 	msr	BASEPRI, r3
 80040b8:	f3bf 8f6f 	isb	sy
 80040bc:	f3bf 8f4f 	dsb	sy
 80040c0:	60fb      	str	r3, [r7, #12]
 80040c2:	e7fe      	b.n	80040c2 <vTaskPlaceOnEventList+0x22>

	/* Place the event list item of the TCB in the appropriate event list.
	This is placed in the list in priority order so the highest priority task
	is the first to be woken by the event.  The queue that contains the event
	list is locked, preventing simultaneous access from interrupts. */
	vListInsert( pxEventList, &( pxCurrentTCB->xEventListItem ) );
 80040c4:	4b06      	ldr	r3, [pc, #24]	; (80040e0 <vTaskPlaceOnEventList+0x40>)
 80040c6:	681b      	ldr	r3, [r3, #0]
 80040c8:	3318      	adds	r3, #24
 80040ca:	6878      	ldr	r0, [r7, #4]
 80040cc:	4619      	mov	r1, r3
 80040ce:	f7fe fd13 	bl	8002af8 <vListInsert>

	prvAddCurrentTaskToDelayedList( xTicksToWait, pdTRUE );
 80040d2:	6838      	ldr	r0, [r7, #0]
 80040d4:	2101      	movs	r1, #1
 80040d6:	f000 fbab 	bl	8004830 <prvAddCurrentTaskToDelayedList>
}
 80040da:	3710      	adds	r7, #16
 80040dc:	46bd      	mov	sp, r7
 80040de:	bd80      	pop	{r7, pc}
 80040e0:	1ffe88d8 	.word	0x1ffe88d8

080040e4 <vTaskPlaceOnEventListRestricted>:
/*-----------------------------------------------------------*/

#if( configUSE_TIMERS == 1 )

	void vTaskPlaceOnEventListRestricted( List_t * const pxEventList, TickType_t xTicksToWait, const BaseType_t xWaitIndefinitely )
	{
 80040e4:	b580      	push	{r7, lr}
 80040e6:	b086      	sub	sp, #24
 80040e8:	af00      	add	r7, sp, #0
 80040ea:	60f8      	str	r0, [r7, #12]
 80040ec:	60b9      	str	r1, [r7, #8]
 80040ee:	607a      	str	r2, [r7, #4]
		configASSERT( pxEventList );
 80040f0:	68fb      	ldr	r3, [r7, #12]
 80040f2:	2b00      	cmp	r3, #0
 80040f4:	d109      	bne.n	800410a <vTaskPlaceOnEventListRestricted+0x26>
 80040f6:	f04f 03fc 	mov.w	r3, #252	; 0xfc
 80040fa:	f383 8811 	msr	BASEPRI, r3
 80040fe:	f3bf 8f6f 	isb	sy
 8004102:	f3bf 8f4f 	dsb	sy
 8004106:	617b      	str	r3, [r7, #20]
 8004108:	e7fe      	b.n	8004108 <vTaskPlaceOnEventListRestricted+0x24>

		/* Place the event list item of the TCB in the appropriate event list.
		In this case it is assume that this is the only task that is going to
		be waiting on this event list, so the faster vListInsertEnd() function
		can be used in place of vListInsert. */
		vListInsertEnd( pxEventList, &( pxCurrentTCB->xEventListItem ) );
 800410a:	4b0a      	ldr	r3, [pc, #40]	; (8004134 <vTaskPlaceOnEventListRestricted+0x50>)
 800410c:	681b      	ldr	r3, [r3, #0]
 800410e:	3318      	adds	r3, #24
 8004110:	68f8      	ldr	r0, [r7, #12]
 8004112:	4619      	mov	r1, r3
 8004114:	f7fe fccc 	bl	8002ab0 <vListInsertEnd>

		/* If the task should block indefinitely then set the block time to a
		value that will be recognised as an indefinite delay inside the
		prvAddCurrentTaskToDelayedList() function. */
		if( xWaitIndefinitely != pdFALSE )
 8004118:	687b      	ldr	r3, [r7, #4]
 800411a:	2b00      	cmp	r3, #0
 800411c:	d002      	beq.n	8004124 <vTaskPlaceOnEventListRestricted+0x40>
		{
			xTicksToWait = portMAX_DELAY;
 800411e:	f04f 33ff 	mov.w	r3, #4294967295
 8004122:	60bb      	str	r3, [r7, #8]
		}

		traceTASK_DELAY_UNTIL( ( xTickCount + xTicksToWait ) );
		prvAddCurrentTaskToDelayedList( xTicksToWait, xWaitIndefinitely );
 8004124:	68b8      	ldr	r0, [r7, #8]
 8004126:	6879      	ldr	r1, [r7, #4]
 8004128:	f000 fb82 	bl	8004830 <prvAddCurrentTaskToDelayedList>
	}
 800412c:	3718      	adds	r7, #24
 800412e:	46bd      	mov	sp, r7
 8004130:	bd80      	pop	{r7, pc}
 8004132:	bf00      	nop
 8004134:	1ffe88d8 	.word	0x1ffe88d8

08004138 <xTaskRemoveFromEventList>:

#endif /* configUSE_TIMERS */
/*-----------------------------------------------------------*/

BaseType_t xTaskRemoveFromEventList( const List_t * const pxEventList )
{
 8004138:	b580      	push	{r7, lr}
 800413a:	b086      	sub	sp, #24
 800413c:	af00      	add	r7, sp, #0
 800413e:	6078      	str	r0, [r7, #4]
	get called - the lock count on the queue will get modified instead.  This
	means exclusive access to the event list is guaranteed here.

	This function assumes that a check has already been made to ensure that
	pxEventList is not empty. */
	pxUnblockedTCB = listGET_OWNER_OF_HEAD_ENTRY( pxEventList ); /*lint !e9079 void * is used as this macro is used with timers and co-routines too.  Alignment is known to be fine as the type of the pointer stored and retrieved is the same. */
 8004140:	687b      	ldr	r3, [r7, #4]
 8004142:	68db      	ldr	r3, [r3, #12]
 8004144:	68db      	ldr	r3, [r3, #12]
 8004146:	613b      	str	r3, [r7, #16]
	configASSERT( pxUnblockedTCB );
 8004148:	693b      	ldr	r3, [r7, #16]
 800414a:	2b00      	cmp	r3, #0
 800414c:	d109      	bne.n	8004162 <xTaskRemoveFromEventList+0x2a>
 800414e:	f04f 03fc 	mov.w	r3, #252	; 0xfc
 8004152:	f383 8811 	msr	BASEPRI, r3
 8004156:	f3bf 8f6f 	isb	sy
 800415a:	f3bf 8f4f 	dsb	sy
 800415e:	60fb      	str	r3, [r7, #12]
 8004160:	e7fe      	b.n	8004160 <xTaskRemoveFromEventList+0x28>
	( void ) uxListRemove( &( pxUnblockedTCB->xEventListItem ) );
 8004162:	693b      	ldr	r3, [r7, #16]
 8004164:	3318      	adds	r3, #24
 8004166:	4618      	mov	r0, r3
 8004168:	f7fe fcfe 	bl	8002b68 <uxListRemove>

	if( uxSchedulerSuspended == ( UBaseType_t ) pdFALSE )
 800416c:	4b1e      	ldr	r3, [pc, #120]	; (80041e8 <xTaskRemoveFromEventList+0xb0>)
 800416e:	681b      	ldr	r3, [r3, #0]
 8004170:	2b00      	cmp	r3, #0
 8004172:	d11e      	bne.n	80041b2 <xTaskRemoveFromEventList+0x7a>
	{
		( void ) uxListRemove( &( pxUnblockedTCB->xStateListItem ) );
 8004174:	693b      	ldr	r3, [r7, #16]
 8004176:	3304      	adds	r3, #4
 8004178:	4618      	mov	r0, r3
 800417a:	f7fe fcf5 	bl	8002b68 <uxListRemove>
		prvAddTaskToReadyList( pxUnblockedTCB );
 800417e:	693b      	ldr	r3, [r7, #16]
 8004180:	6adb      	ldr	r3, [r3, #44]	; 0x2c
 8004182:	461a      	mov	r2, r3
 8004184:	2301      	movs	r3, #1
 8004186:	fa03 f202 	lsl.w	r2, r3, r2
 800418a:	4b18      	ldr	r3, [pc, #96]	; (80041ec <xTaskRemoveFromEventList+0xb4>)
 800418c:	681b      	ldr	r3, [r3, #0]
 800418e:	4313      	orrs	r3, r2
 8004190:	4a16      	ldr	r2, [pc, #88]	; (80041ec <xTaskRemoveFromEventList+0xb4>)
 8004192:	6013      	str	r3, [r2, #0]
 8004194:	693b      	ldr	r3, [r7, #16]
 8004196:	6ada      	ldr	r2, [r3, #44]	; 0x2c
 8004198:	4613      	mov	r3, r2
 800419a:	009b      	lsls	r3, r3, #2
 800419c:	4413      	add	r3, r2
 800419e:	009b      	lsls	r3, r3, #2
 80041a0:	4a13      	ldr	r2, [pc, #76]	; (80041f0 <xTaskRemoveFromEventList+0xb8>)
 80041a2:	441a      	add	r2, r3
 80041a4:	693b      	ldr	r3, [r7, #16]
 80041a6:	3304      	adds	r3, #4
 80041a8:	4610      	mov	r0, r2
 80041aa:	4619      	mov	r1, r3
 80041ac:	f7fe fc80 	bl	8002ab0 <vListInsertEnd>
 80041b0:	e005      	b.n	80041be <xTaskRemoveFromEventList+0x86>
	}
	else
	{
		/* The delayed and ready lists cannot be accessed, so hold this task
		pending until the scheduler is resumed. */
		vListInsertEnd( &( xPendingReadyList ), &( pxUnblockedTCB->xEventListItem ) );
 80041b2:	693b      	ldr	r3, [r7, #16]
 80041b4:	3318      	adds	r3, #24
 80041b6:	480f      	ldr	r0, [pc, #60]	; (80041f4 <xTaskRemoveFromEventList+0xbc>)
 80041b8:	4619      	mov	r1, r3
 80041ba:	f7fe fc79 	bl	8002ab0 <vListInsertEnd>
	}

	if( pxUnblockedTCB->uxPriority > pxCurrentTCB->uxPriority )
 80041be:	693b      	ldr	r3, [r7, #16]
 80041c0:	6ada      	ldr	r2, [r3, #44]	; 0x2c
 80041c2:	4b0d      	ldr	r3, [pc, #52]	; (80041f8 <xTaskRemoveFromEventList+0xc0>)
 80041c4:	681b      	ldr	r3, [r3, #0]
 80041c6:	6adb      	ldr	r3, [r3, #44]	; 0x2c
 80041c8:	429a      	cmp	r2, r3
 80041ca:	d905      	bls.n	80041d8 <xTaskRemoveFromEventList+0xa0>
	{
		/* Return true if the task removed from the event list has a higher
		priority than the calling task.  This allows the calling task to know if
		it should force a context switch now. */
		xReturn = pdTRUE;
 80041cc:	2301      	movs	r3, #1
 80041ce:	617b      	str	r3, [r7, #20]

		/* Mark that a yield is pending in case the user is not using the
		"xHigherPriorityTaskWoken" parameter to an ISR safe FreeRTOS function. */
		xYieldPending = pdTRUE;
 80041d0:	4b0a      	ldr	r3, [pc, #40]	; (80041fc <xTaskRemoveFromEventList+0xc4>)
 80041d2:	2201      	movs	r2, #1
 80041d4:	601a      	str	r2, [r3, #0]
 80041d6:	e001      	b.n	80041dc <xTaskRemoveFromEventList+0xa4>
	}
	else
	{
		xReturn = pdFALSE;
 80041d8:	2300      	movs	r3, #0
 80041da:	617b      	str	r3, [r7, #20]
	}

	return xReturn;
 80041dc:	697b      	ldr	r3, [r7, #20]
}
 80041de:	4618      	mov	r0, r3
 80041e0:	3718      	adds	r7, #24
 80041e2:	46bd      	mov	sp, r7
 80041e4:	bd80      	pop	{r7, pc}
 80041e6:	bf00      	nop
 80041e8:	1ffe89d8 	.word	0x1ffe89d8
 80041ec:	1ffe89b8 	.word	0x1ffe89b8
 80041f0:	1ffe88dc 	.word	0x1ffe88dc
 80041f4:	1ffe8970 	.word	0x1ffe8970
 80041f8:	1ffe88d8 	.word	0x1ffe88d8
 80041fc:	1ffe89c4 	.word	0x1ffe89c4

08004200 <vTaskInternalSetTimeOutState>:
	taskEXIT_CRITICAL();
}
/*-----------------------------------------------------------*/

void vTaskInternalSetTimeOutState( TimeOut_t * const pxTimeOut )
{
 8004200:	b480      	push	{r7}
 8004202:	b083      	sub	sp, #12
 8004204:	af00      	add	r7, sp, #0
 8004206:	6078      	str	r0, [r7, #4]
	/* For internal use only as it does not use a critical section. */
	pxTimeOut->xOverflowCount = xNumOfOverflows;
 8004208:	4b06      	ldr	r3, [pc, #24]	; (8004224 <vTaskInternalSetTimeOutState+0x24>)
 800420a:	681a      	ldr	r2, [r3, #0]
 800420c:	687b      	ldr	r3, [r7, #4]
 800420e:	601a      	str	r2, [r3, #0]
	pxTimeOut->xTimeOnEntering = xTickCount;
 8004210:	4b05      	ldr	r3, [pc, #20]	; (8004228 <vTaskInternalSetTimeOutState+0x28>)
 8004212:	681a      	ldr	r2, [r3, #0]
 8004214:	687b      	ldr	r3, [r7, #4]
 8004216:	605a      	str	r2, [r3, #4]
}
 8004218:	370c      	adds	r7, #12
 800421a:	46bd      	mov	sp, r7
 800421c:	f85d 7b04 	ldr.w	r7, [sp], #4
 8004220:	4770      	bx	lr
 8004222:	bf00      	nop
 8004224:	1ffe89c8 	.word	0x1ffe89c8
 8004228:	1ffe89b4 	.word	0x1ffe89b4

0800422c <xTaskCheckForTimeOut>:
/*-----------------------------------------------------------*/

BaseType_t xTaskCheckForTimeOut( TimeOut_t * const pxTimeOut, TickType_t * const pxTicksToWait )
{
 800422c:	b580      	push	{r7, lr}
 800422e:	b088      	sub	sp, #32
 8004230:	af00      	add	r7, sp, #0
 8004232:	6078      	str	r0, [r7, #4]
 8004234:	6039      	str	r1, [r7, #0]
BaseType_t xReturn;

	configASSERT( pxTimeOut );
 8004236:	687b      	ldr	r3, [r7, #4]
 8004238:	2b00      	cmp	r3, #0
 800423a:	d109      	bne.n	8004250 <xTaskCheckForTimeOut+0x24>
 800423c:	f04f 03fc 	mov.w	r3, #252	; 0xfc
 8004240:	f383 8811 	msr	BASEPRI, r3
 8004244:	f3bf 8f6f 	isb	sy
 8004248:	f3bf 8f4f 	dsb	sy
 800424c:	613b      	str	r3, [r7, #16]
 800424e:	e7fe      	b.n	800424e <xTaskCheckForTimeOut+0x22>
	configASSERT( pxTicksToWait );
 8004250:	683b      	ldr	r3, [r7, #0]
 8004252:	2b00      	cmp	r3, #0
 8004254:	d109      	bne.n	800426a <xTaskCheckForTimeOut+0x3e>
 8004256:	f04f 03fc 	mov.w	r3, #252	; 0xfc
 800425a:	f383 8811 	msr	BASEPRI, r3
 800425e:	f3bf 8f6f 	isb	sy
 8004262:	f3bf 8f4f 	dsb	sy
 8004266:	60fb      	str	r3, [r7, #12]
 8004268:	e7fe      	b.n	8004268 <xTaskCheckForTimeOut+0x3c>

	taskENTER_CRITICAL();
 800426a:	f7fe fabb 	bl	80027e4 <vPortEnterCritical>
	{
		/* Minor optimisation.  The tick count cannot change in this block. */
		const TickType_t xConstTickCount = xTickCount;
 800426e:	4b24      	ldr	r3, [pc, #144]	; (8004300 <xTaskCheckForTimeOut+0xd4>)
 8004270:	681b      	ldr	r3, [r3, #0]
 8004272:	61bb      	str	r3, [r7, #24]
		const TickType_t xElapsedTime = xConstTickCount - pxTimeOut->xTimeOnEntering;
 8004274:	687b      	ldr	r3, [r7, #4]
 8004276:	685b      	ldr	r3, [r3, #4]
 8004278:	69ba      	ldr	r2, [r7, #24]
 800427a:	1ad3      	subs	r3, r2, r3
 800427c:	617b      	str	r3, [r7, #20]

		#if( INCLUDE_xTaskAbortDelay == 1 )
			if( pxCurrentTCB->ucDelayAborted != ( uint8_t ) pdFALSE )
 800427e:	4b21      	ldr	r3, [pc, #132]	; (8004304 <xTaskCheckForTimeOut+0xd8>)
 8004280:	681b      	ldr	r3, [r3, #0]
 8004282:	f893 306d 	ldrb.w	r3, [r3, #109]	; 0x6d
 8004286:	2b00      	cmp	r3, #0
 8004288:	d007      	beq.n	800429a <xTaskCheckForTimeOut+0x6e>
			{
				/* The delay was aborted, which is not the same as a time out,
				but has the same result. */
				pxCurrentTCB->ucDelayAborted = pdFALSE;
 800428a:	4b1e      	ldr	r3, [pc, #120]	; (8004304 <xTaskCheckForTimeOut+0xd8>)
 800428c:	681b      	ldr	r3, [r3, #0]
 800428e:	2200      	movs	r2, #0
 8004290:	f883 206d 	strb.w	r2, [r3, #109]	; 0x6d
				xReturn = pdTRUE;
 8004294:	2301      	movs	r3, #1
 8004296:	61fb      	str	r3, [r7, #28]
 8004298:	e02b      	b.n	80042f2 <xTaskCheckForTimeOut+0xc6>
			}
			else
		#endif

		#if ( INCLUDE_vTaskSuspend == 1 )
			if( *pxTicksToWait == portMAX_DELAY )
 800429a:	683b      	ldr	r3, [r7, #0]
 800429c:	681b      	ldr	r3, [r3, #0]
 800429e:	f1b3 3fff 	cmp.w	r3, #4294967295
 80042a2:	d102      	bne.n	80042aa <xTaskCheckForTimeOut+0x7e>
			{
				/* If INCLUDE_vTaskSuspend is set to 1 and the block time
				specified is the maximum block time then the task should block
				indefinitely, and therefore never time out. */
				xReturn = pdFALSE;
 80042a4:	2300      	movs	r3, #0
 80042a6:	61fb      	str	r3, [r7, #28]
 80042a8:	e023      	b.n	80042f2 <xTaskCheckForTimeOut+0xc6>
			}
			else
		#endif

		if( ( xNumOfOverflows != pxTimeOut->xOverflowCount ) && ( xConstTickCount >= pxTimeOut->xTimeOnEntering ) ) /*lint !e525 Indentation preferred as is to make code within pre-processor directives clearer. */
 80042aa:	687b      	ldr	r3, [r7, #4]
 80042ac:	681a      	ldr	r2, [r3, #0]
 80042ae:	4b16      	ldr	r3, [pc, #88]	; (8004308 <xTaskCheckForTimeOut+0xdc>)
 80042b0:	681b      	ldr	r3, [r3, #0]
 80042b2:	429a      	cmp	r2, r3
 80042b4:	d007      	beq.n	80042c6 <xTaskCheckForTimeOut+0x9a>
 80042b6:	687b      	ldr	r3, [r7, #4]
 80042b8:	685a      	ldr	r2, [r3, #4]
 80042ba:	69bb      	ldr	r3, [r7, #24]
 80042bc:	429a      	cmp	r2, r3
 80042be:	d802      	bhi.n	80042c6 <xTaskCheckForTimeOut+0x9a>
			/* The tick count is greater than the time at which
			vTaskSetTimeout() was called, but has also overflowed since
			vTaskSetTimeOut() was called.  It must have wrapped all the way
			around and gone past again. This passed since vTaskSetTimeout()
			was called. */
			xReturn = pdTRUE;
 80042c0:	2301      	movs	r3, #1
 80042c2:	61fb      	str	r3, [r7, #28]
 80042c4:	e015      	b.n	80042f2 <xTaskCheckForTimeOut+0xc6>
		}
		else if( xElapsedTime < *pxTicksToWait ) /*lint !e961 Explicit casting is only redundant with some compilers, whereas others require it to prevent integer conversion errors. */
 80042c6:	683b      	ldr	r3, [r7, #0]
 80042c8:	681a      	ldr	r2, [r3, #0]
 80042ca:	697b      	ldr	r3, [r7, #20]
 80042cc:	429a      	cmp	r2, r3
 80042ce:	d90b      	bls.n	80042e8 <xTaskCheckForTimeOut+0xbc>
		{
			/* Not a genuine timeout. Adjust parameters for time remaining. */
			*pxTicksToWait -= xElapsedTime;
 80042d0:	683b      	ldr	r3, [r7, #0]
 80042d2:	681a      	ldr	r2, [r3, #0]
 80042d4:	697b      	ldr	r3, [r7, #20]
 80042d6:	1ad2      	subs	r2, r2, r3
 80042d8:	683b      	ldr	r3, [r7, #0]
 80042da:	601a      	str	r2, [r3, #0]
			vTaskInternalSetTimeOutState( pxTimeOut );
 80042dc:	6878      	ldr	r0, [r7, #4]
 80042de:	f7ff ff8f 	bl	8004200 <vTaskInternalSetTimeOutState>
			xReturn = pdFALSE;
 80042e2:	2300      	movs	r3, #0
 80042e4:	61fb      	str	r3, [r7, #28]
 80042e6:	e004      	b.n	80042f2 <xTaskCheckForTimeOut+0xc6>
		}
		else
		{
			*pxTicksToWait = 0;
 80042e8:	683b      	ldr	r3, [r7, #0]
 80042ea:	2200      	movs	r2, #0
 80042ec:	601a      	str	r2, [r3, #0]
			xReturn = pdTRUE;
 80042ee:	2301      	movs	r3, #1
 80042f0:	61fb      	str	r3, [r7, #28]
		}
	}
	taskEXIT_CRITICAL();
 80042f2:	f7fe faa5 	bl	8002840 <vPortExitCritical>

	return xReturn;
 80042f6:	69fb      	ldr	r3, [r7, #28]
}
 80042f8:	4618      	mov	r0, r3
 80042fa:	3720      	adds	r7, #32
 80042fc:	46bd      	mov	sp, r7
 80042fe:	bd80      	pop	{r7, pc}
 8004300:	1ffe89b4 	.word	0x1ffe89b4
 8004304:	1ffe88d8 	.word	0x1ffe88d8
 8004308:	1ffe89c8 	.word	0x1ffe89c8

0800430c <vTaskMissedYield>:
/*-----------------------------------------------------------*/

void vTaskMissedYield( void )
{
 800430c:	b480      	push	{r7}
 800430e:	af00      	add	r7, sp, #0
	xYieldPending = pdTRUE;
 8004310:	4b03      	ldr	r3, [pc, #12]	; (8004320 <vTaskMissedYield+0x14>)
 8004312:	2201      	movs	r2, #1
 8004314:	601a      	str	r2, [r3, #0]
}
 8004316:	46bd      	mov	sp, r7
 8004318:	f85d 7b04 	ldr.w	r7, [sp], #4
 800431c:	4770      	bx	lr
 800431e:	bf00      	nop
 8004320:	1ffe89c4 	.word	0x1ffe89c4

08004324 <prvIdleTask>:
 *
 * void prvIdleTask( void *pvParameters );
 *
 */
static portTASK_FUNCTION( prvIdleTask, pvParameters )
{
 8004324:	b580      	push	{r7, lr}
 8004326:	b082      	sub	sp, #8
 8004328:	af00      	add	r7, sp, #0
 800432a:	6078      	str	r0, [r7, #4]

	for( ;; )
	{
		/* See if any tasks have deleted themselves - if so then the idle task
		is responsible for freeing the deleted task's TCB and stack. */
		prvCheckTasksWaitingTermination();
 800432c:	f000 f850 	bl	80043d0 <prvCheckTasksWaitingTermination>

			A critical region is not required here as we are just reading from
			the list, and an occasional incorrect value will not matter.  If
			the ready list at the idle priority contains more than one task
			then a task other than the idle task is ready to execute. */
			if( listCURRENT_LIST_LENGTH( &( pxReadyTasksLists[ tskIDLE_PRIORITY ] ) ) > ( UBaseType_t ) 1 )
 8004330:	4b06      	ldr	r3, [pc, #24]	; (800434c <prvIdleTask+0x28>)
 8004332:	681b      	ldr	r3, [r3, #0]
 8004334:	2b01      	cmp	r3, #1
 8004336:	d907      	bls.n	8004348 <prvIdleTask+0x24>
			{
				taskYIELD();
 8004338:	4b05      	ldr	r3, [pc, #20]	; (8004350 <prvIdleTask+0x2c>)
 800433a:	f04f 5280 	mov.w	r2, #268435456	; 0x10000000
 800433e:	601a      	str	r2, [r3, #0]
 8004340:	f3bf 8f4f 	dsb	sy
 8004344:	f3bf 8f6f 	isb	sy
			{
				mtCOVERAGE_TEST_MARKER();
			}
		}
		#endif /* configUSE_TICKLESS_IDLE */
	}
 8004348:	e7f0      	b.n	800432c <prvIdleTask+0x8>
 800434a:	bf00      	nop
 800434c:	1ffe88dc 	.word	0x1ffe88dc
 8004350:	e000ed04 	.word	0xe000ed04

08004354 <prvInitialiseTaskLists>:

#endif /* portUSING_MPU_WRAPPERS */
/*-----------------------------------------------------------*/

static void prvInitialiseTaskLists( void )
{
 8004354:	b580      	push	{r7, lr}
 8004356:	b082      	sub	sp, #8
 8004358:	af00      	add	r7, sp, #0
UBaseType_t uxPriority;

	for( uxPriority = ( UBaseType_t ) 0U; uxPriority < ( UBaseType_t ) configMAX_PRIORITIES; uxPriority++ )
 800435a:	2300      	movs	r3, #0
 800435c:	607b      	str	r3, [r7, #4]
 800435e:	e00c      	b.n	800437a <prvInitialiseTaskLists+0x26>
	{
		vListInitialise( &( pxReadyTasksLists[ uxPriority ] ) );
 8004360:	687a      	ldr	r2, [r7, #4]
 8004362:	4613      	mov	r3, r2
 8004364:	009b      	lsls	r3, r3, #2
 8004366:	4413      	add	r3, r2
 8004368:	009b      	lsls	r3, r3, #2
 800436a:	4a11      	ldr	r2, [pc, #68]	; (80043b0 <prvInitialiseTaskLists+0x5c>)
 800436c:	4413      	add	r3, r2
 800436e:	4618      	mov	r0, r3
 8004370:	f7fe fb72 	bl	8002a58 <vListInitialise>

static void prvInitialiseTaskLists( void )
{
UBaseType_t uxPriority;

	for( uxPriority = ( UBaseType_t ) 0U; uxPriority < ( UBaseType_t ) configMAX_PRIORITIES; uxPriority++ )
 8004374:	687b      	ldr	r3, [r7, #4]
 8004376:	3301      	adds	r3, #1
 8004378:	607b      	str	r3, [r7, #4]
 800437a:	687b      	ldr	r3, [r7, #4]
 800437c:	2b04      	cmp	r3, #4
 800437e:	d9ef      	bls.n	8004360 <prvInitialiseTaskLists+0xc>
	{
		vListInitialise( &( pxReadyTasksLists[ uxPriority ] ) );
	}

	vListInitialise( &xDelayedTaskList1 );
 8004380:	480c      	ldr	r0, [pc, #48]	; (80043b4 <prvInitialiseTaskLists+0x60>)
 8004382:	f7fe fb69 	bl	8002a58 <vListInitialise>
	vListInitialise( &xDelayedTaskList2 );
 8004386:	480c      	ldr	r0, [pc, #48]	; (80043b8 <prvInitialiseTaskLists+0x64>)
 8004388:	f7fe fb66 	bl	8002a58 <vListInitialise>
	vListInitialise( &xPendingReadyList );
 800438c:	480b      	ldr	r0, [pc, #44]	; (80043bc <prvInitialiseTaskLists+0x68>)
 800438e:	f7fe fb63 	bl	8002a58 <vListInitialise>

	#if ( INCLUDE_vTaskDelete == 1 )
	{
		vListInitialise( &xTasksWaitingTermination );
 8004392:	480b      	ldr	r0, [pc, #44]	; (80043c0 <prvInitialiseTaskLists+0x6c>)
 8004394:	f7fe fb60 	bl	8002a58 <vListInitialise>
	}
	#endif /* INCLUDE_vTaskDelete */

	#if ( INCLUDE_vTaskSuspend == 1 )
	{
		vListInitialise( &xSuspendedTaskList );
 8004398:	480a      	ldr	r0, [pc, #40]	; (80043c4 <prvInitialiseTaskLists+0x70>)
 800439a:	f7fe fb5d 	bl	8002a58 <vListInitialise>
	}
	#endif /* INCLUDE_vTaskSuspend */

	/* Start with pxDelayedTaskList using list1 and the pxOverflowDelayedTaskList
	using list2. */
	pxDelayedTaskList = &xDelayedTaskList1;
 800439e:	4b0a      	ldr	r3, [pc, #40]	; (80043c8 <prvInitialiseTaskLists+0x74>)
 80043a0:	4a04      	ldr	r2, [pc, #16]	; (80043b4 <prvInitialiseTaskLists+0x60>)
 80043a2:	601a      	str	r2, [r3, #0]
	pxOverflowDelayedTaskList = &xDelayedTaskList2;
 80043a4:	4b09      	ldr	r3, [pc, #36]	; (80043cc <prvInitialiseTaskLists+0x78>)
 80043a6:	4a04      	ldr	r2, [pc, #16]	; (80043b8 <prvInitialiseTaskLists+0x64>)
 80043a8:	601a      	str	r2, [r3, #0]
}
 80043aa:	3708      	adds	r7, #8
 80043ac:	46bd      	mov	sp, r7
 80043ae:	bd80      	pop	{r7, pc}
 80043b0:	1ffe88dc 	.word	0x1ffe88dc
 80043b4:	1ffe8940 	.word	0x1ffe8940
 80043b8:	1ffe8954 	.word	0x1ffe8954
 80043bc:	1ffe8970 	.word	0x1ffe8970
 80043c0:	1ffe8984 	.word	0x1ffe8984
 80043c4:	1ffe899c 	.word	0x1ffe899c
 80043c8:	1ffe8968 	.word	0x1ffe8968
 80043cc:	1ffe896c 	.word	0x1ffe896c

080043d0 <prvCheckTasksWaitingTermination>:
/*-----------------------------------------------------------*/

static void prvCheckTasksWaitingTermination( void )
{
 80043d0:	b580      	push	{r7, lr}
 80043d2:	b082      	sub	sp, #8
 80043d4:	af00      	add	r7, sp, #0
	{
		TCB_t *pxTCB;

		/* uxDeletedTasksWaitingCleanUp is used to prevent taskENTER_CRITICAL()
		being called too often in the idle task. */
		while( uxDeletedTasksWaitingCleanUp > ( UBaseType_t ) 0U )
 80043d6:	e019      	b.n	800440c <prvCheckTasksWaitingTermination+0x3c>
		{
			taskENTER_CRITICAL();
 80043d8:	f7fe fa04 	bl	80027e4 <vPortEnterCritical>
			{
				pxTCB = listGET_OWNER_OF_HEAD_ENTRY( ( &xTasksWaitingTermination ) ); /*lint !e9079 void * is used as this macro is used with timers and co-routines too.  Alignment is known to be fine as the type of the pointer stored and retrieved is the same. */
 80043dc:	4b0f      	ldr	r3, [pc, #60]	; (800441c <prvCheckTasksWaitingTermination+0x4c>)
 80043de:	68db      	ldr	r3, [r3, #12]
 80043e0:	68db      	ldr	r3, [r3, #12]
 80043e2:	607b      	str	r3, [r7, #4]
				( void ) uxListRemove( &( pxTCB->xStateListItem ) );
 80043e4:	687b      	ldr	r3, [r7, #4]
 80043e6:	3304      	adds	r3, #4
 80043e8:	4618      	mov	r0, r3
 80043ea:	f7fe fbbd 	bl	8002b68 <uxListRemove>
				--uxCurrentNumberOfTasks;
 80043ee:	4b0c      	ldr	r3, [pc, #48]	; (8004420 <prvCheckTasksWaitingTermination+0x50>)
 80043f0:	681b      	ldr	r3, [r3, #0]
 80043f2:	3b01      	subs	r3, #1
 80043f4:	4a0a      	ldr	r2, [pc, #40]	; (8004420 <prvCheckTasksWaitingTermination+0x50>)
 80043f6:	6013      	str	r3, [r2, #0]
				--uxDeletedTasksWaitingCleanUp;
 80043f8:	4b0a      	ldr	r3, [pc, #40]	; (8004424 <prvCheckTasksWaitingTermination+0x54>)
 80043fa:	681b      	ldr	r3, [r3, #0]
 80043fc:	3b01      	subs	r3, #1
 80043fe:	4a09      	ldr	r2, [pc, #36]	; (8004424 <prvCheckTasksWaitingTermination+0x54>)
 8004400:	6013      	str	r3, [r2, #0]
			}
			taskEXIT_CRITICAL();
 8004402:	f7fe fa1d 	bl	8002840 <vPortExitCritical>

			prvDeleteTCB( pxTCB );
 8004406:	6878      	ldr	r0, [r7, #4]
 8004408:	f000 f80e 	bl	8004428 <prvDeleteTCB>
	{
		TCB_t *pxTCB;

		/* uxDeletedTasksWaitingCleanUp is used to prevent taskENTER_CRITICAL()
		being called too often in the idle task. */
		while( uxDeletedTasksWaitingCleanUp > ( UBaseType_t ) 0U )
 800440c:	4b05      	ldr	r3, [pc, #20]	; (8004424 <prvCheckTasksWaitingTermination+0x54>)
 800440e:	681b      	ldr	r3, [r3, #0]
 8004410:	2b00      	cmp	r3, #0
 8004412:	d1e1      	bne.n	80043d8 <prvCheckTasksWaitingTermination+0x8>

			prvDeleteTCB( pxTCB );
		}
	}
	#endif /* INCLUDE_vTaskDelete */
}
 8004414:	3708      	adds	r7, #8
 8004416:	46bd      	mov	sp, r7
 8004418:	bd80      	pop	{r7, pc}
 800441a:	bf00      	nop
 800441c:	1ffe8984 	.word	0x1ffe8984
 8004420:	1ffe89b0 	.word	0x1ffe89b0
 8004424:	1ffe8998 	.word	0x1ffe8998

08004428 <prvDeleteTCB>:
/*-----------------------------------------------------------*/

#if ( INCLUDE_vTaskDelete == 1 )

	static void prvDeleteTCB( TCB_t *pxTCB )
	{
 8004428:	b580      	push	{r7, lr}
 800442a:	b082      	sub	sp, #8
 800442c:	af00      	add	r7, sp, #0
 800442e:	6078      	str	r0, [r7, #4]

		#if( ( configSUPPORT_DYNAMIC_ALLOCATION == 1 ) && ( configSUPPORT_STATIC_ALLOCATION == 0 ) && ( portUSING_MPU_WRAPPERS == 0 ) )
		{
			/* The task can only have been allocated dynamically - free both
			the stack and TCB. */
			vPortFree( pxTCB->pxStack );
 8004430:	687b      	ldr	r3, [r7, #4]
 8004432:	6b1b      	ldr	r3, [r3, #48]	; 0x30
 8004434:	4618      	mov	r0, r3
 8004436:	f7fe fafd 	bl	8002a34 <vPortFree>
			vPortFree( pxTCB );
 800443a:	6878      	ldr	r0, [r7, #4]
 800443c:	f7fe fafa 	bl	8002a34 <vPortFree>
				configASSERT( pxTCB->ucStaticallyAllocated == tskSTATICALLY_ALLOCATED_STACK_AND_TCB	);
				mtCOVERAGE_TEST_MARKER();
			}
		}
		#endif /* configSUPPORT_DYNAMIC_ALLOCATION */
	}
 8004440:	3708      	adds	r7, #8
 8004442:	46bd      	mov	sp, r7
 8004444:	bd80      	pop	{r7, pc}
 8004446:	bf00      	nop

08004448 <prvResetNextTaskUnblockTime>:

#endif /* INCLUDE_vTaskDelete */
/*-----------------------------------------------------------*/

static void prvResetNextTaskUnblockTime( void )
{
 8004448:	b480      	push	{r7}
 800444a:	b083      	sub	sp, #12
 800444c:	af00      	add	r7, sp, #0
TCB_t *pxTCB;

	if( listLIST_IS_EMPTY( pxDelayedTaskList ) != pdFALSE )
 800444e:	4b0c      	ldr	r3, [pc, #48]	; (8004480 <prvResetNextTaskUnblockTime+0x38>)
 8004450:	681b      	ldr	r3, [r3, #0]
 8004452:	681b      	ldr	r3, [r3, #0]
 8004454:	2b00      	cmp	r3, #0
 8004456:	d104      	bne.n	8004462 <prvResetNextTaskUnblockTime+0x1a>
	{
		/* The new current delayed list is empty.  Set xNextTaskUnblockTime to
		the maximum possible value so it is	extremely unlikely that the
		if( xTickCount >= xNextTaskUnblockTime ) test will pass until
		there is an item in the delayed list. */
		xNextTaskUnblockTime = portMAX_DELAY;
 8004458:	4b0a      	ldr	r3, [pc, #40]	; (8004484 <prvResetNextTaskUnblockTime+0x3c>)
 800445a:	f04f 32ff 	mov.w	r2, #4294967295
 800445e:	601a      	str	r2, [r3, #0]
 8004460:	e008      	b.n	8004474 <prvResetNextTaskUnblockTime+0x2c>
	{
		/* The new current delayed list is not empty, get the value of
		the item at the head of the delayed list.  This is the time at
		which the task at the head of the delayed list should be removed
		from the Blocked state. */
		( pxTCB ) = listGET_OWNER_OF_HEAD_ENTRY( pxDelayedTaskList ); /*lint !e9079 void * is used as this macro is used with timers and co-routines too.  Alignment is known to be fine as the type of the pointer stored and retrieved is the same. */
 8004462:	4b07      	ldr	r3, [pc, #28]	; (8004480 <prvResetNextTaskUnblockTime+0x38>)
 8004464:	681b      	ldr	r3, [r3, #0]
 8004466:	68db      	ldr	r3, [r3, #12]
 8004468:	68db      	ldr	r3, [r3, #12]
 800446a:	607b      	str	r3, [r7, #4]
		xNextTaskUnblockTime = listGET_LIST_ITEM_VALUE( &( ( pxTCB )->xStateListItem ) );
 800446c:	687b      	ldr	r3, [r7, #4]
 800446e:	685b      	ldr	r3, [r3, #4]
 8004470:	4a04      	ldr	r2, [pc, #16]	; (8004484 <prvResetNextTaskUnblockTime+0x3c>)
 8004472:	6013      	str	r3, [r2, #0]
	}
}
 8004474:	370c      	adds	r7, #12
 8004476:	46bd      	mov	sp, r7
 8004478:	f85d 7b04 	ldr.w	r7, [sp], #4
 800447c:	4770      	bx	lr
 800447e:	bf00      	nop
 8004480:	1ffe8968 	.word	0x1ffe8968
 8004484:	1ffe89d0 	.word	0x1ffe89d0

08004488 <xTaskGetSchedulerState>:
/*-----------------------------------------------------------*/

#if ( ( INCLUDE_xTaskGetSchedulerState == 1 ) || ( configUSE_TIMERS == 1 ) )

	BaseType_t xTaskGetSchedulerState( void )
	{
 8004488:	b480      	push	{r7}
 800448a:	b083      	sub	sp, #12
 800448c:	af00      	add	r7, sp, #0
	BaseType_t xReturn;

		if( xSchedulerRunning == pdFALSE )
 800448e:	4b0b      	ldr	r3, [pc, #44]	; (80044bc <xTaskGetSchedulerState+0x34>)
 8004490:	681b      	ldr	r3, [r3, #0]
 8004492:	2b00      	cmp	r3, #0
 8004494:	d102      	bne.n	800449c <xTaskGetSchedulerState+0x14>
		{
			xReturn = taskSCHEDULER_NOT_STARTED;
 8004496:	2301      	movs	r3, #1
 8004498:	607b      	str	r3, [r7, #4]
 800449a:	e008      	b.n	80044ae <xTaskGetSchedulerState+0x26>
		}
		else
		{
			if( uxSchedulerSuspended == ( UBaseType_t ) pdFALSE )
 800449c:	4b08      	ldr	r3, [pc, #32]	; (80044c0 <xTaskGetSchedulerState+0x38>)
 800449e:	681b      	ldr	r3, [r3, #0]
 80044a0:	2b00      	cmp	r3, #0
 80044a2:	d102      	bne.n	80044aa <xTaskGetSchedulerState+0x22>
			{
				xReturn = taskSCHEDULER_RUNNING;
 80044a4:	2302      	movs	r3, #2
 80044a6:	607b      	str	r3, [r7, #4]
 80044a8:	e001      	b.n	80044ae <xTaskGetSchedulerState+0x26>
			}
			else
			{
				xReturn = taskSCHEDULER_SUSPENDED;
 80044aa:	2300      	movs	r3, #0
 80044ac:	607b      	str	r3, [r7, #4]
			}
		}

		return xReturn;
 80044ae:	687b      	ldr	r3, [r7, #4]
	}
 80044b0:	4618      	mov	r0, r3
 80044b2:	370c      	adds	r7, #12
 80044b4:	46bd      	mov	sp, r7
 80044b6:	f85d 7b04 	ldr.w	r7, [sp], #4
 80044ba:	4770      	bx	lr
 80044bc:	1ffe89bc 	.word	0x1ffe89bc
 80044c0:	1ffe89d8 	.word	0x1ffe89d8

080044c4 <xTaskPriorityInherit>:
/*-----------------------------------------------------------*/

#if ( configUSE_MUTEXES == 1 )

	BaseType_t xTaskPriorityInherit( TaskHandle_t const pxMutexHolder )
	{
 80044c4:	b580      	push	{r7, lr}
 80044c6:	b084      	sub	sp, #16
 80044c8:	af00      	add	r7, sp, #0
 80044ca:	6078      	str	r0, [r7, #4]
	TCB_t * const pxMutexHolderTCB = pxMutexHolder;
 80044cc:	687b      	ldr	r3, [r7, #4]
 80044ce:	60bb      	str	r3, [r7, #8]
	BaseType_t xReturn = pdFALSE;
 80044d0:	2300      	movs	r3, #0
 80044d2:	60fb      	str	r3, [r7, #12]

		/* If the mutex was given back by an interrupt while the queue was
		locked then the mutex holder might now be NULL.  _RB_ Is this still
		needed as interrupts can no longer use mutexes? */
		if( pxMutexHolder != NULL )
 80044d4:	687b      	ldr	r3, [r7, #4]
 80044d6:	2b00      	cmp	r3, #0
 80044d8:	d06b      	beq.n	80045b2 <xTaskPriorityInherit+0xee>
		{
			/* If the holder of the mutex has a priority below the priority of
			the task attempting to obtain the mutex then it will temporarily
			inherit the priority of the task attempting to obtain the mutex. */
			if( pxMutexHolderTCB->uxPriority < pxCurrentTCB->uxPriority )
 80044da:	68bb      	ldr	r3, [r7, #8]
 80044dc:	6ada      	ldr	r2, [r3, #44]	; 0x2c
 80044de:	4b37      	ldr	r3, [pc, #220]	; (80045bc <xTaskPriorityInherit+0xf8>)
 80044e0:	681b      	ldr	r3, [r3, #0]
 80044e2:	6adb      	ldr	r3, [r3, #44]	; 0x2c
 80044e4:	429a      	cmp	r2, r3
 80044e6:	d25b      	bcs.n	80045a0 <xTaskPriorityInherit+0xdc>
			{
				/* Adjust the mutex holder state to account for its new
				priority.  Only reset the event list item value if the value is
				not being used for anything else. */
				if( ( listGET_LIST_ITEM_VALUE( &( pxMutexHolderTCB->xEventListItem ) ) & taskEVENT_LIST_ITEM_VALUE_IN_USE ) == 0UL )
 80044e8:	68bb      	ldr	r3, [r7, #8]
 80044ea:	699b      	ldr	r3, [r3, #24]
 80044ec:	2b00      	cmp	r3, #0
 80044ee:	db06      	blt.n	80044fe <xTaskPriorityInherit+0x3a>
				{
					listSET_LIST_ITEM_VALUE( &( pxMutexHolderTCB->xEventListItem ), ( TickType_t ) configMAX_PRIORITIES - ( TickType_t ) pxCurrentTCB->uxPriority ); /*lint !e961 MISRA exception as the casts are only redundant for some ports. */
 80044f0:	4b32      	ldr	r3, [pc, #200]	; (80045bc <xTaskPriorityInherit+0xf8>)
 80044f2:	681b      	ldr	r3, [r3, #0]
 80044f4:	6adb      	ldr	r3, [r3, #44]	; 0x2c
 80044f6:	f1c3 0205 	rsb	r2, r3, #5
 80044fa:	68bb      	ldr	r3, [r7, #8]
 80044fc:	619a      	str	r2, [r3, #24]
					mtCOVERAGE_TEST_MARKER();
				}

				/* If the task being modified is in the ready state it will need
				to be moved into a new list. */
				if( listIS_CONTAINED_WITHIN( &( pxReadyTasksLists[ pxMutexHolderTCB->uxPriority ] ), &( pxMutexHolderTCB->xStateListItem ) ) != pdFALSE )
 80044fe:	68bb      	ldr	r3, [r7, #8]
 8004500:	6959      	ldr	r1, [r3, #20]
 8004502:	68bb      	ldr	r3, [r7, #8]
 8004504:	6ada      	ldr	r2, [r3, #44]	; 0x2c
 8004506:	4613      	mov	r3, r2
 8004508:	009b      	lsls	r3, r3, #2
 800450a:	4413      	add	r3, r2
 800450c:	009b      	lsls	r3, r3, #2
 800450e:	4a2c      	ldr	r2, [pc, #176]	; (80045c0 <xTaskPriorityInherit+0xfc>)
 8004510:	4413      	add	r3, r2
 8004512:	4299      	cmp	r1, r3
 8004514:	d13c      	bne.n	8004590 <xTaskPriorityInherit+0xcc>
				{
					if( uxListRemove( &( pxMutexHolderTCB->xStateListItem ) ) == ( UBaseType_t ) 0 )
 8004516:	68bb      	ldr	r3, [r7, #8]
 8004518:	3304      	adds	r3, #4
 800451a:	4618      	mov	r0, r3
 800451c:	f7fe fb24 	bl	8002b68 <uxListRemove>
 8004520:	4603      	mov	r3, r0
 8004522:	2b00      	cmp	r3, #0
 8004524:	d115      	bne.n	8004552 <xTaskPriorityInherit+0x8e>
					{
						taskRESET_READY_PRIORITY( pxMutexHolderTCB->uxPriority );
 8004526:	68bb      	ldr	r3, [r7, #8]
 8004528:	6ada      	ldr	r2, [r3, #44]	; 0x2c
 800452a:	4925      	ldr	r1, [pc, #148]	; (80045c0 <xTaskPriorityInherit+0xfc>)
 800452c:	4613      	mov	r3, r2
 800452e:	009b      	lsls	r3, r3, #2
 8004530:	4413      	add	r3, r2
 8004532:	009b      	lsls	r3, r3, #2
 8004534:	440b      	add	r3, r1
 8004536:	681b      	ldr	r3, [r3, #0]
 8004538:	2b00      	cmp	r3, #0
 800453a:	d10a      	bne.n	8004552 <xTaskPriorityInherit+0x8e>
 800453c:	68bb      	ldr	r3, [r7, #8]
 800453e:	6adb      	ldr	r3, [r3, #44]	; 0x2c
 8004540:	461a      	mov	r2, r3
 8004542:	2301      	movs	r3, #1
 8004544:	4093      	lsls	r3, r2
 8004546:	43da      	mvns	r2, r3
 8004548:	4b1e      	ldr	r3, [pc, #120]	; (80045c4 <xTaskPriorityInherit+0x100>)
 800454a:	681b      	ldr	r3, [r3, #0]
 800454c:	4013      	ands	r3, r2
 800454e:	4a1d      	ldr	r2, [pc, #116]	; (80045c4 <xTaskPriorityInherit+0x100>)
 8004550:	6013      	str	r3, [r2, #0]
					{
						mtCOVERAGE_TEST_MARKER();
					}

					/* Inherit the priority before being moved into the new list. */
					pxMutexHolderTCB->uxPriority = pxCurrentTCB->uxPriority;
 8004552:	4b1a      	ldr	r3, [pc, #104]	; (80045bc <xTaskPriorityInherit+0xf8>)
 8004554:	681b      	ldr	r3, [r3, #0]
 8004556:	6ada      	ldr	r2, [r3, #44]	; 0x2c
 8004558:	68bb      	ldr	r3, [r7, #8]
 800455a:	62da      	str	r2, [r3, #44]	; 0x2c
					prvAddTaskToReadyList( pxMutexHolderTCB );
 800455c:	68bb      	ldr	r3, [r7, #8]
 800455e:	6adb      	ldr	r3, [r3, #44]	; 0x2c
 8004560:	461a      	mov	r2, r3
 8004562:	2301      	movs	r3, #1
 8004564:	fa03 f202 	lsl.w	r2, r3, r2
 8004568:	4b16      	ldr	r3, [pc, #88]	; (80045c4 <xTaskPriorityInherit+0x100>)
 800456a:	681b      	ldr	r3, [r3, #0]
 800456c:	4313      	orrs	r3, r2
 800456e:	4a15      	ldr	r2, [pc, #84]	; (80045c4 <xTaskPriorityInherit+0x100>)
 8004570:	6013      	str	r3, [r2, #0]
 8004572:	68bb      	ldr	r3, [r7, #8]
 8004574:	6ada      	ldr	r2, [r3, #44]	; 0x2c
 8004576:	4613      	mov	r3, r2
 8004578:	009b      	lsls	r3, r3, #2
 800457a:	4413      	add	r3, r2
 800457c:	009b      	lsls	r3, r3, #2
 800457e:	4a10      	ldr	r2, [pc, #64]	; (80045c0 <xTaskPriorityInherit+0xfc>)
 8004580:	441a      	add	r2, r3
 8004582:	68bb      	ldr	r3, [r7, #8]
 8004584:	3304      	adds	r3, #4
 8004586:	4610      	mov	r0, r2
 8004588:	4619      	mov	r1, r3
 800458a:	f7fe fa91 	bl	8002ab0 <vListInsertEnd>
 800458e:	e004      	b.n	800459a <xTaskPriorityInherit+0xd6>
				}
				else
				{
					/* Just inherit the priority. */
					pxMutexHolderTCB->uxPriority = pxCurrentTCB->uxPriority;
 8004590:	4b0a      	ldr	r3, [pc, #40]	; (80045bc <xTaskPriorityInherit+0xf8>)
 8004592:	681b      	ldr	r3, [r3, #0]
 8004594:	6ada      	ldr	r2, [r3, #44]	; 0x2c
 8004596:	68bb      	ldr	r3, [r7, #8]
 8004598:	62da      	str	r2, [r3, #44]	; 0x2c
				}

				traceTASK_PRIORITY_INHERIT( pxMutexHolderTCB, pxCurrentTCB->uxPriority );

				/* Inheritance occurred. */
				xReturn = pdTRUE;
 800459a:	2301      	movs	r3, #1
 800459c:	60fb      	str	r3, [r7, #12]
 800459e:	e008      	b.n	80045b2 <xTaskPriorityInherit+0xee>
			}
			else
			{
				if( pxMutexHolderTCB->uxBasePriority < pxCurrentTCB->uxPriority )
 80045a0:	68bb      	ldr	r3, [r7, #8]
 80045a2:	6cda      	ldr	r2, [r3, #76]	; 0x4c
 80045a4:	4b05      	ldr	r3, [pc, #20]	; (80045bc <xTaskPriorityInherit+0xf8>)
 80045a6:	681b      	ldr	r3, [r3, #0]
 80045a8:	6adb      	ldr	r3, [r3, #44]	; 0x2c
 80045aa:	429a      	cmp	r2, r3
 80045ac:	d201      	bcs.n	80045b2 <xTaskPriorityInherit+0xee>
					current priority of the mutex holder is not lower than the
					priority of the task attempting to take the mutex.
					Therefore the mutex holder must have already inherited a
					priority, but inheritance would have occurred if that had
					not been the case. */
					xReturn = pdTRUE;
 80045ae:	2301      	movs	r3, #1
 80045b0:	60fb      	str	r3, [r7, #12]
		else
		{
			mtCOVERAGE_TEST_MARKER();
		}

		return xReturn;
 80045b2:	68fb      	ldr	r3, [r7, #12]
	}
 80045b4:	4618      	mov	r0, r3
 80045b6:	3710      	adds	r7, #16
 80045b8:	46bd      	mov	sp, r7
 80045ba:	bd80      	pop	{r7, pc}
 80045bc:	1ffe88d8 	.word	0x1ffe88d8
 80045c0:	1ffe88dc 	.word	0x1ffe88dc
 80045c4:	1ffe89b8 	.word	0x1ffe89b8

080045c8 <xTaskPriorityDisinherit>:
/*-----------------------------------------------------------*/

#if ( configUSE_MUTEXES == 1 )

	BaseType_t xTaskPriorityDisinherit( TaskHandle_t const pxMutexHolder )
	{
 80045c8:	b580      	push	{r7, lr}
 80045ca:	b086      	sub	sp, #24
 80045cc:	af00      	add	r7, sp, #0
 80045ce:	6078      	str	r0, [r7, #4]
	TCB_t * const pxTCB = pxMutexHolder;
 80045d0:	687b      	ldr	r3, [r7, #4]
 80045d2:	613b      	str	r3, [r7, #16]
	BaseType_t xReturn = pdFALSE;
 80045d4:	2300      	movs	r3, #0
 80045d6:	617b      	str	r3, [r7, #20]

		if( pxMutexHolder != NULL )
 80045d8:	687b      	ldr	r3, [r7, #4]
 80045da:	2b00      	cmp	r3, #0
 80045dc:	d06e      	beq.n	80046bc <xTaskPriorityDisinherit+0xf4>
		{
			/* A task can only have an inherited priority if it holds the mutex.
			If the mutex is held by a task then it cannot be given from an
			interrupt, and if a mutex is given by the holding task then it must
			be the running state task. */
			configASSERT( pxTCB == pxCurrentTCB );
 80045de:	4b3a      	ldr	r3, [pc, #232]	; (80046c8 <xTaskPriorityDisinherit+0x100>)
 80045e0:	681b      	ldr	r3, [r3, #0]
 80045e2:	693a      	ldr	r2, [r7, #16]
 80045e4:	429a      	cmp	r2, r3
 80045e6:	d009      	beq.n	80045fc <xTaskPriorityDisinherit+0x34>
 80045e8:	f04f 03fc 	mov.w	r3, #252	; 0xfc
 80045ec:	f383 8811 	msr	BASEPRI, r3
 80045f0:	f3bf 8f6f 	isb	sy
 80045f4:	f3bf 8f4f 	dsb	sy
 80045f8:	60fb      	str	r3, [r7, #12]
 80045fa:	e7fe      	b.n	80045fa <xTaskPriorityDisinherit+0x32>
			configASSERT( pxTCB->uxMutexesHeld );
 80045fc:	693b      	ldr	r3, [r7, #16]
 80045fe:	6d1b      	ldr	r3, [r3, #80]	; 0x50
 8004600:	2b00      	cmp	r3, #0
 8004602:	d109      	bne.n	8004618 <xTaskPriorityDisinherit+0x50>
 8004604:	f04f 03fc 	mov.w	r3, #252	; 0xfc
 8004608:	f383 8811 	msr	BASEPRI, r3
 800460c:	f3bf 8f6f 	isb	sy
 8004610:	f3bf 8f4f 	dsb	sy
 8004614:	60bb      	str	r3, [r7, #8]
 8004616:	e7fe      	b.n	8004616 <xTaskPriorityDisinherit+0x4e>
			( pxTCB->uxMutexesHeld )--;
 8004618:	693b      	ldr	r3, [r7, #16]
 800461a:	6d1b      	ldr	r3, [r3, #80]	; 0x50
 800461c:	1e5a      	subs	r2, r3, #1
 800461e:	693b      	ldr	r3, [r7, #16]
 8004620:	651a      	str	r2, [r3, #80]	; 0x50

			/* Has the holder of the mutex inherited the priority of another
			task? */
			if( pxTCB->uxPriority != pxTCB->uxBasePriority )
 8004622:	693b      	ldr	r3, [r7, #16]
 8004624:	6ada      	ldr	r2, [r3, #44]	; 0x2c
 8004626:	693b      	ldr	r3, [r7, #16]
 8004628:	6cdb      	ldr	r3, [r3, #76]	; 0x4c
 800462a:	429a      	cmp	r2, r3
 800462c:	d046      	beq.n	80046bc <xTaskPriorityDisinherit+0xf4>
			{
				/* Only disinherit if no other mutexes are held. */
				if( pxTCB->uxMutexesHeld == ( UBaseType_t ) 0 )
 800462e:	693b      	ldr	r3, [r7, #16]
 8004630:	6d1b      	ldr	r3, [r3, #80]	; 0x50
 8004632:	2b00      	cmp	r3, #0
 8004634:	d142      	bne.n	80046bc <xTaskPriorityDisinherit+0xf4>
					/* A task can only have an inherited priority if it holds
					the mutex.  If the mutex is held by a task then it cannot be
					given from an interrupt, and if a mutex is given by the
					holding task then it must be the running state task.  Remove
					the holding task from the ready list. */
					if( uxListRemove( &( pxTCB->xStateListItem ) ) == ( UBaseType_t ) 0 )
 8004636:	693b      	ldr	r3, [r7, #16]
 8004638:	3304      	adds	r3, #4
 800463a:	4618      	mov	r0, r3
 800463c:	f7fe fa94 	bl	8002b68 <uxListRemove>
 8004640:	4603      	mov	r3, r0
 8004642:	2b00      	cmp	r3, #0
 8004644:	d115      	bne.n	8004672 <xTaskPriorityDisinherit+0xaa>
					{
						taskRESET_READY_PRIORITY( pxTCB->uxPriority );
 8004646:	693b      	ldr	r3, [r7, #16]
 8004648:	6ada      	ldr	r2, [r3, #44]	; 0x2c
 800464a:	4920      	ldr	r1, [pc, #128]	; (80046cc <xTaskPriorityDisinherit+0x104>)
 800464c:	4613      	mov	r3, r2
 800464e:	009b      	lsls	r3, r3, #2
 8004650:	4413      	add	r3, r2
 8004652:	009b      	lsls	r3, r3, #2
 8004654:	440b      	add	r3, r1
 8004656:	681b      	ldr	r3, [r3, #0]
 8004658:	2b00      	cmp	r3, #0
 800465a:	d10a      	bne.n	8004672 <xTaskPriorityDisinherit+0xaa>
 800465c:	693b      	ldr	r3, [r7, #16]
 800465e:	6adb      	ldr	r3, [r3, #44]	; 0x2c
 8004660:	461a      	mov	r2, r3
 8004662:	2301      	movs	r3, #1
 8004664:	4093      	lsls	r3, r2
 8004666:	43da      	mvns	r2, r3
 8004668:	4b19      	ldr	r3, [pc, #100]	; (80046d0 <xTaskPriorityDisinherit+0x108>)
 800466a:	681b      	ldr	r3, [r3, #0]
 800466c:	4013      	ands	r3, r2
 800466e:	4a18      	ldr	r2, [pc, #96]	; (80046d0 <xTaskPriorityDisinherit+0x108>)
 8004670:	6013      	str	r3, [r2, #0]
					}

					/* Disinherit the priority before adding the task into the
					new	ready list. */
					traceTASK_PRIORITY_DISINHERIT( pxTCB, pxTCB->uxBasePriority );
					pxTCB->uxPriority = pxTCB->uxBasePriority;
 8004672:	693b      	ldr	r3, [r7, #16]
 8004674:	6cda      	ldr	r2, [r3, #76]	; 0x4c
 8004676:	693b      	ldr	r3, [r7, #16]
 8004678:	62da      	str	r2, [r3, #44]	; 0x2c

					/* Reset the event list item value.  It cannot be in use for
					any other purpose if this task is running, and it must be
					running to give back the mutex. */
					listSET_LIST_ITEM_VALUE( &( pxTCB->xEventListItem ), ( TickType_t ) configMAX_PRIORITIES - ( TickType_t ) pxTCB->uxPriority ); /*lint !e961 MISRA exception as the casts are only redundant for some ports. */
 800467a:	693b      	ldr	r3, [r7, #16]
 800467c:	6adb      	ldr	r3, [r3, #44]	; 0x2c
 800467e:	f1c3 0205 	rsb	r2, r3, #5
 8004682:	693b      	ldr	r3, [r7, #16]
 8004684:	619a      	str	r2, [r3, #24]
					prvAddTaskToReadyList( pxTCB );
 8004686:	693b      	ldr	r3, [r7, #16]
 8004688:	6adb      	ldr	r3, [r3, #44]	; 0x2c
 800468a:	461a      	mov	r2, r3
 800468c:	2301      	movs	r3, #1
 800468e:	fa03 f202 	lsl.w	r2, r3, r2
 8004692:	4b0f      	ldr	r3, [pc, #60]	; (80046d0 <xTaskPriorityDisinherit+0x108>)
 8004694:	681b      	ldr	r3, [r3, #0]
 8004696:	4313      	orrs	r3, r2
 8004698:	4a0d      	ldr	r2, [pc, #52]	; (80046d0 <xTaskPriorityDisinherit+0x108>)
 800469a:	6013      	str	r3, [r2, #0]
 800469c:	693b      	ldr	r3, [r7, #16]
 800469e:	6ada      	ldr	r2, [r3, #44]	; 0x2c
 80046a0:	4613      	mov	r3, r2
 80046a2:	009b      	lsls	r3, r3, #2
 80046a4:	4413      	add	r3, r2
 80046a6:	009b      	lsls	r3, r3, #2
 80046a8:	4a08      	ldr	r2, [pc, #32]	; (80046cc <xTaskPriorityDisinherit+0x104>)
 80046aa:	441a      	add	r2, r3
 80046ac:	693b      	ldr	r3, [r7, #16]
 80046ae:	3304      	adds	r3, #4
 80046b0:	4610      	mov	r0, r2
 80046b2:	4619      	mov	r1, r3
 80046b4:	f7fe f9fc 	bl	8002ab0 <vListInsertEnd>
					in an order different to that in which they were taken.
					If a context switch did not occur when the first mutex was
					returned, even if a task was waiting on it, then a context
					switch should occur when the last mutex is returned whether
					a task is waiting on it or not. */
					xReturn = pdTRUE;
 80046b8:	2301      	movs	r3, #1
 80046ba:	617b      	str	r3, [r7, #20]
		else
		{
			mtCOVERAGE_TEST_MARKER();
		}

		return xReturn;
 80046bc:	697b      	ldr	r3, [r7, #20]
	}
 80046be:	4618      	mov	r0, r3
 80046c0:	3718      	adds	r7, #24
 80046c2:	46bd      	mov	sp, r7
 80046c4:	bd80      	pop	{r7, pc}
 80046c6:	bf00      	nop
 80046c8:	1ffe88d8 	.word	0x1ffe88d8
 80046cc:	1ffe88dc 	.word	0x1ffe88dc
 80046d0:	1ffe89b8 	.word	0x1ffe89b8

080046d4 <vTaskPriorityDisinheritAfterTimeout>:
/*-----------------------------------------------------------*/

#if ( configUSE_MUTEXES == 1 )

	void vTaskPriorityDisinheritAfterTimeout( TaskHandle_t const pxMutexHolder, UBaseType_t uxHighestPriorityWaitingTask )
	{
 80046d4:	b580      	push	{r7, lr}
 80046d6:	b088      	sub	sp, #32
 80046d8:	af00      	add	r7, sp, #0
 80046da:	6078      	str	r0, [r7, #4]
 80046dc:	6039      	str	r1, [r7, #0]
	TCB_t * const pxTCB = pxMutexHolder;
 80046de:	687b      	ldr	r3, [r7, #4]
 80046e0:	61bb      	str	r3, [r7, #24]
	UBaseType_t uxPriorityUsedOnEntry, uxPriorityToUse;
	const UBaseType_t uxOnlyOneMutexHeld = ( UBaseType_t ) 1;
 80046e2:	2301      	movs	r3, #1
 80046e4:	617b      	str	r3, [r7, #20]

		if( pxMutexHolder != NULL )
 80046e6:	687b      	ldr	r3, [r7, #4]
 80046e8:	2b00      	cmp	r3, #0
 80046ea:	f000 8083 	beq.w	80047f4 <vTaskPriorityDisinheritAfterTimeout+0x120>
		{
			/* If pxMutexHolder is not NULL then the holder must hold at least
			one mutex. */
			configASSERT( pxTCB->uxMutexesHeld );
 80046ee:	69bb      	ldr	r3, [r7, #24]
 80046f0:	6d1b      	ldr	r3, [r3, #80]	; 0x50
 80046f2:	2b00      	cmp	r3, #0
 80046f4:	d109      	bne.n	800470a <vTaskPriorityDisinheritAfterTimeout+0x36>
 80046f6:	f04f 03fc 	mov.w	r3, #252	; 0xfc
 80046fa:	f383 8811 	msr	BASEPRI, r3
 80046fe:	f3bf 8f6f 	isb	sy
 8004702:	f3bf 8f4f 	dsb	sy
 8004706:	60fb      	str	r3, [r7, #12]
 8004708:	e7fe      	b.n	8004708 <vTaskPriorityDisinheritAfterTimeout+0x34>

			/* Determine the priority to which the priority of the task that
			holds the mutex should be set.  This will be the greater of the
			holding task's base priority and the priority of the highest
			priority task that is waiting to obtain the mutex. */
			if( pxTCB->uxBasePriority < uxHighestPriorityWaitingTask )
 800470a:	69bb      	ldr	r3, [r7, #24]
 800470c:	6cda      	ldr	r2, [r3, #76]	; 0x4c
 800470e:	683b      	ldr	r3, [r7, #0]
 8004710:	429a      	cmp	r2, r3
 8004712:	d202      	bcs.n	800471a <vTaskPriorityDisinheritAfterTimeout+0x46>
			{
				uxPriorityToUse = uxHighestPriorityWaitingTask;
 8004714:	683b      	ldr	r3, [r7, #0]
 8004716:	61fb      	str	r3, [r7, #28]
 8004718:	e002      	b.n	8004720 <vTaskPriorityDisinheritAfterTimeout+0x4c>
			}
			else
			{
				uxPriorityToUse = pxTCB->uxBasePriority;
 800471a:	69bb      	ldr	r3, [r7, #24]
 800471c:	6cdb      	ldr	r3, [r3, #76]	; 0x4c
 800471e:	61fb      	str	r3, [r7, #28]
			}

			/* Does the priority need to change? */
			if( pxTCB->uxPriority != uxPriorityToUse )
 8004720:	69bb      	ldr	r3, [r7, #24]
 8004722:	6ada      	ldr	r2, [r3, #44]	; 0x2c
 8004724:	69fb      	ldr	r3, [r7, #28]
 8004726:	429a      	cmp	r2, r3
 8004728:	d064      	beq.n	80047f4 <vTaskPriorityDisinheritAfterTimeout+0x120>
			{
				/* Only disinherit if no other mutexes are held.  This is a
				simplification in the priority inheritance implementation.  If
				the task that holds the mutex is also holding other mutexes then
				the other mutexes may have caused the priority inheritance. */
				if( pxTCB->uxMutexesHeld == uxOnlyOneMutexHeld )
 800472a:	69bb      	ldr	r3, [r7, #24]
 800472c:	6d1a      	ldr	r2, [r3, #80]	; 0x50
 800472e:	697b      	ldr	r3, [r7, #20]
 8004730:	429a      	cmp	r2, r3
 8004732:	d15f      	bne.n	80047f4 <vTaskPriorityDisinheritAfterTimeout+0x120>
				{
					/* If a task has timed out because it already holds the
					mutex it was trying to obtain then it cannot of inherited
					its own priority. */
					configASSERT( pxTCB != pxCurrentTCB );
 8004734:	4b31      	ldr	r3, [pc, #196]	; (80047fc <vTaskPriorityDisinheritAfterTimeout+0x128>)
 8004736:	681b      	ldr	r3, [r3, #0]
 8004738:	69ba      	ldr	r2, [r7, #24]
 800473a:	429a      	cmp	r2, r3
 800473c:	d109      	bne.n	8004752 <vTaskPriorityDisinheritAfterTimeout+0x7e>
 800473e:	f04f 03fc 	mov.w	r3, #252	; 0xfc
 8004742:	f383 8811 	msr	BASEPRI, r3
 8004746:	f3bf 8f6f 	isb	sy
 800474a:	f3bf 8f4f 	dsb	sy
 800474e:	60bb      	str	r3, [r7, #8]
 8004750:	e7fe      	b.n	8004750 <vTaskPriorityDisinheritAfterTimeout+0x7c>

					/* Disinherit the priority, remembering the previous
					priority to facilitate determining the subject task's
					state. */
					traceTASK_PRIORITY_DISINHERIT( pxTCB, pxTCB->uxBasePriority );
					uxPriorityUsedOnEntry = pxTCB->uxPriority;
 8004752:	69bb      	ldr	r3, [r7, #24]
 8004754:	6adb      	ldr	r3, [r3, #44]	; 0x2c
 8004756:	613b      	str	r3, [r7, #16]
					pxTCB->uxPriority = uxPriorityToUse;
 8004758:	69bb      	ldr	r3, [r7, #24]
 800475a:	69fa      	ldr	r2, [r7, #28]
 800475c:	62da      	str	r2, [r3, #44]	; 0x2c

					/* Only reset the event list item value if the value is not
					being used for anything else. */
					if( ( listGET_LIST_ITEM_VALUE( &( pxTCB->xEventListItem ) ) & taskEVENT_LIST_ITEM_VALUE_IN_USE ) == 0UL )
 800475e:	69bb      	ldr	r3, [r7, #24]
 8004760:	699b      	ldr	r3, [r3, #24]
 8004762:	2b00      	cmp	r3, #0
 8004764:	db04      	blt.n	8004770 <vTaskPriorityDisinheritAfterTimeout+0x9c>
					{
						listSET_LIST_ITEM_VALUE( &( pxTCB->xEventListItem ), ( TickType_t ) configMAX_PRIORITIES - ( TickType_t ) uxPriorityToUse ); /*lint !e961 MISRA exception as the casts are only redundant for some ports. */
 8004766:	69fb      	ldr	r3, [r7, #28]
 8004768:	f1c3 0205 	rsb	r2, r3, #5
 800476c:	69bb      	ldr	r3, [r7, #24]
 800476e:	619a      	str	r2, [r3, #24]
					then the task that holds the mutex could be in either the
					Ready, Blocked or Suspended states.  Only remove the task
					from its current state list if it is in the Ready state as
					the task's priority is going to change and there is one
					Ready list per priority. */
					if( listIS_CONTAINED_WITHIN( &( pxReadyTasksLists[ uxPriorityUsedOnEntry ] ), &( pxTCB->xStateListItem ) ) != pdFALSE )
 8004770:	69bb      	ldr	r3, [r7, #24]
 8004772:	6959      	ldr	r1, [r3, #20]
 8004774:	693a      	ldr	r2, [r7, #16]
 8004776:	4613      	mov	r3, r2
 8004778:	009b      	lsls	r3, r3, #2
 800477a:	4413      	add	r3, r2
 800477c:	009b      	lsls	r3, r3, #2
 800477e:	4a20      	ldr	r2, [pc, #128]	; (8004800 <vTaskPriorityDisinheritAfterTimeout+0x12c>)
 8004780:	4413      	add	r3, r2
 8004782:	4299      	cmp	r1, r3
 8004784:	d136      	bne.n	80047f4 <vTaskPriorityDisinheritAfterTimeout+0x120>
					{
						if( uxListRemove( &( pxTCB->xStateListItem ) ) == ( UBaseType_t ) 0 )
 8004786:	69bb      	ldr	r3, [r7, #24]
 8004788:	3304      	adds	r3, #4
 800478a:	4618      	mov	r0, r3
 800478c:	f7fe f9ec 	bl	8002b68 <uxListRemove>
 8004790:	4603      	mov	r3, r0
 8004792:	2b00      	cmp	r3, #0
 8004794:	d115      	bne.n	80047c2 <vTaskPriorityDisinheritAfterTimeout+0xee>
						{
							taskRESET_READY_PRIORITY( pxTCB->uxPriority );
 8004796:	69bb      	ldr	r3, [r7, #24]
 8004798:	6ada      	ldr	r2, [r3, #44]	; 0x2c
 800479a:	4919      	ldr	r1, [pc, #100]	; (8004800 <vTaskPriorityDisinheritAfterTimeout+0x12c>)
 800479c:	4613      	mov	r3, r2
 800479e:	009b      	lsls	r3, r3, #2
 80047a0:	4413      	add	r3, r2
 80047a2:	009b      	lsls	r3, r3, #2
 80047a4:	440b      	add	r3, r1
 80047a6:	681b      	ldr	r3, [r3, #0]
 80047a8:	2b00      	cmp	r3, #0
 80047aa:	d10a      	bne.n	80047c2 <vTaskPriorityDisinheritAfterTimeout+0xee>
 80047ac:	69bb      	ldr	r3, [r7, #24]
 80047ae:	6adb      	ldr	r3, [r3, #44]	; 0x2c
 80047b0:	461a      	mov	r2, r3
 80047b2:	2301      	movs	r3, #1
 80047b4:	4093      	lsls	r3, r2
 80047b6:	43da      	mvns	r2, r3
 80047b8:	4b12      	ldr	r3, [pc, #72]	; (8004804 <vTaskPriorityDisinheritAfterTimeout+0x130>)
 80047ba:	681b      	ldr	r3, [r3, #0]
 80047bc:	4013      	ands	r3, r2
 80047be:	4a11      	ldr	r2, [pc, #68]	; (8004804 <vTaskPriorityDisinheritAfterTimeout+0x130>)
 80047c0:	6013      	str	r3, [r2, #0]
						else
						{
							mtCOVERAGE_TEST_MARKER();
						}

						prvAddTaskToReadyList( pxTCB );
 80047c2:	69bb      	ldr	r3, [r7, #24]
 80047c4:	6adb      	ldr	r3, [r3, #44]	; 0x2c
 80047c6:	461a      	mov	r2, r3
 80047c8:	2301      	movs	r3, #1
 80047ca:	fa03 f202 	lsl.w	r2, r3, r2
 80047ce:	4b0d      	ldr	r3, [pc, #52]	; (8004804 <vTaskPriorityDisinheritAfterTimeout+0x130>)
 80047d0:	681b      	ldr	r3, [r3, #0]
 80047d2:	4313      	orrs	r3, r2
 80047d4:	4a0b      	ldr	r2, [pc, #44]	; (8004804 <vTaskPriorityDisinheritAfterTimeout+0x130>)
 80047d6:	6013      	str	r3, [r2, #0]
 80047d8:	69bb      	ldr	r3, [r7, #24]
 80047da:	6ada      	ldr	r2, [r3, #44]	; 0x2c
 80047dc:	4613      	mov	r3, r2
 80047de:	009b      	lsls	r3, r3, #2
 80047e0:	4413      	add	r3, r2
 80047e2:	009b      	lsls	r3, r3, #2
 80047e4:	4a06      	ldr	r2, [pc, #24]	; (8004800 <vTaskPriorityDisinheritAfterTimeout+0x12c>)
 80047e6:	441a      	add	r2, r3
 80047e8:	69bb      	ldr	r3, [r7, #24]
 80047ea:	3304      	adds	r3, #4
 80047ec:	4610      	mov	r0, r2
 80047ee:	4619      	mov	r1, r3
 80047f0:	f7fe f95e 	bl	8002ab0 <vListInsertEnd>
		}
		else
		{
			mtCOVERAGE_TEST_MARKER();
		}
	}
 80047f4:	3720      	adds	r7, #32
 80047f6:	46bd      	mov	sp, r7
 80047f8:	bd80      	pop	{r7, pc}
 80047fa:	bf00      	nop
 80047fc:	1ffe88d8 	.word	0x1ffe88d8
 8004800:	1ffe88dc 	.word	0x1ffe88dc
 8004804:	1ffe89b8 	.word	0x1ffe89b8

08004808 <pvTaskIncrementMutexHeldCount>:
/*-----------------------------------------------------------*/

#if ( configUSE_MUTEXES == 1 )

	TaskHandle_t pvTaskIncrementMutexHeldCount( void )
	{
 8004808:	b480      	push	{r7}
 800480a:	af00      	add	r7, sp, #0
		/* If xSemaphoreCreateMutex() is called before any tasks have been created
		then pxCurrentTCB will be NULL. */
		if( pxCurrentTCB != NULL )
 800480c:	4b07      	ldr	r3, [pc, #28]	; (800482c <pvTaskIncrementMutexHeldCount+0x24>)
 800480e:	681b      	ldr	r3, [r3, #0]
 8004810:	2b00      	cmp	r3, #0
 8004812:	d004      	beq.n	800481e <pvTaskIncrementMutexHeldCount+0x16>
		{
			( pxCurrentTCB->uxMutexesHeld )++;
 8004814:	4b05      	ldr	r3, [pc, #20]	; (800482c <pvTaskIncrementMutexHeldCount+0x24>)
 8004816:	681b      	ldr	r3, [r3, #0]
 8004818:	6d1a      	ldr	r2, [r3, #80]	; 0x50
 800481a:	3201      	adds	r2, #1
 800481c:	651a      	str	r2, [r3, #80]	; 0x50
		}

		return pxCurrentTCB;
 800481e:	4b03      	ldr	r3, [pc, #12]	; (800482c <pvTaskIncrementMutexHeldCount+0x24>)
 8004820:	681b      	ldr	r3, [r3, #0]
	}
 8004822:	4618      	mov	r0, r3
 8004824:	46bd      	mov	sp, r7
 8004826:	f85d 7b04 	ldr.w	r7, [sp], #4
 800482a:	4770      	bx	lr
 800482c:	1ffe88d8 	.word	0x1ffe88d8

08004830 <prvAddCurrentTaskToDelayedList>:
	}
#endif
/*-----------------------------------------------------------*/

static void prvAddCurrentTaskToDelayedList( TickType_t xTicksToWait, const BaseType_t xCanBlockIndefinitely )
{
 8004830:	b580      	push	{r7, lr}
 8004832:	b084      	sub	sp, #16
 8004834:	af00      	add	r7, sp, #0
 8004836:	6078      	str	r0, [r7, #4]
 8004838:	6039      	str	r1, [r7, #0]
TickType_t xTimeToWake;
const TickType_t xConstTickCount = xTickCount;
 800483a:	4b2b      	ldr	r3, [pc, #172]	; (80048e8 <prvAddCurrentTaskToDelayedList+0xb8>)
 800483c:	681b      	ldr	r3, [r3, #0]
 800483e:	60fb      	str	r3, [r7, #12]
	#if( INCLUDE_xTaskAbortDelay == 1 )
	{
		/* About to enter a delayed list, so ensure the ucDelayAborted flag is
		reset to pdFALSE so it can be detected as having been set to pdTRUE
		when the task leaves the Blocked state. */
		pxCurrentTCB->ucDelayAborted = pdFALSE;
 8004840:	4b2a      	ldr	r3, [pc, #168]	; (80048ec <prvAddCurrentTaskToDelayedList+0xbc>)
 8004842:	681b      	ldr	r3, [r3, #0]
 8004844:	2200      	movs	r2, #0
 8004846:	f883 206d 	strb.w	r2, [r3, #109]	; 0x6d
	}
	#endif

	/* Remove the task from the ready list before adding it to the blocked list
	as the same list item is used for both lists. */
	if( uxListRemove( &( pxCurrentTCB->xStateListItem ) ) == ( UBaseType_t ) 0 )
 800484a:	4b28      	ldr	r3, [pc, #160]	; (80048ec <prvAddCurrentTaskToDelayedList+0xbc>)
 800484c:	681b      	ldr	r3, [r3, #0]
 800484e:	3304      	adds	r3, #4
 8004850:	4618      	mov	r0, r3
 8004852:	f7fe f989 	bl	8002b68 <uxListRemove>
 8004856:	4603      	mov	r3, r0
 8004858:	2b00      	cmp	r3, #0
 800485a:	d10b      	bne.n	8004874 <prvAddCurrentTaskToDelayedList+0x44>
	{
		/* The current task must be in a ready list, so there is no need to
		check, and the port reset macro can be called directly. */
		portRESET_READY_PRIORITY( pxCurrentTCB->uxPriority, uxTopReadyPriority ); /*lint !e931 pxCurrentTCB cannot change as it is the calling task.  pxCurrentTCB->uxPriority and uxTopReadyPriority cannot change as called with scheduler suspended or in a critical section. */
 800485c:	4b23      	ldr	r3, [pc, #140]	; (80048ec <prvAddCurrentTaskToDelayedList+0xbc>)
 800485e:	681b      	ldr	r3, [r3, #0]
 8004860:	6adb      	ldr	r3, [r3, #44]	; 0x2c
 8004862:	461a      	mov	r2, r3
 8004864:	2301      	movs	r3, #1
 8004866:	4093      	lsls	r3, r2
 8004868:	43da      	mvns	r2, r3
 800486a:	4b21      	ldr	r3, [pc, #132]	; (80048f0 <prvAddCurrentTaskToDelayedList+0xc0>)
 800486c:	681b      	ldr	r3, [r3, #0]
 800486e:	4013      	ands	r3, r2
 8004870:	4a1f      	ldr	r2, [pc, #124]	; (80048f0 <prvAddCurrentTaskToDelayedList+0xc0>)
 8004872:	6013      	str	r3, [r2, #0]
		mtCOVERAGE_TEST_MARKER();
	}

	#if ( INCLUDE_vTaskSuspend == 1 )
	{
		if( ( xTicksToWait == portMAX_DELAY ) && ( xCanBlockIndefinitely != pdFALSE ) )
 8004874:	687b      	ldr	r3, [r7, #4]
 8004876:	f1b3 3fff 	cmp.w	r3, #4294967295
 800487a:	d10a      	bne.n	8004892 <prvAddCurrentTaskToDelayedList+0x62>
 800487c:	683b      	ldr	r3, [r7, #0]
 800487e:	2b00      	cmp	r3, #0
 8004880:	d007      	beq.n	8004892 <prvAddCurrentTaskToDelayedList+0x62>
		{
			/* Add the task to the suspended task list instead of a delayed task
			list to ensure it is not woken by a timing event.  It will block
			indefinitely. */
			vListInsertEnd( &xSuspendedTaskList, &( pxCurrentTCB->xStateListItem ) );
 8004882:	4b1a      	ldr	r3, [pc, #104]	; (80048ec <prvAddCurrentTaskToDelayedList+0xbc>)
 8004884:	681b      	ldr	r3, [r3, #0]
 8004886:	3304      	adds	r3, #4
 8004888:	481a      	ldr	r0, [pc, #104]	; (80048f4 <prvAddCurrentTaskToDelayedList+0xc4>)
 800488a:	4619      	mov	r1, r3
 800488c:	f7fe f910 	bl	8002ab0 <vListInsertEnd>
 8004890:	e026      	b.n	80048e0 <prvAddCurrentTaskToDelayedList+0xb0>
		else
		{
			/* Calculate the time at which the task should be woken if the event
			does not occur.  This may overflow but this doesn't matter, the
			kernel will manage it correctly. */
			xTimeToWake = xConstTickCount + xTicksToWait;
 8004892:	68fa      	ldr	r2, [r7, #12]
 8004894:	687b      	ldr	r3, [r7, #4]
 8004896:	4413      	add	r3, r2
 8004898:	60bb      	str	r3, [r7, #8]

			/* The list item will be inserted in wake time order. */
			listSET_LIST_ITEM_VALUE( &( pxCurrentTCB->xStateListItem ), xTimeToWake );
 800489a:	4b14      	ldr	r3, [pc, #80]	; (80048ec <prvAddCurrentTaskToDelayedList+0xbc>)
 800489c:	681b      	ldr	r3, [r3, #0]
 800489e:	68ba      	ldr	r2, [r7, #8]
 80048a0:	605a      	str	r2, [r3, #4]

			if( xTimeToWake < xConstTickCount )
 80048a2:	68ba      	ldr	r2, [r7, #8]
 80048a4:	68fb      	ldr	r3, [r7, #12]
 80048a6:	429a      	cmp	r2, r3
 80048a8:	d209      	bcs.n	80048be <prvAddCurrentTaskToDelayedList+0x8e>
			{
				/* Wake time has overflowed.  Place this item in the overflow
				list. */
				vListInsert( pxOverflowDelayedTaskList, &( pxCurrentTCB->xStateListItem ) );
 80048aa:	4b13      	ldr	r3, [pc, #76]	; (80048f8 <prvAddCurrentTaskToDelayedList+0xc8>)
 80048ac:	681a      	ldr	r2, [r3, #0]
 80048ae:	4b0f      	ldr	r3, [pc, #60]	; (80048ec <prvAddCurrentTaskToDelayedList+0xbc>)
 80048b0:	681b      	ldr	r3, [r3, #0]
 80048b2:	3304      	adds	r3, #4
 80048b4:	4610      	mov	r0, r2
 80048b6:	4619      	mov	r1, r3
 80048b8:	f7fe f91e 	bl	8002af8 <vListInsert>
 80048bc:	e010      	b.n	80048e0 <prvAddCurrentTaskToDelayedList+0xb0>
			}
			else
			{
				/* The wake time has not overflowed, so the current block list
				is used. */
				vListInsert( pxDelayedTaskList, &( pxCurrentTCB->xStateListItem ) );
 80048be:	4b0f      	ldr	r3, [pc, #60]	; (80048fc <prvAddCurrentTaskToDelayedList+0xcc>)
 80048c0:	681a      	ldr	r2, [r3, #0]
 80048c2:	4b0a      	ldr	r3, [pc, #40]	; (80048ec <prvAddCurrentTaskToDelayedList+0xbc>)
 80048c4:	681b      	ldr	r3, [r3, #0]
 80048c6:	3304      	adds	r3, #4
 80048c8:	4610      	mov	r0, r2
 80048ca:	4619      	mov	r1, r3
 80048cc:	f7fe f914 	bl	8002af8 <vListInsert>

				/* If the task entering the blocked state was placed at the
				head of the list of blocked tasks then xNextTaskUnblockTime
				needs to be updated too. */
				if( xTimeToWake < xNextTaskUnblockTime )
 80048d0:	4b0b      	ldr	r3, [pc, #44]	; (8004900 <prvAddCurrentTaskToDelayedList+0xd0>)
 80048d2:	681b      	ldr	r3, [r3, #0]
 80048d4:	68ba      	ldr	r2, [r7, #8]
 80048d6:	429a      	cmp	r2, r3
 80048d8:	d202      	bcs.n	80048e0 <prvAddCurrentTaskToDelayedList+0xb0>
				{
					xNextTaskUnblockTime = xTimeToWake;
 80048da:	4a09      	ldr	r2, [pc, #36]	; (8004900 <prvAddCurrentTaskToDelayedList+0xd0>)
 80048dc:	68bb      	ldr	r3, [r7, #8]
 80048de:	6013      	str	r3, [r2, #0]

		/* Avoid compiler warning when INCLUDE_vTaskSuspend is not 1. */
		( void ) xCanBlockIndefinitely;
	}
	#endif /* INCLUDE_vTaskSuspend */
}
 80048e0:	3710      	adds	r7, #16
 80048e2:	46bd      	mov	sp, r7
 80048e4:	bd80      	pop	{r7, pc}
 80048e6:	bf00      	nop
 80048e8:	1ffe89b4 	.word	0x1ffe89b4
 80048ec:	1ffe88d8 	.word	0x1ffe88d8
 80048f0:	1ffe89b8 	.word	0x1ffe89b8
 80048f4:	1ffe899c 	.word	0x1ffe899c
 80048f8:	1ffe896c 	.word	0x1ffe896c
 80048fc:	1ffe8968 	.word	0x1ffe8968
 8004900:	1ffe89d0 	.word	0x1ffe89d0

08004904 <xTimerCreateTimerTask>:
									TimerCallbackFunction_t pxCallbackFunction,
									Timer_t *pxNewTimer ) PRIVILEGED_FUNCTION;
/*-----------------------------------------------------------*/

BaseType_t xTimerCreateTimerTask( void )
{
 8004904:	b580      	push	{r7, lr}
 8004906:	b084      	sub	sp, #16
 8004908:	af02      	add	r7, sp, #8
BaseType_t xReturn = pdFAIL;
 800490a:	2300      	movs	r3, #0
 800490c:	607b      	str	r3, [r7, #4]

	/* This function is called when the scheduler is started if
	configUSE_TIMERS is set to 1.  Check that the infrastructure used by the
	timer service task has been created/initialised.  If timers have already
	been created then the initialisation will already have been performed. */
	prvCheckForValidListAndQueue();
 800490e:	f000 faf3 	bl	8004ef8 <prvCheckForValidListAndQueue>

	if( xTimerQueue != NULL )
 8004912:	4b11      	ldr	r3, [pc, #68]	; (8004958 <xTimerCreateTimerTask+0x54>)
 8004914:	681b      	ldr	r3, [r3, #0]
 8004916:	2b00      	cmp	r3, #0
 8004918:	d00b      	beq.n	8004932 <xTimerCreateTimerTask+0x2e>
				xReturn = pdPASS;
			}
		}
		#else
		{
			xReturn = xTaskCreate(	prvTimerTask,
 800491a:	2302      	movs	r3, #2
 800491c:	9300      	str	r3, [sp, #0]
 800491e:	4b0f      	ldr	r3, [pc, #60]	; (800495c <xTimerCreateTimerTask+0x58>)
 8004920:	9301      	str	r3, [sp, #4]
 8004922:	480f      	ldr	r0, [pc, #60]	; (8004960 <xTimerCreateTimerTask+0x5c>)
 8004924:	490f      	ldr	r1, [pc, #60]	; (8004964 <xTimerCreateTimerTask+0x60>)
 8004926:	f44f 7282 	mov.w	r2, #260	; 0x104
 800492a:	2300      	movs	r3, #0
 800492c:	f7ff f84a 	bl	80039c4 <xTaskCreate>
 8004930:	6078      	str	r0, [r7, #4]
	else
	{
		mtCOVERAGE_TEST_MARKER();
	}

	configASSERT( xReturn );
 8004932:	687b      	ldr	r3, [r7, #4]
 8004934:	2b00      	cmp	r3, #0
 8004936:	d109      	bne.n	800494c <xTimerCreateTimerTask+0x48>
 8004938:	f04f 03fc 	mov.w	r3, #252	; 0xfc
 800493c:	f383 8811 	msr	BASEPRI, r3
 8004940:	f3bf 8f6f 	isb	sy
 8004944:	f3bf 8f4f 	dsb	sy
 8004948:	603b      	str	r3, [r7, #0]
 800494a:	e7fe      	b.n	800494a <xTimerCreateTimerTask+0x46>
	return xReturn;
 800494c:	687b      	ldr	r3, [r7, #4]
}
 800494e:	4618      	mov	r0, r3
 8004950:	3708      	adds	r7, #8
 8004952:	46bd      	mov	sp, r7
 8004954:	bd80      	pop	{r7, pc}
 8004956:	bf00      	nop
 8004958:	1ffe8a0c 	.word	0x1ffe8a0c
 800495c:	1ffe8a10 	.word	0x1ffe8a10
 8004960:	08004aa5 	.word	0x08004aa5
 8004964:	08005998 	.word	0x08005998

08004968 <xTimerGenericCommand>:
	}
}
/*-----------------------------------------------------------*/

BaseType_t xTimerGenericCommand( TimerHandle_t xTimer, const BaseType_t xCommandID, const TickType_t xOptionalValue, BaseType_t * const pxHigherPriorityTaskWoken, const TickType_t xTicksToWait )
{
 8004968:	b580      	push	{r7, lr}
 800496a:	b08a      	sub	sp, #40	; 0x28
 800496c:	af00      	add	r7, sp, #0
 800496e:	60f8      	str	r0, [r7, #12]
 8004970:	60b9      	str	r1, [r7, #8]
 8004972:	607a      	str	r2, [r7, #4]
 8004974:	603b      	str	r3, [r7, #0]
BaseType_t xReturn = pdFAIL;
 8004976:	2300      	movs	r3, #0
 8004978:	627b      	str	r3, [r7, #36]	; 0x24
DaemonTaskMessage_t xMessage;

	configASSERT( xTimer );
 800497a:	68fb      	ldr	r3, [r7, #12]
 800497c:	2b00      	cmp	r3, #0
 800497e:	d109      	bne.n	8004994 <xTimerGenericCommand+0x2c>
 8004980:	f04f 03fc 	mov.w	r3, #252	; 0xfc
 8004984:	f383 8811 	msr	BASEPRI, r3
 8004988:	f3bf 8f6f 	isb	sy
 800498c:	f3bf 8f4f 	dsb	sy
 8004990:	623b      	str	r3, [r7, #32]
 8004992:	e7fe      	b.n	8004992 <xTimerGenericCommand+0x2a>

	/* Send a message to the timer service task to perform a particular action
	on a particular timer definition. */
	if( xTimerQueue != NULL )
 8004994:	4b1c      	ldr	r3, [pc, #112]	; (8004a08 <xTimerGenericCommand+0xa0>)
 8004996:	681b      	ldr	r3, [r3, #0]
 8004998:	2b00      	cmp	r3, #0
 800499a:	d030      	beq.n	80049fe <xTimerGenericCommand+0x96>
	{
		/* Send a command to the timer service task to start the xTimer timer. */
		xMessage.xMessageID = xCommandID;
 800499c:	68bb      	ldr	r3, [r7, #8]
 800499e:	613b      	str	r3, [r7, #16]
		xMessage.u.xTimerParameters.xMessageValue = xOptionalValue;
 80049a0:	687b      	ldr	r3, [r7, #4]
 80049a2:	617b      	str	r3, [r7, #20]
		xMessage.u.xTimerParameters.pxTimer = xTimer;
 80049a4:	68fb      	ldr	r3, [r7, #12]
 80049a6:	61bb      	str	r3, [r7, #24]

		if( xCommandID < tmrFIRST_FROM_ISR_COMMAND )
 80049a8:	68bb      	ldr	r3, [r7, #8]
 80049aa:	2b05      	cmp	r3, #5
 80049ac:	dc1c      	bgt.n	80049e8 <xTimerGenericCommand+0x80>
		{
			if( xTaskGetSchedulerState() == taskSCHEDULER_RUNNING )
 80049ae:	f7ff fd6b 	bl	8004488 <xTaskGetSchedulerState>
 80049b2:	4603      	mov	r3, r0
 80049b4:	2b02      	cmp	r3, #2
 80049b6:	d10b      	bne.n	80049d0 <xTimerGenericCommand+0x68>
			{
				xReturn = xQueueSendToBack( xTimerQueue, &xMessage, xTicksToWait );
 80049b8:	4b13      	ldr	r3, [pc, #76]	; (8004a08 <xTimerGenericCommand+0xa0>)
 80049ba:	681a      	ldr	r2, [r3, #0]
 80049bc:	f107 0310 	add.w	r3, r7, #16
 80049c0:	4610      	mov	r0, r2
 80049c2:	4619      	mov	r1, r3
 80049c4:	6b3a      	ldr	r2, [r7, #48]	; 0x30
 80049c6:	2300      	movs	r3, #0
 80049c8:	f7fe f9c2 	bl	8002d50 <xQueueGenericSend>
 80049cc:	6278      	str	r0, [r7, #36]	; 0x24
 80049ce:	e016      	b.n	80049fe <xTimerGenericCommand+0x96>
			}
			else
			{
				xReturn = xQueueSendToBack( xTimerQueue, &xMessage, tmrNO_DELAY );
 80049d0:	4b0d      	ldr	r3, [pc, #52]	; (8004a08 <xTimerGenericCommand+0xa0>)
 80049d2:	681a      	ldr	r2, [r3, #0]
 80049d4:	f107 0310 	add.w	r3, r7, #16
 80049d8:	4610      	mov	r0, r2
 80049da:	4619      	mov	r1, r3
 80049dc:	2200      	movs	r2, #0
 80049de:	2300      	movs	r3, #0
 80049e0:	f7fe f9b6 	bl	8002d50 <xQueueGenericSend>
 80049e4:	6278      	str	r0, [r7, #36]	; 0x24
 80049e6:	e00a      	b.n	80049fe <xTimerGenericCommand+0x96>
			}
		}
		else
		{
			xReturn = xQueueSendToBackFromISR( xTimerQueue, &xMessage, pxHigherPriorityTaskWoken );
 80049e8:	4b07      	ldr	r3, [pc, #28]	; (8004a08 <xTimerGenericCommand+0xa0>)
 80049ea:	681a      	ldr	r2, [r3, #0]
 80049ec:	f107 0310 	add.w	r3, r7, #16
 80049f0:	4610      	mov	r0, r2
 80049f2:	4619      	mov	r1, r3
 80049f4:	683a      	ldr	r2, [r7, #0]
 80049f6:	2300      	movs	r3, #0
 80049f8:	f7fe fac8 	bl	8002f8c <xQueueGenericSendFromISR>
 80049fc:	6278      	str	r0, [r7, #36]	; 0x24
	else
	{
		mtCOVERAGE_TEST_MARKER();
	}

	return xReturn;
 80049fe:	6a7b      	ldr	r3, [r7, #36]	; 0x24
}
 8004a00:	4618      	mov	r0, r3
 8004a02:	3728      	adds	r7, #40	; 0x28
 8004a04:	46bd      	mov	sp, r7
 8004a06:	bd80      	pop	{r7, pc}
 8004a08:	1ffe8a0c 	.word	0x1ffe8a0c

08004a0c <prvProcessExpiredTimer>:
	return pxTimer->pcTimerName;
}
/*-----------------------------------------------------------*/

static void prvProcessExpiredTimer( const TickType_t xNextExpireTime, const TickType_t xTimeNow )
{
 8004a0c:	b580      	push	{r7, lr}
 8004a0e:	b088      	sub	sp, #32
 8004a10:	af02      	add	r7, sp, #8
 8004a12:	6078      	str	r0, [r7, #4]
 8004a14:	6039      	str	r1, [r7, #0]
BaseType_t xResult;
Timer_t * const pxTimer = ( Timer_t * ) listGET_OWNER_OF_HEAD_ENTRY( pxCurrentTimerList ); /*lint !e9087 !e9079 void * is used as this macro is used with tasks and co-routines too.  Alignment is known to be fine as the type of the pointer stored and retrieved is the same. */
 8004a16:	4b22      	ldr	r3, [pc, #136]	; (8004aa0 <prvProcessExpiredTimer+0x94>)
 8004a18:	681b      	ldr	r3, [r3, #0]
 8004a1a:	68db      	ldr	r3, [r3, #12]
 8004a1c:	68db      	ldr	r3, [r3, #12]
 8004a1e:	617b      	str	r3, [r7, #20]

	/* Remove the timer from the list of active timers.  A check has already
	been performed to ensure the list is not empty. */
	( void ) uxListRemove( &( pxTimer->xTimerListItem ) );
 8004a20:	697b      	ldr	r3, [r7, #20]
 8004a22:	3304      	adds	r3, #4
 8004a24:	4618      	mov	r0, r3
 8004a26:	f7fe f89f 	bl	8002b68 <uxListRemove>
	traceTIMER_EXPIRED( pxTimer );

	/* If the timer is an auto reload timer then calculate the next
	expiry time and re-insert the timer in the list of active timers. */
	if( ( pxTimer->ucStatus & tmrSTATUS_IS_AUTORELOAD ) != 0 )
 8004a2a:	697b      	ldr	r3, [r7, #20]
 8004a2c:	f893 3028 	ldrb.w	r3, [r3, #40]	; 0x28
 8004a30:	f003 0304 	and.w	r3, r3, #4
 8004a34:	2b00      	cmp	r3, #0
 8004a36:	d022      	beq.n	8004a7e <prvProcessExpiredTimer+0x72>
	{
		/* The timer is inserted into a list using a time relative to anything
		other than the current time.  It will therefore be inserted into the
		correct list relative to the time this task thinks it is now. */
		if( prvInsertTimerInActiveList( pxTimer, ( xNextExpireTime + pxTimer->xTimerPeriodInTicks ), xTimeNow, xNextExpireTime ) != pdFALSE )
 8004a38:	697b      	ldr	r3, [r7, #20]
 8004a3a:	699a      	ldr	r2, [r3, #24]
 8004a3c:	687b      	ldr	r3, [r7, #4]
 8004a3e:	4413      	add	r3, r2
 8004a40:	6978      	ldr	r0, [r7, #20]
 8004a42:	4619      	mov	r1, r3
 8004a44:	683a      	ldr	r2, [r7, #0]
 8004a46:	687b      	ldr	r3, [r7, #4]
 8004a48:	f000 f8d0 	bl	8004bec <prvInsertTimerInActiveList>
 8004a4c:	4603      	mov	r3, r0
 8004a4e:	2b00      	cmp	r3, #0
 8004a50:	d01e      	beq.n	8004a90 <prvProcessExpiredTimer+0x84>
		{
			/* The timer expired before it was added to the active timer
			list.  Reload it now.  */
			xResult = xTimerGenericCommand( pxTimer, tmrCOMMAND_START_DONT_TRACE, xNextExpireTime, NULL, tmrNO_DELAY );
 8004a52:	2300      	movs	r3, #0
 8004a54:	9300      	str	r3, [sp, #0]
 8004a56:	6978      	ldr	r0, [r7, #20]
 8004a58:	2100      	movs	r1, #0
 8004a5a:	687a      	ldr	r2, [r7, #4]
 8004a5c:	2300      	movs	r3, #0
 8004a5e:	f7ff ff83 	bl	8004968 <xTimerGenericCommand>
 8004a62:	6138      	str	r0, [r7, #16]
			configASSERT( xResult );
 8004a64:	693b      	ldr	r3, [r7, #16]
 8004a66:	2b00      	cmp	r3, #0
 8004a68:	d112      	bne.n	8004a90 <prvProcessExpiredTimer+0x84>
 8004a6a:	f04f 03fc 	mov.w	r3, #252	; 0xfc
 8004a6e:	f383 8811 	msr	BASEPRI, r3
 8004a72:	f3bf 8f6f 	isb	sy
 8004a76:	f3bf 8f4f 	dsb	sy
 8004a7a:	60fb      	str	r3, [r7, #12]
 8004a7c:	e7fe      	b.n	8004a7c <prvProcessExpiredTimer+0x70>
			mtCOVERAGE_TEST_MARKER();
		}
	}
	else
	{
		pxTimer->ucStatus &= ~tmrSTATUS_IS_ACTIVE;
 8004a7e:	697b      	ldr	r3, [r7, #20]
 8004a80:	f893 3028 	ldrb.w	r3, [r3, #40]	; 0x28
 8004a84:	f023 0301 	bic.w	r3, r3, #1
 8004a88:	b2da      	uxtb	r2, r3
 8004a8a:	697b      	ldr	r3, [r7, #20]
 8004a8c:	f883 2028 	strb.w	r2, [r3, #40]	; 0x28
		mtCOVERAGE_TEST_MARKER();
	}

	/* Call the timer callback. */
	pxTimer->pxCallbackFunction( ( TimerHandle_t ) pxTimer );
 8004a90:	697b      	ldr	r3, [r7, #20]
 8004a92:	6a1b      	ldr	r3, [r3, #32]
 8004a94:	6978      	ldr	r0, [r7, #20]
 8004a96:	4798      	blx	r3
}
 8004a98:	3718      	adds	r7, #24
 8004a9a:	46bd      	mov	sp, r7
 8004a9c:	bd80      	pop	{r7, pc}
 8004a9e:	bf00      	nop
 8004aa0:	1ffe8a04 	.word	0x1ffe8a04

08004aa4 <prvTimerTask>:
/*-----------------------------------------------------------*/

static portTASK_FUNCTION( prvTimerTask, pvParameters )
{
 8004aa4:	b580      	push	{r7, lr}
 8004aa6:	b084      	sub	sp, #16
 8004aa8:	af00      	add	r7, sp, #0
 8004aaa:	6078      	str	r0, [r7, #4]

	for( ;; )
	{
		/* Query the timers list to see if it contains any timers, and if so,
		obtain the time at which the next timer will expire. */
		xNextExpireTime = prvGetNextExpireTime( &xListWasEmpty );
 8004aac:	f107 0308 	add.w	r3, r7, #8
 8004ab0:	4618      	mov	r0, r3
 8004ab2:	f000 f857 	bl	8004b64 <prvGetNextExpireTime>
 8004ab6:	60f8      	str	r0, [r7, #12]

		/* If a timer has expired, process it.  Otherwise, block this task
		until either a timer does expire, or a command is received. */
		prvProcessTimerOrBlockTask( xNextExpireTime, xListWasEmpty );
 8004ab8:	68bb      	ldr	r3, [r7, #8]
 8004aba:	68f8      	ldr	r0, [r7, #12]
 8004abc:	4619      	mov	r1, r3
 8004abe:	f000 f803 	bl	8004ac8 <prvProcessTimerOrBlockTask>

		/* Empty the command queue. */
		prvProcessReceivedCommands();
 8004ac2:	f000 f8d5 	bl	8004c70 <prvProcessReceivedCommands>
	}
 8004ac6:	e7f1      	b.n	8004aac <prvTimerTask+0x8>

08004ac8 <prvProcessTimerOrBlockTask>:
}
/*-----------------------------------------------------------*/

static void prvProcessTimerOrBlockTask( const TickType_t xNextExpireTime, BaseType_t xListWasEmpty )
{
 8004ac8:	b580      	push	{r7, lr}
 8004aca:	b084      	sub	sp, #16
 8004acc:	af00      	add	r7, sp, #0
 8004ace:	6078      	str	r0, [r7, #4]
 8004ad0:	6039      	str	r1, [r7, #0]
TickType_t xTimeNow;
BaseType_t xTimerListsWereSwitched;

	vTaskSuspendAll();
 8004ad2:	f7ff f915 	bl	8003d00 <vTaskSuspendAll>
		/* Obtain the time now to make an assessment as to whether the timer
		has expired or not.  If obtaining the time causes the lists to switch
		then don't process this timer as any timers that remained in the list
		when the lists were switched will have been processed within the
		prvSampleTimeNow() function. */
		xTimeNow = prvSampleTimeNow( &xTimerListsWereSwitched );
 8004ad6:	f107 0308 	add.w	r3, r7, #8
 8004ada:	4618      	mov	r0, r3
 8004adc:	f000 f866 	bl	8004bac <prvSampleTimeNow>
 8004ae0:	60f8      	str	r0, [r7, #12]
		if( xTimerListsWereSwitched == pdFALSE )
 8004ae2:	68bb      	ldr	r3, [r7, #8]
 8004ae4:	2b00      	cmp	r3, #0
 8004ae6:	d131      	bne.n	8004b4c <prvProcessTimerOrBlockTask+0x84>
		{
			/* The tick count has not overflowed, has the timer expired? */
			if( ( xListWasEmpty == pdFALSE ) && ( xNextExpireTime <= xTimeNow ) )
 8004ae8:	683b      	ldr	r3, [r7, #0]
 8004aea:	2b00      	cmp	r3, #0
 8004aec:	d10a      	bne.n	8004b04 <prvProcessTimerOrBlockTask+0x3c>
 8004aee:	687a      	ldr	r2, [r7, #4]
 8004af0:	68fb      	ldr	r3, [r7, #12]
 8004af2:	429a      	cmp	r2, r3
 8004af4:	d806      	bhi.n	8004b04 <prvProcessTimerOrBlockTask+0x3c>
			{
				( void ) xTaskResumeAll();
 8004af6:	f7ff f911 	bl	8003d1c <xTaskResumeAll>
				prvProcessExpiredTimer( xNextExpireTime, xTimeNow );
 8004afa:	6878      	ldr	r0, [r7, #4]
 8004afc:	68f9      	ldr	r1, [r7, #12]
 8004afe:	f7ff ff85 	bl	8004a0c <prvProcessExpiredTimer>
 8004b02:	e025      	b.n	8004b50 <prvProcessTimerOrBlockTask+0x88>
				time has not been reached yet.  This task should therefore
				block to wait for the next expire time or a command to be
				received - whichever comes first.  The following line cannot
				be reached unless xNextExpireTime > xTimeNow, except in the
				case when the current timer list is empty. */
				if( xListWasEmpty != pdFALSE )
 8004b04:	683b      	ldr	r3, [r7, #0]
 8004b06:	2b00      	cmp	r3, #0
 8004b08:	d008      	beq.n	8004b1c <prvProcessTimerOrBlockTask+0x54>
				{
					/* The current timer list is empty - is the overflow list
					also empty? */
					xListWasEmpty = listLIST_IS_EMPTY( pxOverflowTimerList );
 8004b0a:	4b13      	ldr	r3, [pc, #76]	; (8004b58 <prvProcessTimerOrBlockTask+0x90>)
 8004b0c:	681b      	ldr	r3, [r3, #0]
 8004b0e:	681b      	ldr	r3, [r3, #0]
 8004b10:	2b00      	cmp	r3, #0
 8004b12:	d101      	bne.n	8004b18 <prvProcessTimerOrBlockTask+0x50>
 8004b14:	2301      	movs	r3, #1
 8004b16:	e000      	b.n	8004b1a <prvProcessTimerOrBlockTask+0x52>
 8004b18:	2300      	movs	r3, #0
 8004b1a:	603b      	str	r3, [r7, #0]
				}

				vQueueWaitForMessageRestricted( xTimerQueue, ( xNextExpireTime - xTimeNow ), xListWasEmpty );
 8004b1c:	4b0f      	ldr	r3, [pc, #60]	; (8004b5c <prvProcessTimerOrBlockTask+0x94>)
 8004b1e:	6819      	ldr	r1, [r3, #0]
 8004b20:	687a      	ldr	r2, [r7, #4]
 8004b22:	68fb      	ldr	r3, [r7, #12]
 8004b24:	1ad3      	subs	r3, r2, r3
 8004b26:	4608      	mov	r0, r1
 8004b28:	4619      	mov	r1, r3
 8004b2a:	683a      	ldr	r2, [r7, #0]
 8004b2c:	f7fe feba 	bl	80038a4 <vQueueWaitForMessageRestricted>

				if( xTaskResumeAll() == pdFALSE )
 8004b30:	f7ff f8f4 	bl	8003d1c <xTaskResumeAll>
 8004b34:	4603      	mov	r3, r0
 8004b36:	2b00      	cmp	r3, #0
 8004b38:	d10a      	bne.n	8004b50 <prvProcessTimerOrBlockTask+0x88>
				{
					/* Yield to wait for either a command to arrive, or the
					block time to expire.  If a command arrived between the
					critical section being exited and this yield then the yield
					will not cause the task to block. */
					portYIELD_WITHIN_API();
 8004b3a:	4b09      	ldr	r3, [pc, #36]	; (8004b60 <prvProcessTimerOrBlockTask+0x98>)
 8004b3c:	f04f 5280 	mov.w	r2, #268435456	; 0x10000000
 8004b40:	601a      	str	r2, [r3, #0]
 8004b42:	f3bf 8f4f 	dsb	sy
 8004b46:	f3bf 8f6f 	isb	sy
 8004b4a:	e001      	b.n	8004b50 <prvProcessTimerOrBlockTask+0x88>
				}
			}
		}
		else
		{
			( void ) xTaskResumeAll();
 8004b4c:	f7ff f8e6 	bl	8003d1c <xTaskResumeAll>
		}
	}
}
 8004b50:	3710      	adds	r7, #16
 8004b52:	46bd      	mov	sp, r7
 8004b54:	bd80      	pop	{r7, pc}
 8004b56:	bf00      	nop
 8004b58:	1ffe8a08 	.word	0x1ffe8a08
 8004b5c:	1ffe8a0c 	.word	0x1ffe8a0c
 8004b60:	e000ed04 	.word	0xe000ed04

08004b64 <prvGetNextExpireTime>:
/*-----------------------------------------------------------*/

static TickType_t prvGetNextExpireTime( BaseType_t * const pxListWasEmpty )
{
 8004b64:	b480      	push	{r7}
 8004b66:	b085      	sub	sp, #20
 8004b68:	af00      	add	r7, sp, #0
 8004b6a:	6078      	str	r0, [r7, #4]
	the timer with the nearest expiry time will expire.  If there are no
	active timers then just set the next expire time to 0.  That will cause
	this task to unblock when the tick count overflows, at which point the
	timer lists will be switched and the next expiry time can be
	re-assessed.  */
	*pxListWasEmpty = listLIST_IS_EMPTY( pxCurrentTimerList );
 8004b6c:	4b0e      	ldr	r3, [pc, #56]	; (8004ba8 <prvGetNextExpireTime+0x44>)
 8004b6e:	681b      	ldr	r3, [r3, #0]
 8004b70:	681b      	ldr	r3, [r3, #0]
 8004b72:	2b00      	cmp	r3, #0
 8004b74:	d101      	bne.n	8004b7a <prvGetNextExpireTime+0x16>
 8004b76:	2201      	movs	r2, #1
 8004b78:	e000      	b.n	8004b7c <prvGetNextExpireTime+0x18>
 8004b7a:	2200      	movs	r2, #0
 8004b7c:	687b      	ldr	r3, [r7, #4]
 8004b7e:	601a      	str	r2, [r3, #0]
	if( *pxListWasEmpty == pdFALSE )
 8004b80:	687b      	ldr	r3, [r7, #4]
 8004b82:	681b      	ldr	r3, [r3, #0]
 8004b84:	2b00      	cmp	r3, #0
 8004b86:	d105      	bne.n	8004b94 <prvGetNextExpireTime+0x30>
	{
		xNextExpireTime = listGET_ITEM_VALUE_OF_HEAD_ENTRY( pxCurrentTimerList );
 8004b88:	4b07      	ldr	r3, [pc, #28]	; (8004ba8 <prvGetNextExpireTime+0x44>)
 8004b8a:	681b      	ldr	r3, [r3, #0]
 8004b8c:	68db      	ldr	r3, [r3, #12]
 8004b8e:	681b      	ldr	r3, [r3, #0]
 8004b90:	60fb      	str	r3, [r7, #12]
 8004b92:	e001      	b.n	8004b98 <prvGetNextExpireTime+0x34>
	}
	else
	{
		/* Ensure the task unblocks when the tick count rolls over. */
		xNextExpireTime = ( TickType_t ) 0U;
 8004b94:	2300      	movs	r3, #0
 8004b96:	60fb      	str	r3, [r7, #12]
	}

	return xNextExpireTime;
 8004b98:	68fb      	ldr	r3, [r7, #12]
}
 8004b9a:	4618      	mov	r0, r3
 8004b9c:	3714      	adds	r7, #20
 8004b9e:	46bd      	mov	sp, r7
 8004ba0:	f85d 7b04 	ldr.w	r7, [sp], #4
 8004ba4:	4770      	bx	lr
 8004ba6:	bf00      	nop
 8004ba8:	1ffe8a04 	.word	0x1ffe8a04

08004bac <prvSampleTimeNow>:
/*-----------------------------------------------------------*/

static TickType_t prvSampleTimeNow( BaseType_t * const pxTimerListsWereSwitched )
{
 8004bac:	b580      	push	{r7, lr}
 8004bae:	b084      	sub	sp, #16
 8004bb0:	af00      	add	r7, sp, #0
 8004bb2:	6078      	str	r0, [r7, #4]
TickType_t xTimeNow;
PRIVILEGED_DATA static TickType_t xLastTime = ( TickType_t ) 0U; /*lint !e956 Variable is only accessible to one task. */

	xTimeNow = xTaskGetTickCount();
 8004bb4:	f7ff f950 	bl	8003e58 <xTaskGetTickCount>
 8004bb8:	60f8      	str	r0, [r7, #12]

	if( xTimeNow < xLastTime )
 8004bba:	4b0b      	ldr	r3, [pc, #44]	; (8004be8 <prvSampleTimeNow+0x3c>)
 8004bbc:	681b      	ldr	r3, [r3, #0]
 8004bbe:	68fa      	ldr	r2, [r7, #12]
 8004bc0:	429a      	cmp	r2, r3
 8004bc2:	d205      	bcs.n	8004bd0 <prvSampleTimeNow+0x24>
	{
		prvSwitchTimerLists();
 8004bc4:	f000 f936 	bl	8004e34 <prvSwitchTimerLists>
		*pxTimerListsWereSwitched = pdTRUE;
 8004bc8:	687b      	ldr	r3, [r7, #4]
 8004bca:	2201      	movs	r2, #1
 8004bcc:	601a      	str	r2, [r3, #0]
 8004bce:	e002      	b.n	8004bd6 <prvSampleTimeNow+0x2a>
	}
	else
	{
		*pxTimerListsWereSwitched = pdFALSE;
 8004bd0:	687b      	ldr	r3, [r7, #4]
 8004bd2:	2200      	movs	r2, #0
 8004bd4:	601a      	str	r2, [r3, #0]
	}

	xLastTime = xTimeNow;
 8004bd6:	4a04      	ldr	r2, [pc, #16]	; (8004be8 <prvSampleTimeNow+0x3c>)
 8004bd8:	68fb      	ldr	r3, [r7, #12]
 8004bda:	6013      	str	r3, [r2, #0]

	return xTimeNow;
 8004bdc:	68fb      	ldr	r3, [r7, #12]
}
 8004bde:	4618      	mov	r0, r3
 8004be0:	3710      	adds	r7, #16
 8004be2:	46bd      	mov	sp, r7
 8004be4:	bd80      	pop	{r7, pc}
 8004be6:	bf00      	nop
 8004be8:	1ffe8a14 	.word	0x1ffe8a14

08004bec <prvInsertTimerInActiveList>:
/*-----------------------------------------------------------*/

static BaseType_t prvInsertTimerInActiveList( Timer_t * const pxTimer, const TickType_t xNextExpiryTime, const TickType_t xTimeNow, const TickType_t xCommandTime )
{
 8004bec:	b580      	push	{r7, lr}
 8004bee:	b086      	sub	sp, #24
 8004bf0:	af00      	add	r7, sp, #0
 8004bf2:	60f8      	str	r0, [r7, #12]
 8004bf4:	60b9      	str	r1, [r7, #8]
 8004bf6:	607a      	str	r2, [r7, #4]
 8004bf8:	603b      	str	r3, [r7, #0]
BaseType_t xProcessTimerNow = pdFALSE;
 8004bfa:	2300      	movs	r3, #0
 8004bfc:	617b      	str	r3, [r7, #20]

	listSET_LIST_ITEM_VALUE( &( pxTimer->xTimerListItem ), xNextExpiryTime );
 8004bfe:	68fb      	ldr	r3, [r7, #12]
 8004c00:	68ba      	ldr	r2, [r7, #8]
 8004c02:	605a      	str	r2, [r3, #4]
	listSET_LIST_ITEM_OWNER( &( pxTimer->xTimerListItem ), pxTimer );
 8004c04:	68fb      	ldr	r3, [r7, #12]
 8004c06:	68fa      	ldr	r2, [r7, #12]
 8004c08:	611a      	str	r2, [r3, #16]

	if( xNextExpiryTime <= xTimeNow )
 8004c0a:	68ba      	ldr	r2, [r7, #8]
 8004c0c:	687b      	ldr	r3, [r7, #4]
 8004c0e:	429a      	cmp	r2, r3
 8004c10:	d812      	bhi.n	8004c38 <prvInsertTimerInActiveList+0x4c>
	{
		/* Has the expiry time elapsed between the command to start/reset a
		timer was issued, and the time the command was processed? */
		if( ( ( TickType_t ) ( xTimeNow - xCommandTime ) ) >= pxTimer->xTimerPeriodInTicks ) /*lint !e961 MISRA exception as the casts are only redundant for some ports. */
 8004c12:	687a      	ldr	r2, [r7, #4]
 8004c14:	683b      	ldr	r3, [r7, #0]
 8004c16:	1ad2      	subs	r2, r2, r3
 8004c18:	68fb      	ldr	r3, [r7, #12]
 8004c1a:	699b      	ldr	r3, [r3, #24]
 8004c1c:	429a      	cmp	r2, r3
 8004c1e:	d302      	bcc.n	8004c26 <prvInsertTimerInActiveList+0x3a>
		{
			/* The time between a command being issued and the command being
			processed actually exceeds the timers period.  */
			xProcessTimerNow = pdTRUE;
 8004c20:	2301      	movs	r3, #1
 8004c22:	617b      	str	r3, [r7, #20]
 8004c24:	e01b      	b.n	8004c5e <prvInsertTimerInActiveList+0x72>
		}
		else
		{
			vListInsert( pxOverflowTimerList, &( pxTimer->xTimerListItem ) );
 8004c26:	4b10      	ldr	r3, [pc, #64]	; (8004c68 <prvInsertTimerInActiveList+0x7c>)
 8004c28:	681a      	ldr	r2, [r3, #0]
 8004c2a:	68fb      	ldr	r3, [r7, #12]
 8004c2c:	3304      	adds	r3, #4
 8004c2e:	4610      	mov	r0, r2
 8004c30:	4619      	mov	r1, r3
 8004c32:	f7fd ff61 	bl	8002af8 <vListInsert>
 8004c36:	e012      	b.n	8004c5e <prvInsertTimerInActiveList+0x72>
		}
	}
	else
	{
		if( ( xTimeNow < xCommandTime ) && ( xNextExpiryTime >= xCommandTime ) )
 8004c38:	687a      	ldr	r2, [r7, #4]
 8004c3a:	683b      	ldr	r3, [r7, #0]
 8004c3c:	429a      	cmp	r2, r3
 8004c3e:	d206      	bcs.n	8004c4e <prvInsertTimerInActiveList+0x62>
 8004c40:	68ba      	ldr	r2, [r7, #8]
 8004c42:	683b      	ldr	r3, [r7, #0]
 8004c44:	429a      	cmp	r2, r3
 8004c46:	d302      	bcc.n	8004c4e <prvInsertTimerInActiveList+0x62>
		{
			/* If, since the command was issued, the tick count has overflowed
			but the expiry time has not, then the timer must have already passed
			its expiry time and should be processed immediately. */
			xProcessTimerNow = pdTRUE;
 8004c48:	2301      	movs	r3, #1
 8004c4a:	617b      	str	r3, [r7, #20]
 8004c4c:	e007      	b.n	8004c5e <prvInsertTimerInActiveList+0x72>
		}
		else
		{
			vListInsert( pxCurrentTimerList, &( pxTimer->xTimerListItem ) );
 8004c4e:	4b07      	ldr	r3, [pc, #28]	; (8004c6c <prvInsertTimerInActiveList+0x80>)
 8004c50:	681a      	ldr	r2, [r3, #0]
 8004c52:	68fb      	ldr	r3, [r7, #12]
 8004c54:	3304      	adds	r3, #4
 8004c56:	4610      	mov	r0, r2
 8004c58:	4619      	mov	r1, r3
 8004c5a:	f7fd ff4d 	bl	8002af8 <vListInsert>
		}
	}

	return xProcessTimerNow;
 8004c5e:	697b      	ldr	r3, [r7, #20]
}
 8004c60:	4618      	mov	r0, r3
 8004c62:	3718      	adds	r7, #24
 8004c64:	46bd      	mov	sp, r7
 8004c66:	bd80      	pop	{r7, pc}
 8004c68:	1ffe8a08 	.word	0x1ffe8a08
 8004c6c:	1ffe8a04 	.word	0x1ffe8a04

08004c70 <prvProcessReceivedCommands>:
/*-----------------------------------------------------------*/

static void	prvProcessReceivedCommands( void )
{
 8004c70:	b580      	push	{r7, lr}
 8004c72:	b08e      	sub	sp, #56	; 0x38
 8004c74:	af02      	add	r7, sp, #8
DaemonTaskMessage_t xMessage;
Timer_t *pxTimer;
BaseType_t xTimerListsWereSwitched, xResult;
TickType_t xTimeNow;

	while( xQueueReceive( xTimerQueue, &xMessage, tmrNO_DELAY ) != pdFAIL ) /*lint !e603 xMessage does not have to be initialised as it is passed out, not in, and it is not used unless xQueueReceive() returns pdTRUE. */
 8004c76:	e0cb      	b.n	8004e10 <prvProcessReceivedCommands+0x1a0>
	{
		#if ( INCLUDE_xTimerPendFunctionCall == 1 )
		{
			/* Negative commands are pended function calls rather than timer
			commands. */
			if( xMessage.xMessageID < ( BaseType_t ) 0 )
 8004c78:	687b      	ldr	r3, [r7, #4]
 8004c7a:	2b00      	cmp	r3, #0
 8004c7c:	da18      	bge.n	8004cb0 <prvProcessReceivedCommands+0x40>
			{
				const CallbackParameters_t * const pxCallback = &( xMessage.u.xCallbackParameters );
 8004c7e:	1d3b      	adds	r3, r7, #4
 8004c80:	3304      	adds	r3, #4
 8004c82:	62fb      	str	r3, [r7, #44]	; 0x2c

				/* The timer uses the xCallbackParameters member to request a
				callback be executed.  Check the callback is not NULL. */
				configASSERT( pxCallback );
 8004c84:	6afb      	ldr	r3, [r7, #44]	; 0x2c
 8004c86:	2b00      	cmp	r3, #0
 8004c88:	d109      	bne.n	8004c9e <prvProcessReceivedCommands+0x2e>
 8004c8a:	f04f 03fc 	mov.w	r3, #252	; 0xfc
 8004c8e:	f383 8811 	msr	BASEPRI, r3
 8004c92:	f3bf 8f6f 	isb	sy
 8004c96:	f3bf 8f4f 	dsb	sy
 8004c9a:	61fb      	str	r3, [r7, #28]
 8004c9c:	e7fe      	b.n	8004c9c <prvProcessReceivedCommands+0x2c>

				/* Call the function. */
				pxCallback->pxCallbackFunction( pxCallback->pvParameter1, pxCallback->ulParameter2 );
 8004c9e:	6afb      	ldr	r3, [r7, #44]	; 0x2c
 8004ca0:	681b      	ldr	r3, [r3, #0]
 8004ca2:	6afa      	ldr	r2, [r7, #44]	; 0x2c
 8004ca4:	6851      	ldr	r1, [r2, #4]
 8004ca6:	6afa      	ldr	r2, [r7, #44]	; 0x2c
 8004ca8:	6892      	ldr	r2, [r2, #8]
 8004caa:	4608      	mov	r0, r1
 8004cac:	4611      	mov	r1, r2
 8004cae:	4798      	blx	r3
		}
		#endif /* INCLUDE_xTimerPendFunctionCall */

		/* Commands that are positive are timer commands rather than pended
		function calls. */
		if( xMessage.xMessageID >= ( BaseType_t ) 0 )
 8004cb0:	687b      	ldr	r3, [r7, #4]
 8004cb2:	2b00      	cmp	r3, #0
 8004cb4:	f2c0 80ac 	blt.w	8004e10 <prvProcessReceivedCommands+0x1a0>
		{
			/* The messages uses the xTimerParameters member to work on a
			software timer. */
			pxTimer = xMessage.u.xTimerParameters.pxTimer;
 8004cb8:	68fb      	ldr	r3, [r7, #12]
 8004cba:	62bb      	str	r3, [r7, #40]	; 0x28

			if( listIS_CONTAINED_WITHIN( NULL, &( pxTimer->xTimerListItem ) ) == pdFALSE ) /*lint !e961. The cast is only redundant when NULL is passed into the macro. */
 8004cbc:	6abb      	ldr	r3, [r7, #40]	; 0x28
 8004cbe:	695b      	ldr	r3, [r3, #20]
 8004cc0:	2b00      	cmp	r3, #0
 8004cc2:	d004      	beq.n	8004cce <prvProcessReceivedCommands+0x5e>
			{
				/* The timer is in a list, remove it. */
				( void ) uxListRemove( &( pxTimer->xTimerListItem ) );
 8004cc4:	6abb      	ldr	r3, [r7, #40]	; 0x28
 8004cc6:	3304      	adds	r3, #4
 8004cc8:	4618      	mov	r0, r3
 8004cca:	f7fd ff4d 	bl	8002b68 <uxListRemove>
			it must be present in the function call.  prvSampleTimeNow() must be
			called after the message is received from xTimerQueue so there is no
			possibility of a higher priority task adding a message to the message
			queue with a time that is ahead of the timer daemon task (because it
			pre-empted the timer daemon task after the xTimeNow value was set). */
			xTimeNow = prvSampleTimeNow( &xTimerListsWereSwitched );
 8004cce:	463b      	mov	r3, r7
 8004cd0:	4618      	mov	r0, r3
 8004cd2:	f7ff ff6b 	bl	8004bac <prvSampleTimeNow>
 8004cd6:	6278      	str	r0, [r7, #36]	; 0x24

			switch( xMessage.xMessageID )
 8004cd8:	687b      	ldr	r3, [r7, #4]
 8004cda:	2b09      	cmp	r3, #9
 8004cdc:	f200 8097 	bhi.w	8004e0e <prvProcessReceivedCommands+0x19e>
 8004ce0:	a201      	add	r2, pc, #4	; (adr r2, 8004ce8 <prvProcessReceivedCommands+0x78>)
 8004ce2:	f852 f023 	ldr.w	pc, [r2, r3, lsl #2]
 8004ce6:	bf00      	nop
 8004ce8:	08004d11 	.word	0x08004d11
 8004cec:	08004d11 	.word	0x08004d11
 8004cf0:	08004d11 	.word	0x08004d11
 8004cf4:	08004d87 	.word	0x08004d87
 8004cf8:	08004d9b 	.word	0x08004d9b
 8004cfc:	08004de5 	.word	0x08004de5
 8004d00:	08004d11 	.word	0x08004d11
 8004d04:	08004d11 	.word	0x08004d11
 8004d08:	08004d87 	.word	0x08004d87
 8004d0c:	08004d9b 	.word	0x08004d9b
				case tmrCOMMAND_START_FROM_ISR :
				case tmrCOMMAND_RESET :
				case tmrCOMMAND_RESET_FROM_ISR :
				case tmrCOMMAND_START_DONT_TRACE :
					/* Start or restart a timer. */
					pxTimer->ucStatus |= tmrSTATUS_IS_ACTIVE;
 8004d10:	6abb      	ldr	r3, [r7, #40]	; 0x28
 8004d12:	f893 3028 	ldrb.w	r3, [r3, #40]	; 0x28
 8004d16:	f043 0301 	orr.w	r3, r3, #1
 8004d1a:	b2da      	uxtb	r2, r3
 8004d1c:	6abb      	ldr	r3, [r7, #40]	; 0x28
 8004d1e:	f883 2028 	strb.w	r2, [r3, #40]	; 0x28
					if( prvInsertTimerInActiveList( pxTimer,  xMessage.u.xTimerParameters.xMessageValue + pxTimer->xTimerPeriodInTicks, xTimeNow, xMessage.u.xTimerParameters.xMessageValue ) != pdFALSE )
 8004d22:	68ba      	ldr	r2, [r7, #8]
 8004d24:	6abb      	ldr	r3, [r7, #40]	; 0x28
 8004d26:	699b      	ldr	r3, [r3, #24]
 8004d28:	441a      	add	r2, r3
 8004d2a:	68bb      	ldr	r3, [r7, #8]
 8004d2c:	6ab8      	ldr	r0, [r7, #40]	; 0x28
 8004d2e:	4611      	mov	r1, r2
 8004d30:	6a7a      	ldr	r2, [r7, #36]	; 0x24
 8004d32:	f7ff ff5b 	bl	8004bec <prvInsertTimerInActiveList>
 8004d36:	4603      	mov	r3, r0
 8004d38:	2b00      	cmp	r3, #0
 8004d3a:	d023      	beq.n	8004d84 <prvProcessReceivedCommands+0x114>
					{
						/* The timer expired before it was added to the active
						timer list.  Process it now. */
						pxTimer->pxCallbackFunction( ( TimerHandle_t ) pxTimer );
 8004d3c:	6abb      	ldr	r3, [r7, #40]	; 0x28
 8004d3e:	6a1b      	ldr	r3, [r3, #32]
 8004d40:	6ab8      	ldr	r0, [r7, #40]	; 0x28
 8004d42:	4798      	blx	r3
						traceTIMER_EXPIRED( pxTimer );

						if( ( pxTimer->ucStatus & tmrSTATUS_IS_AUTORELOAD ) != 0 )
 8004d44:	6abb      	ldr	r3, [r7, #40]	; 0x28
 8004d46:	f893 3028 	ldrb.w	r3, [r3, #40]	; 0x28
 8004d4a:	f003 0304 	and.w	r3, r3, #4
 8004d4e:	2b00      	cmp	r3, #0
 8004d50:	d018      	beq.n	8004d84 <prvProcessReceivedCommands+0x114>
						{
							xResult = xTimerGenericCommand( pxTimer, tmrCOMMAND_START_DONT_TRACE, xMessage.u.xTimerParameters.xMessageValue + pxTimer->xTimerPeriodInTicks, NULL, tmrNO_DELAY );
 8004d52:	68ba      	ldr	r2, [r7, #8]
 8004d54:	6abb      	ldr	r3, [r7, #40]	; 0x28
 8004d56:	699b      	ldr	r3, [r3, #24]
 8004d58:	441a      	add	r2, r3
 8004d5a:	2300      	movs	r3, #0
 8004d5c:	9300      	str	r3, [sp, #0]
 8004d5e:	6ab8      	ldr	r0, [r7, #40]	; 0x28
 8004d60:	2100      	movs	r1, #0
 8004d62:	2300      	movs	r3, #0
 8004d64:	f7ff fe00 	bl	8004968 <xTimerGenericCommand>
 8004d68:	6238      	str	r0, [r7, #32]
							configASSERT( xResult );
 8004d6a:	6a3b      	ldr	r3, [r7, #32]
 8004d6c:	2b00      	cmp	r3, #0
 8004d6e:	d109      	bne.n	8004d84 <prvProcessReceivedCommands+0x114>
 8004d70:	f04f 03fc 	mov.w	r3, #252	; 0xfc
 8004d74:	f383 8811 	msr	BASEPRI, r3
 8004d78:	f3bf 8f6f 	isb	sy
 8004d7c:	f3bf 8f4f 	dsb	sy
 8004d80:	61bb      	str	r3, [r7, #24]
 8004d82:	e7fe      	b.n	8004d82 <prvProcessReceivedCommands+0x112>
					}
					else
					{
						mtCOVERAGE_TEST_MARKER();
					}
					break;
 8004d84:	e044      	b.n	8004e10 <prvProcessReceivedCommands+0x1a0>

				case tmrCOMMAND_STOP :
				case tmrCOMMAND_STOP_FROM_ISR :
					/* The timer has already been removed from the active list. */
					pxTimer->ucStatus &= ~tmrSTATUS_IS_ACTIVE;
 8004d86:	6abb      	ldr	r3, [r7, #40]	; 0x28
 8004d88:	f893 3028 	ldrb.w	r3, [r3, #40]	; 0x28
 8004d8c:	f023 0301 	bic.w	r3, r3, #1
 8004d90:	b2da      	uxtb	r2, r3
 8004d92:	6abb      	ldr	r3, [r7, #40]	; 0x28
 8004d94:	f883 2028 	strb.w	r2, [r3, #40]	; 0x28
					break;
 8004d98:	e03a      	b.n	8004e10 <prvProcessReceivedCommands+0x1a0>

				case tmrCOMMAND_CHANGE_PERIOD :
				case tmrCOMMAND_CHANGE_PERIOD_FROM_ISR :
					pxTimer->ucStatus |= tmrSTATUS_IS_ACTIVE;
 8004d9a:	6abb      	ldr	r3, [r7, #40]	; 0x28
 8004d9c:	f893 3028 	ldrb.w	r3, [r3, #40]	; 0x28
 8004da0:	f043 0301 	orr.w	r3, r3, #1
 8004da4:	b2da      	uxtb	r2, r3
 8004da6:	6abb      	ldr	r3, [r7, #40]	; 0x28
 8004da8:	f883 2028 	strb.w	r2, [r3, #40]	; 0x28
					pxTimer->xTimerPeriodInTicks = xMessage.u.xTimerParameters.xMessageValue;
 8004dac:	68ba      	ldr	r2, [r7, #8]
 8004dae:	6abb      	ldr	r3, [r7, #40]	; 0x28
 8004db0:	619a      	str	r2, [r3, #24]
					configASSERT( ( pxTimer->xTimerPeriodInTicks > 0 ) );
 8004db2:	6abb      	ldr	r3, [r7, #40]	; 0x28
 8004db4:	699b      	ldr	r3, [r3, #24]
 8004db6:	2b00      	cmp	r3, #0
 8004db8:	d109      	bne.n	8004dce <prvProcessReceivedCommands+0x15e>
 8004dba:	f04f 03fc 	mov.w	r3, #252	; 0xfc
 8004dbe:	f383 8811 	msr	BASEPRI, r3
 8004dc2:	f3bf 8f6f 	isb	sy
 8004dc6:	f3bf 8f4f 	dsb	sy
 8004dca:	617b      	str	r3, [r7, #20]
 8004dcc:	e7fe      	b.n	8004dcc <prvProcessReceivedCommands+0x15c>
					be longer or shorter than the old one.  The command time is
					therefore set to the current time, and as the period cannot
					be zero the next expiry time can only be in the future,
					meaning (unlike for the xTimerStart() case above) there is
					no fail case that needs to be handled here. */
					( void ) prvInsertTimerInActiveList( pxTimer, ( xTimeNow + pxTimer->xTimerPeriodInTicks ), xTimeNow, xTimeNow );
 8004dce:	6abb      	ldr	r3, [r7, #40]	; 0x28
 8004dd0:	699a      	ldr	r2, [r3, #24]
 8004dd2:	6a7b      	ldr	r3, [r7, #36]	; 0x24
 8004dd4:	4413      	add	r3, r2
 8004dd6:	6ab8      	ldr	r0, [r7, #40]	; 0x28
 8004dd8:	4619      	mov	r1, r3
 8004dda:	6a7a      	ldr	r2, [r7, #36]	; 0x24
 8004ddc:	6a7b      	ldr	r3, [r7, #36]	; 0x24
 8004dde:	f7ff ff05 	bl	8004bec <prvInsertTimerInActiveList>
					break;
 8004de2:	e015      	b.n	8004e10 <prvProcessReceivedCommands+0x1a0>
					#if ( configSUPPORT_DYNAMIC_ALLOCATION == 1 )
					{
						/* The timer has already been removed from the active list,
						just free up the memory if the memory was dynamically
						allocated. */
						if( ( pxTimer->ucStatus & tmrSTATUS_IS_STATICALLY_ALLOCATED ) == ( uint8_t ) 0 )
 8004de4:	6abb      	ldr	r3, [r7, #40]	; 0x28
 8004de6:	f893 3028 	ldrb.w	r3, [r3, #40]	; 0x28
 8004dea:	f003 0302 	and.w	r3, r3, #2
 8004dee:	2b00      	cmp	r3, #0
 8004df0:	d103      	bne.n	8004dfa <prvProcessReceivedCommands+0x18a>
						{
							vPortFree( pxTimer );
 8004df2:	6ab8      	ldr	r0, [r7, #40]	; 0x28
 8004df4:	f7fd fe1e 	bl	8002a34 <vPortFree>
 8004df8:	e008      	b.n	8004e0c <prvProcessReceivedCommands+0x19c>
						}
						else
						{
							pxTimer->ucStatus &= ~tmrSTATUS_IS_ACTIVE;
 8004dfa:	6abb      	ldr	r3, [r7, #40]	; 0x28
 8004dfc:	f893 3028 	ldrb.w	r3, [r3, #40]	; 0x28
 8004e00:	f023 0301 	bic.w	r3, r3, #1
 8004e04:	b2da      	uxtb	r2, r3
 8004e06:	6abb      	ldr	r3, [r7, #40]	; 0x28
 8004e08:	f883 2028 	strb.w	r2, [r3, #40]	; 0x28
						no need to free the memory - just mark the timer as
						"not active". */
						pxTimer->ucStatus &= ~tmrSTATUS_IS_ACTIVE;
					}
					#endif /* configSUPPORT_DYNAMIC_ALLOCATION */
					break;
 8004e0c:	e000      	b.n	8004e10 <prvProcessReceivedCommands+0x1a0>

				default	:
					/* Don't expect to get here. */
					break;
 8004e0e:	bf00      	nop
DaemonTaskMessage_t xMessage;
Timer_t *pxTimer;
BaseType_t xTimerListsWereSwitched, xResult;
TickType_t xTimeNow;

	while( xQueueReceive( xTimerQueue, &xMessage, tmrNO_DELAY ) != pdFAIL ) /*lint !e603 xMessage does not have to be initialised as it is passed out, not in, and it is not used unless xQueueReceive() returns pdTRUE. */
 8004e10:	4b07      	ldr	r3, [pc, #28]	; (8004e30 <prvProcessReceivedCommands+0x1c0>)
 8004e12:	681a      	ldr	r2, [r3, #0]
 8004e14:	1d3b      	adds	r3, r7, #4
 8004e16:	4610      	mov	r0, r2
 8004e18:	4619      	mov	r1, r3
 8004e1a:	2200      	movs	r2, #0
 8004e1c:	f7fe f9f8 	bl	8003210 <xQueueReceive>
 8004e20:	4603      	mov	r3, r0
 8004e22:	2b00      	cmp	r3, #0
 8004e24:	f47f af28 	bne.w	8004c78 <prvProcessReceivedCommands+0x8>
					/* Don't expect to get here. */
					break;
			}
		}
	}
}
 8004e28:	3730      	adds	r7, #48	; 0x30
 8004e2a:	46bd      	mov	sp, r7
 8004e2c:	bd80      	pop	{r7, pc}
 8004e2e:	bf00      	nop
 8004e30:	1ffe8a0c 	.word	0x1ffe8a0c

08004e34 <prvSwitchTimerLists>:
/*-----------------------------------------------------------*/

static void prvSwitchTimerLists( void )
{
 8004e34:	b580      	push	{r7, lr}
 8004e36:	b088      	sub	sp, #32
 8004e38:	af02      	add	r7, sp, #8

	/* The tick count has overflowed.  The timer lists must be switched.
	If there are any timers still referenced from the current timer list
	then they must have expired and should be processed before the lists
	are switched. */
	while( listLIST_IS_EMPTY( pxCurrentTimerList ) == pdFALSE )
 8004e3a:	e047      	b.n	8004ecc <prvSwitchTimerLists+0x98>
	{
		xNextExpireTime = listGET_ITEM_VALUE_OF_HEAD_ENTRY( pxCurrentTimerList );
 8004e3c:	4b2c      	ldr	r3, [pc, #176]	; (8004ef0 <prvSwitchTimerLists+0xbc>)
 8004e3e:	681b      	ldr	r3, [r3, #0]
 8004e40:	68db      	ldr	r3, [r3, #12]
 8004e42:	681b      	ldr	r3, [r3, #0]
 8004e44:	617b      	str	r3, [r7, #20]

		/* Remove the timer from the list. */
		pxTimer = ( Timer_t * ) listGET_OWNER_OF_HEAD_ENTRY( pxCurrentTimerList ); /*lint !e9087 !e9079 void * is used as this macro is used with tasks and co-routines too.  Alignment is known to be fine as the type of the pointer stored and retrieved is the same. */
 8004e46:	4b2a      	ldr	r3, [pc, #168]	; (8004ef0 <prvSwitchTimerLists+0xbc>)
 8004e48:	681b      	ldr	r3, [r3, #0]
 8004e4a:	68db      	ldr	r3, [r3, #12]
 8004e4c:	68db      	ldr	r3, [r3, #12]
 8004e4e:	613b      	str	r3, [r7, #16]
		( void ) uxListRemove( &( pxTimer->xTimerListItem ) );
 8004e50:	693b      	ldr	r3, [r7, #16]
 8004e52:	3304      	adds	r3, #4
 8004e54:	4618      	mov	r0, r3
 8004e56:	f7fd fe87 	bl	8002b68 <uxListRemove>
		traceTIMER_EXPIRED( pxTimer );

		/* Execute its callback, then send a command to restart the timer if
		it is an auto-reload timer.  It cannot be restarted here as the lists
		have not yet been switched. */
		pxTimer->pxCallbackFunction( ( TimerHandle_t ) pxTimer );
 8004e5a:	693b      	ldr	r3, [r7, #16]
 8004e5c:	6a1b      	ldr	r3, [r3, #32]
 8004e5e:	6938      	ldr	r0, [r7, #16]
 8004e60:	4798      	blx	r3

		if( ( pxTimer->ucStatus & tmrSTATUS_IS_AUTORELOAD ) != 0 )
 8004e62:	693b      	ldr	r3, [r7, #16]
 8004e64:	f893 3028 	ldrb.w	r3, [r3, #40]	; 0x28
 8004e68:	f003 0304 	and.w	r3, r3, #4
 8004e6c:	2b00      	cmp	r3, #0
 8004e6e:	d02d      	beq.n	8004ecc <prvSwitchTimerLists+0x98>
			the timer going into the same timer list then it has already expired
			and the timer should be re-inserted into the current list so it is
			processed again within this loop.  Otherwise a command should be sent
			to restart the timer to ensure it is only inserted into a list after
			the lists have been swapped. */
			xReloadTime = ( xNextExpireTime + pxTimer->xTimerPeriodInTicks );
 8004e70:	693b      	ldr	r3, [r7, #16]
 8004e72:	699a      	ldr	r2, [r3, #24]
 8004e74:	697b      	ldr	r3, [r7, #20]
 8004e76:	4413      	add	r3, r2
 8004e78:	60fb      	str	r3, [r7, #12]
			if( xReloadTime > xNextExpireTime )
 8004e7a:	68fa      	ldr	r2, [r7, #12]
 8004e7c:	697b      	ldr	r3, [r7, #20]
 8004e7e:	429a      	cmp	r2, r3
 8004e80:	d90e      	bls.n	8004ea0 <prvSwitchTimerLists+0x6c>
			{
				listSET_LIST_ITEM_VALUE( &( pxTimer->xTimerListItem ), xReloadTime );
 8004e82:	693b      	ldr	r3, [r7, #16]
 8004e84:	68fa      	ldr	r2, [r7, #12]
 8004e86:	605a      	str	r2, [r3, #4]
				listSET_LIST_ITEM_OWNER( &( pxTimer->xTimerListItem ), pxTimer );
 8004e88:	693b      	ldr	r3, [r7, #16]
 8004e8a:	693a      	ldr	r2, [r7, #16]
 8004e8c:	611a      	str	r2, [r3, #16]
				vListInsert( pxCurrentTimerList, &( pxTimer->xTimerListItem ) );
 8004e8e:	4b18      	ldr	r3, [pc, #96]	; (8004ef0 <prvSwitchTimerLists+0xbc>)
 8004e90:	681a      	ldr	r2, [r3, #0]
 8004e92:	693b      	ldr	r3, [r7, #16]
 8004e94:	3304      	adds	r3, #4
 8004e96:	4610      	mov	r0, r2
 8004e98:	4619      	mov	r1, r3
 8004e9a:	f7fd fe2d 	bl	8002af8 <vListInsert>
 8004e9e:	e015      	b.n	8004ecc <prvSwitchTimerLists+0x98>
			}
			else
			{
				xResult = xTimerGenericCommand( pxTimer, tmrCOMMAND_START_DONT_TRACE, xNextExpireTime, NULL, tmrNO_DELAY );
 8004ea0:	2300      	movs	r3, #0
 8004ea2:	9300      	str	r3, [sp, #0]
 8004ea4:	6938      	ldr	r0, [r7, #16]
 8004ea6:	2100      	movs	r1, #0
 8004ea8:	697a      	ldr	r2, [r7, #20]
 8004eaa:	2300      	movs	r3, #0
 8004eac:	f7ff fd5c 	bl	8004968 <xTimerGenericCommand>
 8004eb0:	60b8      	str	r0, [r7, #8]
				configASSERT( xResult );
 8004eb2:	68bb      	ldr	r3, [r7, #8]
 8004eb4:	2b00      	cmp	r3, #0
 8004eb6:	d109      	bne.n	8004ecc <prvSwitchTimerLists+0x98>
 8004eb8:	f04f 03fc 	mov.w	r3, #252	; 0xfc
 8004ebc:	f383 8811 	msr	BASEPRI, r3
 8004ec0:	f3bf 8f6f 	isb	sy
 8004ec4:	f3bf 8f4f 	dsb	sy
 8004ec8:	603b      	str	r3, [r7, #0]
 8004eca:	e7fe      	b.n	8004eca <prvSwitchTimerLists+0x96>

	/* The tick count has overflowed.  The timer lists must be switched.
	If there are any timers still referenced from the current timer list
	then they must have expired and should be processed before the lists
	are switched. */
	while( listLIST_IS_EMPTY( pxCurrentTimerList ) == pdFALSE )
 8004ecc:	4b08      	ldr	r3, [pc, #32]	; (8004ef0 <prvSwitchTimerLists+0xbc>)
 8004ece:	681b      	ldr	r3, [r3, #0]
 8004ed0:	681b      	ldr	r3, [r3, #0]
 8004ed2:	2b00      	cmp	r3, #0
 8004ed4:	d1b2      	bne.n	8004e3c <prvSwitchTimerLists+0x8>
		{
			mtCOVERAGE_TEST_MARKER();
		}
	}

	pxTemp = pxCurrentTimerList;
 8004ed6:	4b06      	ldr	r3, [pc, #24]	; (8004ef0 <prvSwitchTimerLists+0xbc>)
 8004ed8:	681b      	ldr	r3, [r3, #0]
 8004eda:	607b      	str	r3, [r7, #4]
	pxCurrentTimerList = pxOverflowTimerList;
 8004edc:	4b05      	ldr	r3, [pc, #20]	; (8004ef4 <prvSwitchTimerLists+0xc0>)
 8004ede:	681b      	ldr	r3, [r3, #0]
 8004ee0:	4a03      	ldr	r2, [pc, #12]	; (8004ef0 <prvSwitchTimerLists+0xbc>)
 8004ee2:	6013      	str	r3, [r2, #0]
	pxOverflowTimerList = pxTemp;
 8004ee4:	4a03      	ldr	r2, [pc, #12]	; (8004ef4 <prvSwitchTimerLists+0xc0>)
 8004ee6:	687b      	ldr	r3, [r7, #4]
 8004ee8:	6013      	str	r3, [r2, #0]
}
 8004eea:	3718      	adds	r7, #24
 8004eec:	46bd      	mov	sp, r7
 8004eee:	bd80      	pop	{r7, pc}
 8004ef0:	1ffe8a04 	.word	0x1ffe8a04
 8004ef4:	1ffe8a08 	.word	0x1ffe8a08

08004ef8 <prvCheckForValidListAndQueue>:
/*-----------------------------------------------------------*/

static void prvCheckForValidListAndQueue( void )
{
 8004ef8:	b580      	push	{r7, lr}
 8004efa:	af00      	add	r7, sp, #0
	/* Check that the list from which active timers are referenced, and the
	queue used to communicate with the timer service, have been
	initialised. */
	taskENTER_CRITICAL();
 8004efc:	f7fd fc72 	bl	80027e4 <vPortEnterCritical>
	{
		if( xTimerQueue == NULL )
 8004f00:	4b12      	ldr	r3, [pc, #72]	; (8004f4c <prvCheckForValidListAndQueue+0x54>)
 8004f02:	681b      	ldr	r3, [r3, #0]
 8004f04:	2b00      	cmp	r3, #0
 8004f06:	d11d      	bne.n	8004f44 <prvCheckForValidListAndQueue+0x4c>
		{
			vListInitialise( &xActiveTimerList1 );
 8004f08:	4811      	ldr	r0, [pc, #68]	; (8004f50 <prvCheckForValidListAndQueue+0x58>)
 8004f0a:	f7fd fda5 	bl	8002a58 <vListInitialise>
			vListInitialise( &xActiveTimerList2 );
 8004f0e:	4811      	ldr	r0, [pc, #68]	; (8004f54 <prvCheckForValidListAndQueue+0x5c>)
 8004f10:	f7fd fda2 	bl	8002a58 <vListInitialise>
			pxCurrentTimerList = &xActiveTimerList1;
 8004f14:	4b10      	ldr	r3, [pc, #64]	; (8004f58 <prvCheckForValidListAndQueue+0x60>)
 8004f16:	4a0e      	ldr	r2, [pc, #56]	; (8004f50 <prvCheckForValidListAndQueue+0x58>)
 8004f18:	601a      	str	r2, [r3, #0]
			pxOverflowTimerList = &xActiveTimerList2;
 8004f1a:	4b10      	ldr	r3, [pc, #64]	; (8004f5c <prvCheckForValidListAndQueue+0x64>)
 8004f1c:	4a0d      	ldr	r2, [pc, #52]	; (8004f54 <prvCheckForValidListAndQueue+0x5c>)
 8004f1e:	601a      	str	r2, [r3, #0]

				xTimerQueue = xQueueCreateStatic( ( UBaseType_t ) configTIMER_QUEUE_LENGTH, ( UBaseType_t ) sizeof( DaemonTaskMessage_t ), &( ucStaticTimerQueueStorage[ 0 ] ), &xStaticTimerQueue );
			}
			#else
			{
				xTimerQueue = xQueueCreate( ( UBaseType_t ) configTIMER_QUEUE_LENGTH, sizeof( DaemonTaskMessage_t ) );
 8004f20:	2005      	movs	r0, #5
 8004f22:	2110      	movs	r1, #16
 8004f24:	2200      	movs	r2, #0
 8004f26:	f7fd feb1 	bl	8002c8c <xQueueGenericCreate>
 8004f2a:	4602      	mov	r2, r0
 8004f2c:	4b07      	ldr	r3, [pc, #28]	; (8004f4c <prvCheckForValidListAndQueue+0x54>)
 8004f2e:	601a      	str	r2, [r3, #0]
			}
			#endif

			#if ( configQUEUE_REGISTRY_SIZE > 0 )
			{
				if( xTimerQueue != NULL )
 8004f30:	4b06      	ldr	r3, [pc, #24]	; (8004f4c <prvCheckForValidListAndQueue+0x54>)
 8004f32:	681b      	ldr	r3, [r3, #0]
 8004f34:	2b00      	cmp	r3, #0
 8004f36:	d005      	beq.n	8004f44 <prvCheckForValidListAndQueue+0x4c>
				{
					vQueueAddToRegistry( xTimerQueue, "TmrQ" );
 8004f38:	4b04      	ldr	r3, [pc, #16]	; (8004f4c <prvCheckForValidListAndQueue+0x54>)
 8004f3a:	681b      	ldr	r3, [r3, #0]
 8004f3c:	4618      	mov	r0, r3
 8004f3e:	4908      	ldr	r1, [pc, #32]	; (8004f60 <prvCheckForValidListAndQueue+0x68>)
 8004f40:	f7fe fc88 	bl	8003854 <vQueueAddToRegistry>
		else
		{
			mtCOVERAGE_TEST_MARKER();
		}
	}
	taskEXIT_CRITICAL();
 8004f44:	f7fd fc7c 	bl	8002840 <vPortExitCritical>
}
 8004f48:	bd80      	pop	{r7, pc}
 8004f4a:	bf00      	nop
 8004f4c:	1ffe8a0c 	.word	0x1ffe8a0c
 8004f50:	1ffe89dc 	.word	0x1ffe89dc
 8004f54:	1ffe89f0 	.word	0x1ffe89f0
 8004f58:	1ffe8a04 	.word	0x1ffe8a04
 8004f5c:	1ffe8a08 	.word	0x1ffe8a08
 8004f60:	080059a0 	.word	0x080059a0

08004f64 <DIGITAL_IO_Init>:
* @param handler Pointer pointing to APP data structure.
* @return DIGITAL_IO_STATUS_t DIGITAL_IO APP status.
*/

DIGITAL_IO_STATUS_t DIGITAL_IO_Init(const DIGITAL_IO_t *const handler)
{
 8004f64:	b580      	push	{r7, lr}
 8004f66:	b082      	sub	sp, #8
 8004f68:	af00      	add	r7, sp, #0
 8004f6a:	6078      	str	r0, [r7, #4]
  XMC_ASSERT("DIGITAL_IO_Init: handler null pointer", handler != NULL);

  /* Initializes input / output characteristics */
  XMC_GPIO_Init(handler->gpio_port, handler->gpio_pin, &handler->gpio_config);
 8004f6c:	687b      	ldr	r3, [r7, #4]
 8004f6e:	6819      	ldr	r1, [r3, #0]
 8004f70:	687b      	ldr	r3, [r7, #4]
 8004f72:	7c1a      	ldrb	r2, [r3, #16]
 8004f74:	687b      	ldr	r3, [r7, #4]
 8004f76:	3304      	adds	r3, #4
 8004f78:	4608      	mov	r0, r1
 8004f7a:	4611      	mov	r1, r2
 8004f7c:	461a      	mov	r2, r3
 8004f7e:	f7fb fa77 	bl	8000470 <XMC_GPIO_Init>

  /*Configure hardware port control*/
  XMC_GPIO_SetHardwareControl(handler->gpio_port, handler->gpio_pin, handler->hwctrl);
 8004f82:	687b      	ldr	r3, [r7, #4]
 8004f84:	6819      	ldr	r1, [r3, #0]
 8004f86:	687b      	ldr	r3, [r7, #4]
 8004f88:	7c1a      	ldrb	r2, [r3, #16]
 8004f8a:	687b      	ldr	r3, [r7, #4]
 8004f8c:	7c5b      	ldrb	r3, [r3, #17]
 8004f8e:	4608      	mov	r0, r1
 8004f90:	4611      	mov	r1, r2
 8004f92:	461a      	mov	r2, r3
 8004f94:	f7fb ffd6 	bl	8000f44 <XMC_GPIO_SetHardwareControl>

  return (DIGITAL_IO_STATUS_OK);
 8004f98:	2300      	movs	r3, #0
}
 8004f9a:	4618      	mov	r0, r3
 8004f9c:	3708      	adds	r7, #8
 8004f9e:	46bd      	mov	sp, r7
 8004fa0:	bd80      	pop	{r7, pc}
 8004fa2:	bf00      	nop

08004fa4 <__NVIC_SetPriorityGrouping>:
           In case of a conflict between priority grouping and available
           priority bits (__NVIC_PRIO_BITS), the smallest possible priority group is set.
  \param [in]      PriorityGroup  Priority grouping field.
 */
__STATIC_INLINE void __NVIC_SetPriorityGrouping(uint32_t PriorityGroup)
{
 8004fa4:	b480      	push	{r7}
 8004fa6:	b085      	sub	sp, #20
 8004fa8:	af00      	add	r7, sp, #0
 8004faa:	6078      	str	r0, [r7, #4]
  uint32_t reg_value;
  uint32_t PriorityGroupTmp = (PriorityGroup & (uint32_t)0x07UL);             /* only values 0..7 are used          */
 8004fac:	687b      	ldr	r3, [r7, #4]
 8004fae:	f003 0307 	and.w	r3, r3, #7
 8004fb2:	60fb      	str	r3, [r7, #12]

  reg_value  =  SCB->AIRCR;                                                   /* read old register configuration    */
 8004fb4:	4b0c      	ldr	r3, [pc, #48]	; (8004fe8 <__NVIC_SetPriorityGrouping+0x44>)
 8004fb6:	68db      	ldr	r3, [r3, #12]
 8004fb8:	60bb      	str	r3, [r7, #8]
  reg_value &= ~((uint32_t)(SCB_AIRCR_VECTKEY_Msk | SCB_AIRCR_PRIGROUP_Msk)); /* clear bits to change               */
 8004fba:	68ba      	ldr	r2, [r7, #8]
 8004fbc:	f64f 03ff 	movw	r3, #63743	; 0xf8ff
 8004fc0:	4013      	ands	r3, r2
 8004fc2:	60bb      	str	r3, [r7, #8]
  reg_value  =  (reg_value                                   |
                ((uint32_t)0x5FAUL << SCB_AIRCR_VECTKEY_Pos) |
                (PriorityGroupTmp << SCB_AIRCR_PRIGROUP_Pos)  );              /* Insert write key and priority group */
 8004fc4:	68fb      	ldr	r3, [r7, #12]
 8004fc6:	021a      	lsls	r2, r3, #8
  uint32_t PriorityGroupTmp = (PriorityGroup & (uint32_t)0x07UL);             /* only values 0..7 are used          */

  reg_value  =  SCB->AIRCR;                                                   /* read old register configuration    */
  reg_value &= ~((uint32_t)(SCB_AIRCR_VECTKEY_Msk | SCB_AIRCR_PRIGROUP_Msk)); /* clear bits to change               */
  reg_value  =  (reg_value                                   |
                ((uint32_t)0x5FAUL << SCB_AIRCR_VECTKEY_Pos) |
 8004fc8:	68bb      	ldr	r3, [r7, #8]
 8004fca:	4313      	orrs	r3, r2
  uint32_t reg_value;
  uint32_t PriorityGroupTmp = (PriorityGroup & (uint32_t)0x07UL);             /* only values 0..7 are used          */

  reg_value  =  SCB->AIRCR;                                                   /* read old register configuration    */
  reg_value &= ~((uint32_t)(SCB_AIRCR_VECTKEY_Msk | SCB_AIRCR_PRIGROUP_Msk)); /* clear bits to change               */
  reg_value  =  (reg_value                                   |
 8004fcc:	f043 63bf 	orr.w	r3, r3, #100139008	; 0x5f80000
 8004fd0:	f443 3300 	orr.w	r3, r3, #131072	; 0x20000
 8004fd4:	60bb      	str	r3, [r7, #8]
                ((uint32_t)0x5FAUL << SCB_AIRCR_VECTKEY_Pos) |
                (PriorityGroupTmp << SCB_AIRCR_PRIGROUP_Pos)  );              /* Insert write key and priority group */
  SCB->AIRCR =  reg_value;
 8004fd6:	4a04      	ldr	r2, [pc, #16]	; (8004fe8 <__NVIC_SetPriorityGrouping+0x44>)
 8004fd8:	68bb      	ldr	r3, [r7, #8]
 8004fda:	60d3      	str	r3, [r2, #12]
}
 8004fdc:	3714      	adds	r7, #20
 8004fde:	46bd      	mov	sp, r7
 8004fe0:	f85d 7b04 	ldr.w	r7, [sp], #4
 8004fe4:	4770      	bx	lr
 8004fe6:	bf00      	nop
 8004fe8:	e000ed00 	.word	0xe000ed00

08004fec <SystemCoreSetup>:
  .initialized = false
};	


void SystemCoreSetup(void)
{
 8004fec:	b580      	push	{r7, lr}
 8004fee:	b082      	sub	sp, #8
 8004ff0:	af00      	add	r7, sp, #0
  uint32_t temp;

  NVIC_SetPriorityGrouping(1U);
 8004ff2:	2001      	movs	r0, #1
 8004ff4:	f7ff ffd6 	bl	8004fa4 <__NVIC_SetPriorityGrouping>
  \details Disables IRQ interrupts by setting the I-bit in the CPSR.
           Can only be executed in Privileged modes.
 */
__STATIC_FORCEINLINE void __disable_irq(void)
{
  __ASM volatile ("cpsid i" : : : "memory");
 8004ff8:	b672      	cpsid	i
	
  /* relocate vector table */
  __disable_irq();

#if !defined(__TASKING__)
  SCB->VTOR = (uint32_t)(&__Vectors);
 8004ffa:	4b21      	ldr	r3, [pc, #132]	; (8005080 <SystemCoreSetup+0x94>)
 8004ffc:	4a21      	ldr	r2, [pc, #132]	; (8005084 <SystemCoreSetup+0x98>)
 8004ffe:	609a      	str	r2, [r3, #8]
  \details Acts as a special kind of Data Memory Barrier.
           It completes when all explicit memory accesses before this instruction complete.
 */
__STATIC_FORCEINLINE void __DSB(void)
{
  __ASM volatile ("dsb 0xF":::"memory");
 8005000:	f3bf 8f4f 	dsb	sy
  \details Enables IRQ interrupts by clearing the I-bit in the CPSR.
           Can only be executed in Privileged modes.
 */
__STATIC_FORCEINLINE void __enable_irq(void)
{
  __ASM volatile ("cpsie i" : : : "memory");
 8005004:	b662      	cpsie	i

  __DSB();
  __enable_irq();
	
#if ((__FPU_PRESENT == 1) && (__FPU_USED == 1))
  SCB->CPACR |= ((3UL << 10*2) |                 /* set CP10 Full Access */
 8005006:	4a1e      	ldr	r2, [pc, #120]	; (8005080 <SystemCoreSetup+0x94>)
 8005008:	4b1d      	ldr	r3, [pc, #116]	; (8005080 <SystemCoreSetup+0x94>)
 800500a:	f8d3 3088 	ldr.w	r3, [r3, #136]	; 0x88
 800500e:	f443 0370 	orr.w	r3, r3, #15728640	; 0xf00000
 8005012:	f8c2 3088 	str.w	r3, [r2, #136]	; 0x88
				 (3UL << 11*2)  );               /* set CP11 Full Access */
#endif
  /* Set flash wait states */
  temp = FLASH0->FCON;
 8005016:	4b1c      	ldr	r3, [pc, #112]	; (8005088 <SystemCoreSetup+0x9c>)
 8005018:	f503 5380 	add.w	r3, r3, #4096	; 0x1000
 800501c:	3314      	adds	r3, #20
 800501e:	681b      	ldr	r3, [r3, #0]
 8005020:	607b      	str	r3, [r7, #4]
  temp &= ~FLASH_FCON_WSPFLASH_Msk;
 8005022:	687b      	ldr	r3, [r7, #4]
 8005024:	f023 030f 	bic.w	r3, r3, #15
 8005028:	607b      	str	r3, [r7, #4]
  temp |= PMU_FLASH_WS;
 800502a:	687b      	ldr	r3, [r7, #4]
 800502c:	f043 0304 	orr.w	r3, r3, #4
 8005030:	607b      	str	r3, [r7, #4]
  FLASH0->FCON = temp;
 8005032:	4b15      	ldr	r3, [pc, #84]	; (8005088 <SystemCoreSetup+0x9c>)
 8005034:	f503 5380 	add.w	r3, r3, #4096	; 0x1000
 8005038:	3314      	adds	r3, #20
 800503a:	687a      	ldr	r2, [r7, #4]
 800503c:	601a      	str	r2, [r3, #0]


  /* Disable divide by zero trap */
  SCB->CCR &= ~SCB_CCR_DIV_0_TRP_Msk; 
 800503e:	4a10      	ldr	r2, [pc, #64]	; (8005080 <SystemCoreSetup+0x94>)
 8005040:	4b0f      	ldr	r3, [pc, #60]	; (8005080 <SystemCoreSetup+0x94>)
 8005042:	695b      	ldr	r3, [r3, #20]
 8005044:	f023 0310 	bic.w	r3, r3, #16
 8005048:	6153      	str	r3, [r2, #20]

  /* Disable unaligned memory access trap */
  SCB->CCR &= ~SCB_CCR_UNALIGN_TRP_Msk; 
 800504a:	4a0d      	ldr	r2, [pc, #52]	; (8005080 <SystemCoreSetup+0x94>)
 800504c:	4b0c      	ldr	r3, [pc, #48]	; (8005080 <SystemCoreSetup+0x94>)
 800504e:	695b      	ldr	r3, [r3, #20]
 8005050:	f023 0308 	bic.w	r3, r3, #8
 8005054:	6153      	str	r3, [r2, #20]

  /* Disable memory management fault */
  SCB->SHCSR &= ~SCB_SHCSR_MEMFAULTENA_Msk;
 8005056:	4a0a      	ldr	r2, [pc, #40]	; (8005080 <SystemCoreSetup+0x94>)
 8005058:	4b09      	ldr	r3, [pc, #36]	; (8005080 <SystemCoreSetup+0x94>)
 800505a:	6a5b      	ldr	r3, [r3, #36]	; 0x24
 800505c:	f423 3380 	bic.w	r3, r3, #65536	; 0x10000
 8005060:	6253      	str	r3, [r2, #36]	; 0x24

  /* Disable bus fault */
  SCB->SHCSR &= ~SCB_SHCSR_BUSFAULTENA_Msk;
 8005062:	4a07      	ldr	r2, [pc, #28]	; (8005080 <SystemCoreSetup+0x94>)
 8005064:	4b06      	ldr	r3, [pc, #24]	; (8005080 <SystemCoreSetup+0x94>)
 8005066:	6a5b      	ldr	r3, [r3, #36]	; 0x24
 8005068:	f423 3300 	bic.w	r3, r3, #131072	; 0x20000
 800506c:	6253      	str	r3, [r2, #36]	; 0x24

  /* Disable usage fault */
  SCB->SHCSR &= ~SCB_SHCSR_USGFAULTENA_Msk;
 800506e:	4a04      	ldr	r2, [pc, #16]	; (8005080 <SystemCoreSetup+0x94>)
 8005070:	4b03      	ldr	r3, [pc, #12]	; (8005080 <SystemCoreSetup+0x94>)
 8005072:	6a5b      	ldr	r3, [r3, #36]	; 0x24
 8005074:	f423 2380 	bic.w	r3, r3, #262144	; 0x40000
 8005078:	6253      	str	r3, [r2, #36]	; 0x24
}
 800507a:	3708      	adds	r7, #8
 800507c:	46bd      	mov	sp, r7
 800507e:	bd80      	pop	{r7, pc}
 8005080:	e000ed00 	.word	0xe000ed00
 8005084:	08000000 	.word	0x08000000
 8005088:	58001000 	.word	0x58001000

0800508c <CLOCK_XMC4_Init>:

/*
 * API to initialize the CLOCK_XMC4 APP TRAP events
 */
CLOCK_XMC4_STATUS_t CLOCK_XMC4_Init(CLOCK_XMC4_t *handle)
{
 800508c:	b480      	push	{r7}
 800508e:	b085      	sub	sp, #20
 8005090:	af00      	add	r7, sp, #0
 8005092:	6078      	str	r0, [r7, #4]
  CLOCK_XMC4_STATUS_t status = CLOCK_XMC4_STATUS_SUCCESS;
 8005094:	2300      	movs	r3, #0
 8005096:	73fb      	strb	r3, [r7, #15]

  XMC_ASSERT("CLOCK_XMC4 APP handle function pointer uninitialized", (handle != NULL));

  handle->init_status = true;
 8005098:	687b      	ldr	r3, [r7, #4]
 800509a:	2201      	movs	r2, #1
 800509c:	701a      	strb	r2, [r3, #0]

  return (status);
 800509e:	7bfb      	ldrb	r3, [r7, #15]
}
 80050a0:	4618      	mov	r0, r3
 80050a2:	3714      	adds	r7, #20
 80050a4:	46bd      	mov	sp, r7
 80050a6:	f85d 7b04 	ldr.w	r7, [sp], #4
 80050aa:	4770      	bx	lr

080050ac <OSCHP_GetFrequency>:

#ifdef CLOCK_XMC4_OSCHP_ENABLED
/*  API to retrieve high precision external oscillator frequency */
uint32_t OSCHP_GetFrequency(void)
{
 80050ac:	b480      	push	{r7}
 80050ae:	af00      	add	r7, sp, #0
  return (CLOCK_XMC4_OSCHP_FREQUENCY);
 80050b0:	4b02      	ldr	r3, [pc, #8]	; (80050bc <OSCHP_GetFrequency+0x10>)
}
 80050b2:	4618      	mov	r0, r3
 80050b4:	46bd      	mov	sp, r7
 80050b6:	f85d 7b04 	ldr.w	r7, [sp], #4
 80050ba:	4770      	bx	lr
 80050bc:	00b71b00 	.word	0x00b71b00

080050c0 <SystemCoreClockSetup>:
* @note   -
* @param  None
* @retval None
*/
void SystemCoreClockSetup(void)
{
 80050c0:	b5b0      	push	{r4, r5, r7, lr}
 80050c2:	b086      	sub	sp, #24
 80050c4:	af00      	add	r7, sp, #0
  /* Local data structure for initializing the clock functional block */
  const XMC_SCU_CLOCK_CONFIG_t CLOCK_XMC4_0_CONFIG =
 80050c6:	4b12      	ldr	r3, [pc, #72]	; (8005110 <SystemCoreClockSetup+0x50>)
 80050c8:	1d3c      	adds	r4, r7, #4
 80050ca:	461d      	mov	r5, r3
 80050cc:	cd0f      	ldmia	r5!, {r0, r1, r2, r3}
 80050ce:	c40f      	stmia	r4!, {r0, r1, r2, r3}
 80050d0:	682b      	ldr	r3, [r5, #0]
 80050d2:	6023      	str	r3, [r4, #0]
#endif
    /* Peripheral Clock Divider Value */
    .fperipheral_clkdiv = 1U
  };
  /* Initialize the SCU clock */
  XMC_SCU_CLOCK_Init(&CLOCK_XMC4_0_CONFIG);
 80050d4:	1d3b      	adds	r3, r7, #4
 80050d6:	4618      	mov	r0, r3
 80050d8:	f7fb fac4 	bl	8000664 <XMC_SCU_CLOCK_Init>
  /* RTC source clock */
  XMC_SCU_HIB_SetRtcClockSource(XMC_SCU_HIB_RTCCLKSRC_OSI);
 80050dc:	2000      	movs	r0, #0
 80050de:	f7fb fbe3 	bl	80008a8 <XMC_SCU_HIB_SetRtcClockSource>
  
#ifdef CLOCK_XMC4_USBCLK_ENABLED  
  /* USB/SDMMC source clock */
  XMC_SCU_CLOCK_SetUsbClockSource(XMC_SCU_CLOCK_USBCLKSRC_USBPLL);
 80050e2:	2000      	movs	r0, #0
 80050e4:	f7fb fb98 	bl	8000818 <XMC_SCU_CLOCK_SetUsbClockSource>
  /* USB/SDMMC divider setting */
  XMC_SCU_CLOCK_SetUsbClockDivider(4U);
 80050e8:	2004      	movs	r0, #4
 80050ea:	f7fb fc69 	bl	80009c0 <XMC_SCU_CLOCK_SetUsbClockDivider>
#endif
  /* Start USB PLL */
  XMC_SCU_CLOCK_StartUsbPll(1U, 32U);
 80050ee:	2001      	movs	r0, #1
 80050f0:	2120      	movs	r1, #32
 80050f2:	f7fb fce1 	bl	8000ab8 <XMC_SCU_CLOCK_StartUsbPll>

#ifdef CLOCK_XMC4_WDTCLK_ENABLED    
  /* WDT source clock */
  XMC_SCU_CLOCK_SetWdtClockSource(XMC_SCU_CLOCK_WDTCLKSRC_OFI);
 80050f6:	2000      	movs	r0, #0
 80050f8:	f7fb fba2 	bl	8000840 <XMC_SCU_CLOCK_SetWdtClockSource>
  /* WDT divider setting */
  XMC_SCU_CLOCK_SetWdtClockDivider(1U);
 80050fc:	2001      	movs	r0, #1
 80050fe:	f7fb fc87 	bl	8000a10 <XMC_SCU_CLOCK_SetWdtClockDivider>
#endif

#ifdef CLOCK_XMC4_EBUCLK_ENABLED 
  /* EBU divider setting */
  XMC_SCU_CLOCK_SetEbuClockDivider(1U);
 8005102:	2001      	movs	r0, #1
 8005104:	f7fb fc70 	bl	80009e8 <XMC_SCU_CLOCK_SetEbuClockDivider>
#endif

}
 8005108:	3718      	adds	r7, #24
 800510a:	46bd      	mov	sp, r7
 800510c:	bdb0      	pop	{r4, r5, r7, pc}
 800510e:	bf00      	nop
 8005110:	080059d0 	.word	0x080059d0

08005114 <DAVE_Init>:
 * @param[in]  None
 *
 * @return  DAVE_STATUS_t <BR>
 ******************************************************************************/
__WEAK DAVE_STATUS_t DAVE_Init(void)
{
 8005114:	b580      	push	{r7, lr}
 8005116:	b082      	sub	sp, #8
 8005118:	af00      	add	r7, sp, #0
  DAVE_STATUS_t init_status;
  
  init_status = DAVE_STATUS_SUCCESS;
 800511a:	2300      	movs	r3, #0
 800511c:	71fb      	strb	r3, [r7, #7]
     /** @Initialization of APPs Init Functions */
     init_status = (DAVE_STATUS_t)CLOCK_XMC4_Init(&CLOCK_XMC4_0);
 800511e:	4821      	ldr	r0, [pc, #132]	; (80051a4 <DAVE_Init+0x90>)
 8005120:	f7ff ffb4 	bl	800508c <CLOCK_XMC4_Init>
 8005124:	4603      	mov	r3, r0
 8005126:	71fb      	strb	r3, [r7, #7]

  if (init_status == DAVE_STATUS_SUCCESS)
 8005128:	79fb      	ldrb	r3, [r7, #7]
 800512a:	2b00      	cmp	r3, #0
 800512c:	d104      	bne.n	8005138 <DAVE_Init+0x24>
  {
	 /**  Initialization of SPI_MASTER APP instance SPI_MASTER_0 */
	 init_status = (DAVE_STATUS_t)SPI_MASTER_Init(&SPI_MASTER_0); 
 800512e:	481e      	ldr	r0, [pc, #120]	; (80051a8 <DAVE_Init+0x94>)
 8005130:	f7fc fb86 	bl	8001840 <SPI_MASTER_Init>
 8005134:	4603      	mov	r3, r0
 8005136:	71fb      	strb	r3, [r7, #7]
   } 
  if (init_status == DAVE_STATUS_SUCCESS)
 8005138:	79fb      	ldrb	r3, [r7, #7]
 800513a:	2b00      	cmp	r3, #0
 800513c:	d104      	bne.n	8005148 <DAVE_Init+0x34>
  {
	 /**  Initialization of DIGITAL_IO APP instance TLE94112_ENABLE */
	 init_status = (DAVE_STATUS_t)DIGITAL_IO_Init(&TLE94112_ENABLE); 
 800513e:	481b      	ldr	r0, [pc, #108]	; (80051ac <DAVE_Init+0x98>)
 8005140:	f7ff ff10 	bl	8004f64 <DIGITAL_IO_Init>
 8005144:	4603      	mov	r3, r0
 8005146:	71fb      	strb	r3, [r7, #7]
   } 
  if (init_status == DAVE_STATUS_SUCCESS)
 8005148:	79fb      	ldrb	r3, [r7, #7]
 800514a:	2b00      	cmp	r3, #0
 800514c:	d104      	bne.n	8005158 <DAVE_Init+0x44>
  {
	 /**  Initialization of DIGITAL_IO APP instance TLE94112_CS */
	 init_status = (DAVE_STATUS_t)DIGITAL_IO_Init(&TLE94112_CS); 
 800514e:	4818      	ldr	r0, [pc, #96]	; (80051b0 <DAVE_Init+0x9c>)
 8005150:	f7ff ff08 	bl	8004f64 <DIGITAL_IO_Init>
 8005154:	4603      	mov	r3, r0
 8005156:	71fb      	strb	r3, [r7, #7]
   } 
  if (init_status == DAVE_STATUS_SUCCESS)
 8005158:	79fb      	ldrb	r3, [r7, #7]
 800515a:	2b00      	cmp	r3, #0
 800515c:	d104      	bne.n	8005168 <DAVE_Init+0x54>
  {
	 /**  Initialization of PIN_INTERRUPT APP instance FORWARD_INTERRUPT */
	 init_status = (DAVE_STATUS_t)PIN_INTERRUPT_Init(&FORWARD_INTERRUPT); 
 800515e:	4815      	ldr	r0, [pc, #84]	; (80051b4 <DAVE_Init+0xa0>)
 8005160:	f7fd f9c6 	bl	80024f0 <PIN_INTERRUPT_Init>
 8005164:	4603      	mov	r3, r0
 8005166:	71fb      	strb	r3, [r7, #7]
   } 
  if (init_status == DAVE_STATUS_SUCCESS)
 8005168:	79fb      	ldrb	r3, [r7, #7]
 800516a:	2b00      	cmp	r3, #0
 800516c:	d104      	bne.n	8005178 <DAVE_Init+0x64>
  {
	 /**  Initialization of PIN_INTERRUPT APP instance BACKWARD_INTERRUPT */
	 init_status = (DAVE_STATUS_t)PIN_INTERRUPT_Init(&BACKWARD_INTERRUPT); 
 800516e:	4812      	ldr	r0, [pc, #72]	; (80051b8 <DAVE_Init+0xa4>)
 8005170:	f7fd f9be 	bl	80024f0 <PIN_INTERRUPT_Init>
 8005174:	4603      	mov	r3, r0
 8005176:	71fb      	strb	r3, [r7, #7]
   } 
  if (init_status == DAVE_STATUS_SUCCESS)
 8005178:	79fb      	ldrb	r3, [r7, #7]
 800517a:	2b00      	cmp	r3, #0
 800517c:	d104      	bne.n	8005188 <DAVE_Init+0x74>
  {
	 /**  Initialization of PIN_INTERRUPT APP instance LEFT_INTERRUPT */
	 init_status = (DAVE_STATUS_t)PIN_INTERRUPT_Init(&LEFT_INTERRUPT); 
 800517e:	480f      	ldr	r0, [pc, #60]	; (80051bc <DAVE_Init+0xa8>)
 8005180:	f7fd f9b6 	bl	80024f0 <PIN_INTERRUPT_Init>
 8005184:	4603      	mov	r3, r0
 8005186:	71fb      	strb	r3, [r7, #7]
   } 
  if (init_status == DAVE_STATUS_SUCCESS)
 8005188:	79fb      	ldrb	r3, [r7, #7]
 800518a:	2b00      	cmp	r3, #0
 800518c:	d104      	bne.n	8005198 <DAVE_Init+0x84>
  {
	 /**  Initialization of PIN_INTERRUPT APP instance RIGHT_INTERRUPT */
	 init_status = (DAVE_STATUS_t)PIN_INTERRUPT_Init(&RIGHT_INTERRUPT); 
 800518e:	480c      	ldr	r0, [pc, #48]	; (80051c0 <DAVE_Init+0xac>)
 8005190:	f7fd f9ae 	bl	80024f0 <PIN_INTERRUPT_Init>
 8005194:	4603      	mov	r3, r0
 8005196:	71fb      	strb	r3, [r7, #7]
   }  
  return init_status;
 8005198:	79fb      	ldrb	r3, [r7, #7]
} /**  End of function DAVE_Init */
 800519a:	4618      	mov	r0, r3
 800519c:	3708      	adds	r7, #8
 800519e:	46bd      	mov	sp, r7
 80051a0:	bd80      	pop	{r7, pc}
 80051a2:	bf00      	nop
 80051a4:	1ffe8a18 	.word	0x1ffe8a18
 80051a8:	1ffe8844 	.word	0x1ffe8844
 80051ac:	080059a8 	.word	0x080059a8
 80051b0:	080059bc 	.word	0x080059bc
 80051b4:	080058f0 	.word	0x080058f0
 80051b8:	08005914 	.word	0x08005914
 80051bc:	08005938 	.word	0x08005938
 80051c0:	0800595c 	.word	0x0800595c

080051c4 <XMC_GPIO_SetOutputHigh>:
 * Register Pn_OMR is virtual and does not contain any flip-flop. A read action delivers the value of 0.
 *
 */

__STATIC_INLINE void XMC_GPIO_SetOutputHigh(XMC_GPIO_PORT_t *const port, const uint8_t pin)
{
 80051c4:	b480      	push	{r7}
 80051c6:	b083      	sub	sp, #12
 80051c8:	af00      	add	r7, sp, #0
 80051ca:	6078      	str	r0, [r7, #4]
 80051cc:	460b      	mov	r3, r1
 80051ce:	70fb      	strb	r3, [r7, #3]
  XMC_ASSERT("XMC_GPIO_SetOutputHigh: Invalid port", XMC_GPIO_CHECK_OUTPUT_PORT(port));

  port->OMR = (uint32_t)0x1U << pin;
 80051d0:	78fb      	ldrb	r3, [r7, #3]
 80051d2:	2201      	movs	r2, #1
 80051d4:	409a      	lsls	r2, r3
 80051d6:	687b      	ldr	r3, [r7, #4]
 80051d8:	605a      	str	r2, [r3, #4]
}
 80051da:	370c      	adds	r7, #12
 80051dc:	46bd      	mov	sp, r7
 80051de:	f85d 7b04 	ldr.w	r7, [sp], #4
 80051e2:	4770      	bx	lr

080051e4 <XMC_GPIO_SetOutputLow>:
 * Register Pn_OMR is virtual and does not contain any flip-flop. A read action delivers the value of 0.\n
 *
 */

__STATIC_INLINE void XMC_GPIO_SetOutputLow(XMC_GPIO_PORT_t *const port, const uint8_t pin)
{
 80051e4:	b480      	push	{r7}
 80051e6:	b083      	sub	sp, #12
 80051e8:	af00      	add	r7, sp, #0
 80051ea:	6078      	str	r0, [r7, #4]
 80051ec:	460b      	mov	r3, r1
 80051ee:	70fb      	strb	r3, [r7, #3]
  XMC_ASSERT("XMC_GPIO_SetOutputLow: Invalid port", XMC_GPIO_CHECK_OUTPUT_PORT(port));

  port->OMR = 0x10000U << pin;
 80051f0:	78fb      	ldrb	r3, [r7, #3]
 80051f2:	f44f 3280 	mov.w	r2, #65536	; 0x10000
 80051f6:	409a      	lsls	r2, r3
 80051f8:	687b      	ldr	r3, [r7, #4]
 80051fa:	605a      	str	r2, [r3, #4]
}
 80051fc:	370c      	adds	r7, #12
 80051fe:	46bd      	mov	sp, r7
 8005200:	f85d 7b04 	ldr.w	r7, [sp], #4
 8005204:	4770      	bx	lr
 8005206:	bf00      	nop

08005208 <XMC_GPIO_GetInput>:
 * Prior to this api, user has to configure port pin to input mode using XMC_GPIO_SetMode().
 *
 */

__STATIC_INLINE uint32_t XMC_GPIO_GetInput(XMC_GPIO_PORT_t *const port, const uint8_t pin)
{
 8005208:	b480      	push	{r7}
 800520a:	b083      	sub	sp, #12
 800520c:	af00      	add	r7, sp, #0
 800520e:	6078      	str	r0, [r7, #4]
 8005210:	460b      	mov	r3, r1
 8005212:	70fb      	strb	r3, [r7, #3]
  XMC_ASSERT("XMC_GPIO_GetInput: Invalid port", XMC_GPIO_CHECK_PORT(port));

  return (((port->IN) >> pin) & 0x1U);
 8005214:	687b      	ldr	r3, [r7, #4]
 8005216:	6a5a      	ldr	r2, [r3, #36]	; 0x24
 8005218:	78fb      	ldrb	r3, [r7, #3]
 800521a:	fa22 f303 	lsr.w	r3, r2, r3
 800521e:	f003 0301 	and.w	r3, r3, #1
}
 8005222:	4618      	mov	r0, r3
 8005224:	370c      	adds	r7, #12
 8005226:	46bd      	mov	sp, r7
 8005228:	f85d 7b04 	ldr.w	r7, [sp], #4
 800522c:	4770      	bx	lr
 800522e:	bf00      	nop

08005230 <XMC_SPI_CH_SetBitOrderLsbFirst>:
 *
 * \par<b>Related APIs:</b><BR>
 * XMC_SPI_CH_SetBitOrderMsbFirst()
 */
__STATIC_INLINE void XMC_SPI_CH_SetBitOrderLsbFirst(XMC_USIC_CH_t *const channel)
{
 8005230:	b480      	push	{r7}
 8005232:	b083      	sub	sp, #12
 8005234:	af00      	add	r7, sp, #0
 8005236:	6078      	str	r0, [r7, #4]
  channel->SCTR &= (uint32_t)~USIC_CH_SCTR_SDIR_Msk;
 8005238:	687b      	ldr	r3, [r7, #4]
 800523a:	6b5b      	ldr	r3, [r3, #52]	; 0x34
 800523c:	f023 0201 	bic.w	r2, r3, #1
 8005240:	687b      	ldr	r3, [r7, #4]
 8005242:	635a      	str	r2, [r3, #52]	; 0x34
}
 8005244:	370c      	adds	r7, #12
 8005246:	46bd      	mov	sp, r7
 8005248:	f85d 7b04 	ldr.w	r7, [sp], #4
 800524c:	4770      	bx	lr
 800524e:	bf00      	nop

08005250 <DIGITAL_IO_SetOutputHigh>:
* }
*  @endcode
*/

__STATIC_INLINE void DIGITAL_IO_SetOutputHigh(const DIGITAL_IO_t *const handler)
{
 8005250:	b580      	push	{r7, lr}
 8005252:	b082      	sub	sp, #8
 8005254:	af00      	add	r7, sp, #0
 8005256:	6078      	str	r0, [r7, #4]
  XMC_ASSERT("DIGITAL_IO_SetOutputHigh: handler null pointer", handler != NULL);
  XMC_GPIO_SetOutputHigh(handler->gpio_port, handler->gpio_pin);
 8005258:	687b      	ldr	r3, [r7, #4]
 800525a:	681a      	ldr	r2, [r3, #0]
 800525c:	687b      	ldr	r3, [r7, #4]
 800525e:	7c1b      	ldrb	r3, [r3, #16]
 8005260:	4610      	mov	r0, r2
 8005262:	4619      	mov	r1, r3
 8005264:	f7ff ffae 	bl	80051c4 <XMC_GPIO_SetOutputHigh>
}
 8005268:	3708      	adds	r7, #8
 800526a:	46bd      	mov	sp, r7
 800526c:	bd80      	pop	{r7, pc}
 800526e:	bf00      	nop

08005270 <DIGITAL_IO_SetOutputLow>:
* }
*  @endcode
*/

__STATIC_INLINE void DIGITAL_IO_SetOutputLow(const DIGITAL_IO_t *const handler)
{
 8005270:	b580      	push	{r7, lr}
 8005272:	b082      	sub	sp, #8
 8005274:	af00      	add	r7, sp, #0
 8005276:	6078      	str	r0, [r7, #4]
  XMC_ASSERT("DIGITAL_IO_SetOutputLow: handler null pointer", handler != NULL);
  XMC_GPIO_SetOutputLow(handler->gpio_port,handler->gpio_pin);
 8005278:	687b      	ldr	r3, [r7, #4]
 800527a:	681a      	ldr	r2, [r3, #0]
 800527c:	687b      	ldr	r3, [r7, #4]
 800527e:	7c1b      	ldrb	r3, [r3, #16]
 8005280:	4610      	mov	r0, r2
 8005282:	4619      	mov	r1, r3
 8005284:	f7ff ffae 	bl	80051e4 <XMC_GPIO_SetOutputLow>
}
 8005288:	3708      	adds	r7, #8
 800528a:	46bd      	mov	sp, r7
 800528c:	bd80      	pop	{r7, pc}
 800528e:	bf00      	nop

08005290 <PIN_INTERRUPT_GetPinValue>:
*   return (1);
* }
*  @endcode
*/
__STATIC_INLINE uint32_t PIN_INTERRUPT_GetPinValue(const PIN_INTERRUPT_t *const handle)
{
 8005290:	b580      	push	{r7, lr}
 8005292:	b082      	sub	sp, #8
 8005294:	af00      	add	r7, sp, #0
 8005296:	6078      	str	r0, [r7, #4]
  XMC_ASSERT("PIN_INTERRUPT_GetPinValue: Handler null pointer", handle != NULL);
  return (XMC_GPIO_GetInput(handle->port, handle->pin));
 8005298:	687b      	ldr	r3, [r7, #4]
 800529a:	685a      	ldr	r2, [r3, #4]
 800529c:	687b      	ldr	r3, [r7, #4]
 800529e:	f893 3021 	ldrb.w	r3, [r3, #33]	; 0x21
 80052a2:	4610      	mov	r0, r2
 80052a4:	4619      	mov	r1, r3
 80052a6:	f7ff ffaf 	bl	8005208 <XMC_GPIO_GetInput>
 80052aa:	4603      	mov	r3, r0
}
 80052ac:	4618      	mov	r0, r3
 80052ae:	3708      	adds	r7, #8
 80052b0:	46bd      	mov	sp, r7
 80052b2:	bd80      	pop	{r7, pc}

080052b4 <FORWARD_Task>:
SemaphoreHandle_t FORWARD_interruptSemaphore;
SemaphoreHandle_t BACKWARD_interruptSemaphore;
SemaphoreHandle_t LEFT_interruptSemaphore;
SemaphoreHandle_t RIGHT_interruptSemaphore;

void FORWARD_Task(void *p){
 80052b4:	b580      	push	{r7, lr}
 80052b6:	b082      	sub	sp, #8
 80052b8:	af00      	add	r7, sp, #0
 80052ba:	6078      	str	r0, [r7, #4]

//	volatile uint32_t pin_status;
	while(1){

		if (xSemaphoreTake(FORWARD_interruptSemaphore, portMAX_DELAY) == pdPASS){
 80052bc:	4b14      	ldr	r3, [pc, #80]	; (8005310 <FORWARD_Task+0x5c>)
 80052be:	681b      	ldr	r3, [r3, #0]
 80052c0:	4618      	mov	r0, r3
 80052c2:	f04f 31ff 	mov.w	r1, #4294967295
 80052c6:	f7fe f883 	bl	80033d0 <xQueueSemaphoreTake>
 80052ca:	4603      	mov	r3, r0
 80052cc:	2b01      	cmp	r3, #1
 80052ce:	d11e      	bne.n	800530e <FORWARD_Task+0x5a>

			pin_status = PIN_INTERRUPT_GetPinValue(&FORWARD_INTERRUPT);
 80052d0:	4810      	ldr	r0, [pc, #64]	; (8005314 <FORWARD_Task+0x60>)
 80052d2:	f7ff ffdd 	bl	8005290 <PIN_INTERRUPT_GetPinValue>
 80052d6:	4602      	mov	r2, r0
 80052d8:	4b0f      	ldr	r3, [pc, #60]	; (8005318 <FORWARD_Task+0x64>)
 80052da:	601a      	str	r2, [r3, #0]
			if(pin_status==1){
 80052dc:	4b0e      	ldr	r3, [pc, #56]	; (8005318 <FORWARD_Task+0x64>)
 80052de:	681b      	ldr	r3, [r3, #0]
 80052e0:	2b01      	cmp	r3, #1
 80052e2:	d10a      	bne.n	80052fa <FORWARD_Task+0x46>
				//FORWARD
				TLE94112EL_SetHBRegdata(&TLE94112EL_0, 0x01, 0x99);
 80052e4:	480d      	ldr	r0, [pc, #52]	; (800531c <FORWARD_Task+0x68>)
 80052e6:	2101      	movs	r1, #1
 80052e8:	2299      	movs	r2, #153	; 0x99
 80052ea:	f7fa ffd7 	bl	800029c <TLE94112EL_SetHBRegdata>
				TLE94112EL_SetHBRegdata(&TLE94112EL_0, 0x03, 0x99);
 80052ee:	480b      	ldr	r0, [pc, #44]	; (800531c <FORWARD_Task+0x68>)
 80052f0:	2103      	movs	r1, #3
 80052f2:	2299      	movs	r2, #153	; 0x99
 80052f4:	f7fa ffd2 	bl	800029c <TLE94112EL_SetHBRegdata>
 80052f8:	e009      	b.n	800530e <FORWARD_Task+0x5a>
			}

			else{
				//stop
				TLE94112EL_SetHBRegdata(&TLE94112EL_0, 0x01, 0x00);
 80052fa:	4808      	ldr	r0, [pc, #32]	; (800531c <FORWARD_Task+0x68>)
 80052fc:	2101      	movs	r1, #1
 80052fe:	2200      	movs	r2, #0
 8005300:	f7fa ffcc 	bl	800029c <TLE94112EL_SetHBRegdata>
				TLE94112EL_SetHBRegdata(&TLE94112EL_0, 0x03, 0x00);
 8005304:	4805      	ldr	r0, [pc, #20]	; (800531c <FORWARD_Task+0x68>)
 8005306:	2103      	movs	r1, #3
 8005308:	2200      	movs	r2, #0
 800530a:	f7fa ffc7 	bl	800029c <TLE94112EL_SetHBRegdata>
			}
		}
	}
 800530e:	e7d5      	b.n	80052bc <FORWARD_Task+0x8>
 8005310:	1ffe8a84 	.word	0x1ffe8a84
 8005314:	080058f0 	.word	0x080058f0
 8005318:	1ffe8a80 	.word	0x1ffe8a80
 800531c:	080059e4 	.word	0x080059e4

08005320 <BACKWARD_Task>:
}

void BACKWARD_Task(void *p){
 8005320:	b580      	push	{r7, lr}
 8005322:	b082      	sub	sp, #8
 8005324:	af00      	add	r7, sp, #0
 8005326:	6078      	str	r0, [r7, #4]

//	uint32_t pin_status;
	while(1){

		if (xSemaphoreTake(BACKWARD_interruptSemaphore, portMAX_DELAY) == pdPASS){
 8005328:	4b14      	ldr	r3, [pc, #80]	; (800537c <BACKWARD_Task+0x5c>)
 800532a:	681b      	ldr	r3, [r3, #0]
 800532c:	4618      	mov	r0, r3
 800532e:	f04f 31ff 	mov.w	r1, #4294967295
 8005332:	f7fe f84d 	bl	80033d0 <xQueueSemaphoreTake>
 8005336:	4603      	mov	r3, r0
 8005338:	2b01      	cmp	r3, #1
 800533a:	d11e      	bne.n	800537a <BACKWARD_Task+0x5a>

			pin_status = PIN_INTERRUPT_GetPinValue(&BACKWARD_INTERRUPT);
 800533c:	4810      	ldr	r0, [pc, #64]	; (8005380 <BACKWARD_Task+0x60>)
 800533e:	f7ff ffa7 	bl	8005290 <PIN_INTERRUPT_GetPinValue>
 8005342:	4602      	mov	r2, r0
 8005344:	4b0f      	ldr	r3, [pc, #60]	; (8005384 <BACKWARD_Task+0x64>)
 8005346:	601a      	str	r2, [r3, #0]
			if(pin_status==1){
 8005348:	4b0e      	ldr	r3, [pc, #56]	; (8005384 <BACKWARD_Task+0x64>)
 800534a:	681b      	ldr	r3, [r3, #0]
 800534c:	2b01      	cmp	r3, #1
 800534e:	d10a      	bne.n	8005366 <BACKWARD_Task+0x46>
				//BACKWARD
				TLE94112EL_SetHBRegdata(&TLE94112EL_0, 0x01, 0x66);
 8005350:	480d      	ldr	r0, [pc, #52]	; (8005388 <BACKWARD_Task+0x68>)
 8005352:	2101      	movs	r1, #1
 8005354:	2266      	movs	r2, #102	; 0x66
 8005356:	f7fa ffa1 	bl	800029c <TLE94112EL_SetHBRegdata>
				TLE94112EL_SetHBRegdata(&TLE94112EL_0, 0x03, 0x66);
 800535a:	480b      	ldr	r0, [pc, #44]	; (8005388 <BACKWARD_Task+0x68>)
 800535c:	2103      	movs	r1, #3
 800535e:	2266      	movs	r2, #102	; 0x66
 8005360:	f7fa ff9c 	bl	800029c <TLE94112EL_SetHBRegdata>
 8005364:	e009      	b.n	800537a <BACKWARD_Task+0x5a>
			}

			else{
				//stop
				TLE94112EL_SetHBRegdata(&TLE94112EL_0, 0x01, 0x00);
 8005366:	4808      	ldr	r0, [pc, #32]	; (8005388 <BACKWARD_Task+0x68>)
 8005368:	2101      	movs	r1, #1
 800536a:	2200      	movs	r2, #0
 800536c:	f7fa ff96 	bl	800029c <TLE94112EL_SetHBRegdata>
				TLE94112EL_SetHBRegdata(&TLE94112EL_0, 0x03, 0x00);
 8005370:	4805      	ldr	r0, [pc, #20]	; (8005388 <BACKWARD_Task+0x68>)
 8005372:	2103      	movs	r1, #3
 8005374:	2200      	movs	r2, #0
 8005376:	f7fa ff91 	bl	800029c <TLE94112EL_SetHBRegdata>
			}
		}
	}
 800537a:	e7d5      	b.n	8005328 <BACKWARD_Task+0x8>
 800537c:	1ffe8a74 	.word	0x1ffe8a74
 8005380:	08005914 	.word	0x08005914
 8005384:	1ffe8a80 	.word	0x1ffe8a80
 8005388:	080059e4 	.word	0x080059e4

0800538c <LEFT_Task>:
}

void LEFT_Task(void *p){
 800538c:	b580      	push	{r7, lr}
 800538e:	b082      	sub	sp, #8
 8005390:	af00      	add	r7, sp, #0
 8005392:	6078      	str	r0, [r7, #4]

//	uint32_t pin_status;
	while(1){

		if (xSemaphoreTake(LEFT_interruptSemaphore, portMAX_DELAY) == pdPASS){
 8005394:	4b14      	ldr	r3, [pc, #80]	; (80053e8 <LEFT_Task+0x5c>)
 8005396:	681b      	ldr	r3, [r3, #0]
 8005398:	4618      	mov	r0, r3
 800539a:	f04f 31ff 	mov.w	r1, #4294967295
 800539e:	f7fe f817 	bl	80033d0 <xQueueSemaphoreTake>
 80053a2:	4603      	mov	r3, r0
 80053a4:	2b01      	cmp	r3, #1
 80053a6:	d11e      	bne.n	80053e6 <LEFT_Task+0x5a>

			pin_status = PIN_INTERRUPT_GetPinValue(&BACKWARD_INTERRUPT);
 80053a8:	4810      	ldr	r0, [pc, #64]	; (80053ec <LEFT_Task+0x60>)
 80053aa:	f7ff ff71 	bl	8005290 <PIN_INTERRUPT_GetPinValue>
 80053ae:	4602      	mov	r2, r0
 80053b0:	4b0f      	ldr	r3, [pc, #60]	; (80053f0 <LEFT_Task+0x64>)
 80053b2:	601a      	str	r2, [r3, #0]
			if(pin_status==1){
 80053b4:	4b0e      	ldr	r3, [pc, #56]	; (80053f0 <LEFT_Task+0x64>)
 80053b6:	681b      	ldr	r3, [r3, #0]
 80053b8:	2b01      	cmp	r3, #1
 80053ba:	d10a      	bne.n	80053d2 <LEFT_Task+0x46>
				//LEFT
				TLE94112EL_SetHBRegdata(&TLE94112EL_0, 0x01, 0x66);
 80053bc:	480d      	ldr	r0, [pc, #52]	; (80053f4 <LEFT_Task+0x68>)
 80053be:	2101      	movs	r1, #1
 80053c0:	2266      	movs	r2, #102	; 0x66
 80053c2:	f7fa ff6b 	bl	800029c <TLE94112EL_SetHBRegdata>
				TLE94112EL_SetHBRegdata(&TLE94112EL_0, 0x03, 0x99);
 80053c6:	480b      	ldr	r0, [pc, #44]	; (80053f4 <LEFT_Task+0x68>)
 80053c8:	2103      	movs	r1, #3
 80053ca:	2299      	movs	r2, #153	; 0x99
 80053cc:	f7fa ff66 	bl	800029c <TLE94112EL_SetHBRegdata>
 80053d0:	e009      	b.n	80053e6 <LEFT_Task+0x5a>
			}

			else{
				//stop
				TLE94112EL_SetHBRegdata(&TLE94112EL_0, 0x01, 0x00);
 80053d2:	4808      	ldr	r0, [pc, #32]	; (80053f4 <LEFT_Task+0x68>)
 80053d4:	2101      	movs	r1, #1
 80053d6:	2200      	movs	r2, #0
 80053d8:	f7fa ff60 	bl	800029c <TLE94112EL_SetHBRegdata>
				TLE94112EL_SetHBRegdata(&TLE94112EL_0, 0x03, 0x00);
 80053dc:	4805      	ldr	r0, [pc, #20]	; (80053f4 <LEFT_Task+0x68>)
 80053de:	2103      	movs	r1, #3
 80053e0:	2200      	movs	r2, #0
 80053e2:	f7fa ff5b 	bl	800029c <TLE94112EL_SetHBRegdata>
			}
		}
	}
 80053e6:	e7d5      	b.n	8005394 <LEFT_Task+0x8>
 80053e8:	1ffe8a78 	.word	0x1ffe8a78
 80053ec:	08005914 	.word	0x08005914
 80053f0:	1ffe8a80 	.word	0x1ffe8a80
 80053f4:	080059e4 	.word	0x080059e4

080053f8 <RIGHT_Task>:
}

void RIGHT_Task(void *p){
 80053f8:	b580      	push	{r7, lr}
 80053fa:	b082      	sub	sp, #8
 80053fc:	af00      	add	r7, sp, #0
 80053fe:	6078      	str	r0, [r7, #4]

//	uint32_t pin_status;
	while(1){

		if (xSemaphoreTake(RIGHT_interruptSemaphore, portMAX_DELAY) == pdPASS){
 8005400:	4b14      	ldr	r3, [pc, #80]	; (8005454 <RIGHT_Task+0x5c>)
 8005402:	681b      	ldr	r3, [r3, #0]
 8005404:	4618      	mov	r0, r3
 8005406:	f04f 31ff 	mov.w	r1, #4294967295
 800540a:	f7fd ffe1 	bl	80033d0 <xQueueSemaphoreTake>
 800540e:	4603      	mov	r3, r0
 8005410:	2b01      	cmp	r3, #1
 8005412:	d11e      	bne.n	8005452 <RIGHT_Task+0x5a>

			pin_status = PIN_INTERRUPT_GetPinValue(&BACKWARD_INTERRUPT);
 8005414:	4810      	ldr	r0, [pc, #64]	; (8005458 <RIGHT_Task+0x60>)
 8005416:	f7ff ff3b 	bl	8005290 <PIN_INTERRUPT_GetPinValue>
 800541a:	4602      	mov	r2, r0
 800541c:	4b0f      	ldr	r3, [pc, #60]	; (800545c <RIGHT_Task+0x64>)
 800541e:	601a      	str	r2, [r3, #0]
			if(pin_status==1){
 8005420:	4b0e      	ldr	r3, [pc, #56]	; (800545c <RIGHT_Task+0x64>)
 8005422:	681b      	ldr	r3, [r3, #0]
 8005424:	2b01      	cmp	r3, #1
 8005426:	d10a      	bne.n	800543e <RIGHT_Task+0x46>
				//RIGHT
				TLE94112EL_SetHBRegdata(&TLE94112EL_0, 0x01, 0x99);
 8005428:	480d      	ldr	r0, [pc, #52]	; (8005460 <RIGHT_Task+0x68>)
 800542a:	2101      	movs	r1, #1
 800542c:	2299      	movs	r2, #153	; 0x99
 800542e:	f7fa ff35 	bl	800029c <TLE94112EL_SetHBRegdata>
				TLE94112EL_SetHBRegdata(&TLE94112EL_0, 0x03, 0x66);
 8005432:	480b      	ldr	r0, [pc, #44]	; (8005460 <RIGHT_Task+0x68>)
 8005434:	2103      	movs	r1, #3
 8005436:	2266      	movs	r2, #102	; 0x66
 8005438:	f7fa ff30 	bl	800029c <TLE94112EL_SetHBRegdata>
 800543c:	e009      	b.n	8005452 <RIGHT_Task+0x5a>
			}

			else{
				//stop
				TLE94112EL_SetHBRegdata(&TLE94112EL_0, 0x01, 0x00);
 800543e:	4808      	ldr	r0, [pc, #32]	; (8005460 <RIGHT_Task+0x68>)
 8005440:	2101      	movs	r1, #1
 8005442:	2200      	movs	r2, #0
 8005444:	f7fa ff2a 	bl	800029c <TLE94112EL_SetHBRegdata>
				TLE94112EL_SetHBRegdata(&TLE94112EL_0, 0x03, 0x00);
 8005448:	4805      	ldr	r0, [pc, #20]	; (8005460 <RIGHT_Task+0x68>)
 800544a:	2103      	movs	r1, #3
 800544c:	2200      	movs	r2, #0
 800544e:	f7fa ff25 	bl	800029c <TLE94112EL_SetHBRegdata>
			}
		}
	}
 8005452:	e7d5      	b.n	8005400 <RIGHT_Task+0x8>
 8005454:	1ffe8a7c 	.word	0x1ffe8a7c
 8005458:	08005914 	.word	0x08005914
 800545c:	1ffe8a80 	.word	0x1ffe8a80
 8005460:	080059e4 	.word	0x080059e4

08005464 <main>:
}
int main(void)
{
 8005464:	b580      	push	{r7, lr}
 8005466:	b084      	sub	sp, #16
 8005468:	af02      	add	r7, sp, #8
  DAVE_STATUS_t status;

  status = DAVE_Init();           /* Initialization of DAVE APPs  */
 800546a:	f7ff fe53 	bl	8005114 <DAVE_Init>
 800546e:	4603      	mov	r3, r0
 8005470:	71fb      	strb	r3, [r7, #7]

  if(status != DAVE_STATUS_SUCCESS)
 8005472:	79fb      	ldrb	r3, [r7, #7]
 8005474:	2b00      	cmp	r3, #0
 8005476:	d000      	beq.n	800547a <main+0x16>
    XMC_DEBUG("DAVE APPs initialization failed\n");

    while(1U)
    {

    }
 8005478:	e7fe      	b.n	8005478 <main+0x14>
	// Preparing variables

	// Initialize DC Motor Shield


	TLE94112EL_Enable(&TLE94112EL_0);
 800547a:	4827      	ldr	r0, [pc, #156]	; (8005518 <main+0xb4>)
 800547c:	f7fa ff5c 	bl	8000338 <TLE94112EL_Enable>
	// Initialize DC Motor Shield


	// Initialize the FreeRTOS
	xTaskCreate(FORWARD_Task, "FORWARD", 200, NULL, tskIDLE_PRIORITY, &FORWARD_Handle);
 8005480:	2300      	movs	r3, #0
 8005482:	9300      	str	r3, [sp, #0]
 8005484:	4b25      	ldr	r3, [pc, #148]	; (800551c <main+0xb8>)
 8005486:	9301      	str	r3, [sp, #4]
 8005488:	4825      	ldr	r0, [pc, #148]	; (8005520 <main+0xbc>)
 800548a:	4926      	ldr	r1, [pc, #152]	; (8005524 <main+0xc0>)
 800548c:	22c8      	movs	r2, #200	; 0xc8
 800548e:	2300      	movs	r3, #0
 8005490:	f7fe fa98 	bl	80039c4 <xTaskCreate>
	xTaskCreate(BACKWARD_Task, "BACKWARD", 200, NULL, tskIDLE_PRIORITY, &BACKWARD_Handle);
 8005494:	2300      	movs	r3, #0
 8005496:	9300      	str	r3, [sp, #0]
 8005498:	4b23      	ldr	r3, [pc, #140]	; (8005528 <main+0xc4>)
 800549a:	9301      	str	r3, [sp, #4]
 800549c:	4823      	ldr	r0, [pc, #140]	; (800552c <main+0xc8>)
 800549e:	4924      	ldr	r1, [pc, #144]	; (8005530 <main+0xcc>)
 80054a0:	22c8      	movs	r2, #200	; 0xc8
 80054a2:	2300      	movs	r3, #0
 80054a4:	f7fe fa8e 	bl	80039c4 <xTaskCreate>
	xTaskCreate(LEFT_Task, "LEFT", 200, NULL, tskIDLE_PRIORITY, &LEFT_Handle);
 80054a8:	2300      	movs	r3, #0
 80054aa:	9300      	str	r3, [sp, #0]
 80054ac:	4b21      	ldr	r3, [pc, #132]	; (8005534 <main+0xd0>)
 80054ae:	9301      	str	r3, [sp, #4]
 80054b0:	4821      	ldr	r0, [pc, #132]	; (8005538 <main+0xd4>)
 80054b2:	4922      	ldr	r1, [pc, #136]	; (800553c <main+0xd8>)
 80054b4:	22c8      	movs	r2, #200	; 0xc8
 80054b6:	2300      	movs	r3, #0
 80054b8:	f7fe fa84 	bl	80039c4 <xTaskCreate>
	xTaskCreate(RIGHT_Task, "RIGHT", 200, NULL, tskIDLE_PRIORITY, &RIGHT_Handle);
 80054bc:	2300      	movs	r3, #0
 80054be:	9300      	str	r3, [sp, #0]
 80054c0:	4b1f      	ldr	r3, [pc, #124]	; (8005540 <main+0xdc>)
 80054c2:	9301      	str	r3, [sp, #4]
 80054c4:	481f      	ldr	r0, [pc, #124]	; (8005544 <main+0xe0>)
 80054c6:	4920      	ldr	r1, [pc, #128]	; (8005548 <main+0xe4>)
 80054c8:	22c8      	movs	r2, #200	; 0xc8
 80054ca:	2300      	movs	r3, #0
 80054cc:	f7fe fa7a 	bl	80039c4 <xTaskCreate>

	FORWARD_interruptSemaphore = xSemaphoreCreateBinary();
 80054d0:	2001      	movs	r0, #1
 80054d2:	2100      	movs	r1, #0
 80054d4:	2203      	movs	r2, #3
 80054d6:	f7fd fbd9 	bl	8002c8c <xQueueGenericCreate>
 80054da:	4602      	mov	r2, r0
 80054dc:	4b1b      	ldr	r3, [pc, #108]	; (800554c <main+0xe8>)
 80054de:	601a      	str	r2, [r3, #0]
	BACKWARD_interruptSemaphore = xSemaphoreCreateBinary();
 80054e0:	2001      	movs	r0, #1
 80054e2:	2100      	movs	r1, #0
 80054e4:	2203      	movs	r2, #3
 80054e6:	f7fd fbd1 	bl	8002c8c <xQueueGenericCreate>
 80054ea:	4602      	mov	r2, r0
 80054ec:	4b18      	ldr	r3, [pc, #96]	; (8005550 <main+0xec>)
 80054ee:	601a      	str	r2, [r3, #0]
	LEFT_interruptSemaphore = xSemaphoreCreateBinary();
 80054f0:	2001      	movs	r0, #1
 80054f2:	2100      	movs	r1, #0
 80054f4:	2203      	movs	r2, #3
 80054f6:	f7fd fbc9 	bl	8002c8c <xQueueGenericCreate>
 80054fa:	4602      	mov	r2, r0
 80054fc:	4b15      	ldr	r3, [pc, #84]	; (8005554 <main+0xf0>)
 80054fe:	601a      	str	r2, [r3, #0]
	RIGHT_interruptSemaphore = xSemaphoreCreateBinary();
 8005500:	2001      	movs	r0, #1
 8005502:	2100      	movs	r1, #0
 8005504:	2203      	movs	r2, #3
 8005506:	f7fd fbc1 	bl	8002c8c <xQueueGenericCreate>
 800550a:	4602      	mov	r2, r0
 800550c:	4b12      	ldr	r3, [pc, #72]	; (8005558 <main+0xf4>)
 800550e:	601a      	str	r2, [r3, #0]
	vTaskStartScheduler();
 8005510:	f7fe fbac 	bl	8003c6c <vTaskStartScheduler>

  /* Placeholder for user application code. The while loop below can be replaced with user application code. */
  while(1U)
  {

  }
 8005514:	e7fe      	b.n	8005514 <main+0xb0>
 8005516:	bf00      	nop
 8005518:	080059e4 	.word	0x080059e4
 800551c:	1ffe8a1c 	.word	0x1ffe8a1c
 8005520:	080052b5 	.word	0x080052b5
 8005524:	080059f0 	.word	0x080059f0
 8005528:	1ffe8a20 	.word	0x1ffe8a20
 800552c:	08005321 	.word	0x08005321
 8005530:	080059f8 	.word	0x080059f8
 8005534:	1ffe8a24 	.word	0x1ffe8a24
 8005538:	0800538d 	.word	0x0800538d
 800553c:	08005a04 	.word	0x08005a04
 8005540:	1ffe8a28 	.word	0x1ffe8a28
 8005544:	080053f9 	.word	0x080053f9
 8005548:	08005a0c 	.word	0x08005a0c
 800554c:	1ffe8a84 	.word	0x1ffe8a84
 8005550:	1ffe8a74 	.word	0x1ffe8a74
 8005554:	1ffe8a78 	.word	0x1ffe8a78
 8005558:	1ffe8a7c 	.word	0x1ffe8a7c

0800555c <ERU0_0_IRQHandler>:
}

void FORWARD_IRQHandler(void){
 800555c:	b580      	push	{r7, lr}
 800555e:	af00      	add	r7, sp, #0

	xSemaphoreGiveFromISR(FORWARD_interruptSemaphore, NULL);
 8005560:	4b03      	ldr	r3, [pc, #12]	; (8005570 <ERU0_0_IRQHandler+0x14>)
 8005562:	681b      	ldr	r3, [r3, #0]
 8005564:	4618      	mov	r0, r3
 8005566:	2100      	movs	r1, #0
 8005568:	f7fd fdb6 	bl	80030d8 <xQueueGiveFromISR>
}
 800556c:	bd80      	pop	{r7, pc}
 800556e:	bf00      	nop
 8005570:	1ffe8a84 	.word	0x1ffe8a84

08005574 <ERU0_2_IRQHandler>:

void BACKWARD_IRQHandler(void){
 8005574:	b580      	push	{r7, lr}
 8005576:	af00      	add	r7, sp, #0

	xSemaphoreGiveFromISR(BACKWARD_interruptSemaphore, NULL);
 8005578:	4b03      	ldr	r3, [pc, #12]	; (8005588 <ERU0_2_IRQHandler+0x14>)
 800557a:	681b      	ldr	r3, [r3, #0]
 800557c:	4618      	mov	r0, r3
 800557e:	2100      	movs	r1, #0
 8005580:	f7fd fdaa 	bl	80030d8 <xQueueGiveFromISR>
}
 8005584:	bd80      	pop	{r7, pc}
 8005586:	bf00      	nop
 8005588:	1ffe8a74 	.word	0x1ffe8a74

0800558c <ERU0_3_IRQHandler>:

void LEFT_IRQHandler(void){
 800558c:	b580      	push	{r7, lr}
 800558e:	af00      	add	r7, sp, #0

	xSemaphoreGiveFromISR(LEFT_interruptSemaphore, NULL);
 8005590:	4b03      	ldr	r3, [pc, #12]	; (80055a0 <ERU0_3_IRQHandler+0x14>)
 8005592:	681b      	ldr	r3, [r3, #0]
 8005594:	4618      	mov	r0, r3
 8005596:	2100      	movs	r1, #0
 8005598:	f7fd fd9e 	bl	80030d8 <xQueueGiveFromISR>
}
 800559c:	bd80      	pop	{r7, pc}
 800559e:	bf00      	nop
 80055a0:	1ffe8a78 	.word	0x1ffe8a78

080055a4 <ERU1_0_IRQHandler>:

void RIGHT_IRQHandler(void){
 80055a4:	b580      	push	{r7, lr}
 80055a6:	af00      	add	r7, sp, #0

	xSemaphoreGiveFromISR(RIGHT_interruptSemaphore, NULL);
 80055a8:	4b03      	ldr	r3, [pc, #12]	; (80055b8 <ERU1_0_IRQHandler+0x14>)
 80055aa:	681b      	ldr	r3, [r3, #0]
 80055ac:	4618      	mov	r0, r3
 80055ae:	2100      	movs	r1, #0
 80055b0:	f7fd fd92 	bl	80030d8 <xQueueGiveFromISR>
}
 80055b4:	bd80      	pop	{r7, pc}
 80055b6:	bf00      	nop
 80055b8:	1ffe8a7c 	.word	0x1ffe8a7c

080055bc <tle94112el_enable>:


static void tle94112el_enable(void)

{
 80055bc:	b580      	push	{r7, lr}
 80055be:	af00      	add	r7, sp, #0

  DIGITAL_IO_SetOutputHigh(&TLE94112_ENABLE);
 80055c0:	4801      	ldr	r0, [pc, #4]	; (80055c8 <tle94112el_enable+0xc>)
 80055c2:	f7ff fe45 	bl	8005250 <DIGITAL_IO_SetOutputHigh>

}
 80055c6:	bd80      	pop	{r7, pc}
 80055c8:	080059a8 	.word	0x080059a8

080055cc <tle94112el_disable>:

static void tle94112el_disable(void)

{
 80055cc:	b580      	push	{r7, lr}
 80055ce:	af00      	add	r7, sp, #0

  DIGITAL_IO_SetOutputLow(&TLE94112_ENABLE);
 80055d0:	4801      	ldr	r0, [pc, #4]	; (80055d8 <tle94112el_disable+0xc>)
 80055d2:	f7ff fe4d 	bl	8005270 <DIGITAL_IO_SetOutputLow>

}
 80055d6:	bd80      	pop	{r7, pc}
 80055d8:	080059a8 	.word	0x080059a8

080055dc <tle94112el_spi_transfer>:

static int32_t tle94112el_spi_transfer(uint8_t *tx_data, uint8_t *rx_data)

{
 80055dc:	b580      	push	{r7, lr}
 80055de:	b082      	sub	sp, #8
 80055e0:	af00      	add	r7, sp, #0
 80055e2:	6078      	str	r0, [r7, #4]
 80055e4:	6039      	str	r1, [r7, #0]

  XMC_SPI_CH_SetBitOrderLsbFirst(SPI_MASTER_0.channel);
 80055e6:	4b0e      	ldr	r3, [pc, #56]	; (8005620 <tle94112el_spi_transfer+0x44>)
 80055e8:	681b      	ldr	r3, [r3, #0]
 80055ea:	4618      	mov	r0, r3
 80055ec:	f7ff fe20 	bl	8005230 <XMC_SPI_CH_SetBitOrderLsbFirst>



  DIGITAL_IO_SetOutputLow(&TLE94112_CS);
 80055f0:	480c      	ldr	r0, [pc, #48]	; (8005624 <tle94112el_spi_transfer+0x48>)
 80055f2:	f7ff fe3d 	bl	8005270 <DIGITAL_IO_SetOutputLow>



  SPI_MASTER_Transfer(&SPI_MASTER_0, tx_data, rx_data, 2);
 80055f6:	480a      	ldr	r0, [pc, #40]	; (8005620 <tle94112el_spi_transfer+0x44>)
 80055f8:	6879      	ldr	r1, [r7, #4]
 80055fa:	683a      	ldr	r2, [r7, #0]
 80055fc:	2302      	movs	r3, #2
 80055fe:	f7fc f9bf 	bl	8001980 <SPI_MASTER_Transfer>

  while(SPI_MASTER_0.runtime->rx_busy);
 8005602:	bf00      	nop
 8005604:	4b06      	ldr	r3, [pc, #24]	; (8005620 <tle94112el_spi_transfer+0x44>)
 8005606:	689b      	ldr	r3, [r3, #8]
 8005608:	7fdb      	ldrb	r3, [r3, #31]
 800560a:	b2db      	uxtb	r3, r3
 800560c:	2b00      	cmp	r3, #0
 800560e:	d1f9      	bne.n	8005604 <tle94112el_spi_transfer+0x28>



  DIGITAL_IO_SetOutputHigh(&TLE94112_CS);
 8005610:	4804      	ldr	r0, [pc, #16]	; (8005624 <tle94112el_spi_transfer+0x48>)
 8005612:	f7ff fe1d 	bl	8005250 <DIGITAL_IO_SetOutputHigh>



  return 0;
 8005616:	2300      	movs	r3, #0

}
 8005618:	4618      	mov	r0, r3
 800561a:	3708      	adds	r7, #8
 800561c:	46bd      	mov	sp, r7
 800561e:	bd80      	pop	{r7, pc}
 8005620:	1ffe8844 	.word	0x1ffe8844
 8005624:	080059bc 	.word	0x080059bc

08005628 <__errno>:
 8005628:	4b01      	ldr	r3, [pc, #4]	; (8005630 <__errno+0x8>)
 800562a:	6818      	ldr	r0, [r3, #0]
 800562c:	4770      	bx	lr
 800562e:	bf00      	nop
 8005630:	1ffe88b4 	.word	0x1ffe88b4

08005634 <__libc_init_array>:
 8005634:	b570      	push	{r4, r5, r6, lr}
 8005636:	4b0e      	ldr	r3, [pc, #56]	; (8005670 <__libc_init_array+0x3c>)
 8005638:	4c0e      	ldr	r4, [pc, #56]	; (8005674 <__libc_init_array+0x40>)
 800563a:	1ae4      	subs	r4, r4, r3
 800563c:	10a4      	asrs	r4, r4, #2
 800563e:	2500      	movs	r5, #0
 8005640:	461e      	mov	r6, r3
 8005642:	42a5      	cmp	r5, r4
 8005644:	d004      	beq.n	8005650 <__libc_init_array+0x1c>
 8005646:	f856 3025 	ldr.w	r3, [r6, r5, lsl #2]
 800564a:	4798      	blx	r3
 800564c:	3501      	adds	r5, #1
 800564e:	e7f8      	b.n	8005642 <__libc_init_array+0xe>
 8005650:	f7fb ffc2 	bl	80015d8 <_init>
 8005654:	4c08      	ldr	r4, [pc, #32]	; (8005678 <__libc_init_array+0x44>)
 8005656:	4b09      	ldr	r3, [pc, #36]	; (800567c <__libc_init_array+0x48>)
 8005658:	1ae4      	subs	r4, r4, r3
 800565a:	10a4      	asrs	r4, r4, #2
 800565c:	2500      	movs	r5, #0
 800565e:	461e      	mov	r6, r3
 8005660:	42a5      	cmp	r5, r4
 8005662:	d004      	beq.n	800566e <__libc_init_array+0x3a>
 8005664:	f856 3025 	ldr.w	r3, [r6, r5, lsl #2]
 8005668:	4798      	blx	r3
 800566a:	3501      	adds	r5, #1
 800566c:	e7f8      	b.n	8005660 <__libc_init_array+0x2c>
 800566e:	bd70      	pop	{r4, r5, r6, pc}
 8005670:	1ffe88b8 	.word	0x1ffe88b8
 8005674:	1ffe88b8 	.word	0x1ffe88b8
 8005678:	1ffe88b8 	.word	0x1ffe88b8
 800567c:	1ffe88b8 	.word	0x1ffe88b8

08005680 <malloc>:
 8005680:	4b02      	ldr	r3, [pc, #8]	; (800568c <malloc+0xc>)
 8005682:	4601      	mov	r1, r0
 8005684:	6818      	ldr	r0, [r3, #0]
 8005686:	f000 b863 	b.w	8005750 <_malloc_r>
 800568a:	bf00      	nop
 800568c:	1ffe88b4 	.word	0x1ffe88b4

08005690 <free>:
 8005690:	4b02      	ldr	r3, [pc, #8]	; (800569c <free+0xc>)
 8005692:	4601      	mov	r1, r0
 8005694:	6818      	ldr	r0, [r3, #0]
 8005696:	f000 b817 	b.w	80056c8 <_free_r>
 800569a:	bf00      	nop
 800569c:	1ffe88b4 	.word	0x1ffe88b4

080056a0 <memcpy>:
 80056a0:	b510      	push	{r4, lr}
 80056a2:	1e43      	subs	r3, r0, #1
 80056a4:	440a      	add	r2, r1
 80056a6:	4291      	cmp	r1, r2
 80056a8:	d004      	beq.n	80056b4 <memcpy+0x14>
 80056aa:	f811 4b01 	ldrb.w	r4, [r1], #1
 80056ae:	f803 4f01 	strb.w	r4, [r3, #1]!
 80056b2:	e7f8      	b.n	80056a6 <memcpy+0x6>
 80056b4:	bd10      	pop	{r4, pc}

080056b6 <memset>:
 80056b6:	4402      	add	r2, r0
 80056b8:	4603      	mov	r3, r0
 80056ba:	4293      	cmp	r3, r2
 80056bc:	d002      	beq.n	80056c4 <memset+0xe>
 80056be:	f803 1b01 	strb.w	r1, [r3], #1
 80056c2:	e7fa      	b.n	80056ba <memset+0x4>
 80056c4:	4770      	bx	lr
	...

080056c8 <_free_r>:
 80056c8:	b530      	push	{r4, r5, lr}
 80056ca:	2900      	cmp	r1, #0
 80056cc:	d03d      	beq.n	800574a <_free_r+0x82>
 80056ce:	f851 2c04 	ldr.w	r2, [r1, #-4]
 80056d2:	1f0b      	subs	r3, r1, #4
 80056d4:	491d      	ldr	r1, [pc, #116]	; (800574c <_free_r+0x84>)
 80056d6:	2a00      	cmp	r2, #0
 80056d8:	bfb8      	it	lt
 80056da:	189b      	addlt	r3, r3, r2
 80056dc:	680a      	ldr	r2, [r1, #0]
 80056de:	460c      	mov	r4, r1
 80056e0:	b912      	cbnz	r2, 80056e8 <_free_r+0x20>
 80056e2:	605a      	str	r2, [r3, #4]
 80056e4:	600b      	str	r3, [r1, #0]
 80056e6:	bd30      	pop	{r4, r5, pc}
 80056e8:	4293      	cmp	r3, r2
 80056ea:	d20d      	bcs.n	8005708 <_free_r+0x40>
 80056ec:	6819      	ldr	r1, [r3, #0]
 80056ee:	1858      	adds	r0, r3, r1
 80056f0:	4290      	cmp	r0, r2
 80056f2:	bf01      	itttt	eq
 80056f4:	585a      	ldreq	r2, [r3, r1]
 80056f6:	1852      	addeq	r2, r2, r1
 80056f8:	601a      	streq	r2, [r3, #0]
 80056fa:	6842      	ldreq	r2, [r0, #4]
 80056fc:	605a      	str	r2, [r3, #4]
 80056fe:	6023      	str	r3, [r4, #0]
 8005700:	bd30      	pop	{r4, r5, pc}
 8005702:	4299      	cmp	r1, r3
 8005704:	d803      	bhi.n	800570e <_free_r+0x46>
 8005706:	460a      	mov	r2, r1
 8005708:	6851      	ldr	r1, [r2, #4]
 800570a:	2900      	cmp	r1, #0
 800570c:	d1f9      	bne.n	8005702 <_free_r+0x3a>
 800570e:	6814      	ldr	r4, [r2, #0]
 8005710:	1915      	adds	r5, r2, r4
 8005712:	429d      	cmp	r5, r3
 8005714:	d10a      	bne.n	800572c <_free_r+0x64>
 8005716:	681b      	ldr	r3, [r3, #0]
 8005718:	4423      	add	r3, r4
 800571a:	18d0      	adds	r0, r2, r3
 800571c:	4288      	cmp	r0, r1
 800571e:	6013      	str	r3, [r2, #0]
 8005720:	d113      	bne.n	800574a <_free_r+0x82>
 8005722:	6808      	ldr	r0, [r1, #0]
 8005724:	4403      	add	r3, r0
 8005726:	6013      	str	r3, [r2, #0]
 8005728:	684b      	ldr	r3, [r1, #4]
 800572a:	e00d      	b.n	8005748 <_free_r+0x80>
 800572c:	d902      	bls.n	8005734 <_free_r+0x6c>
 800572e:	230c      	movs	r3, #12
 8005730:	6003      	str	r3, [r0, #0]
 8005732:	bd30      	pop	{r4, r5, pc}
 8005734:	681c      	ldr	r4, [r3, #0]
 8005736:	1918      	adds	r0, r3, r4
 8005738:	4288      	cmp	r0, r1
 800573a:	bf04      	itt	eq
 800573c:	6808      	ldreq	r0, [r1, #0]
 800573e:	6849      	ldreq	r1, [r1, #4]
 8005740:	6059      	str	r1, [r3, #4]
 8005742:	bf04      	itt	eq
 8005744:	1900      	addeq	r0, r0, r4
 8005746:	6018      	streq	r0, [r3, #0]
 8005748:	6053      	str	r3, [r2, #4]
 800574a:	bd30      	pop	{r4, r5, pc}
 800574c:	1ffe8a30 	.word	0x1ffe8a30

08005750 <_malloc_r>:
 8005750:	b570      	push	{r4, r5, r6, lr}
 8005752:	1ccc      	adds	r4, r1, #3
 8005754:	f024 0403 	bic.w	r4, r4, #3
 8005758:	3408      	adds	r4, #8
 800575a:	2c0c      	cmp	r4, #12
 800575c:	bf38      	it	cc
 800575e:	240c      	movcc	r4, #12
 8005760:	2c00      	cmp	r4, #0
 8005762:	4606      	mov	r6, r0
 8005764:	da03      	bge.n	800576e <_malloc_r+0x1e>
 8005766:	230c      	movs	r3, #12
 8005768:	6033      	str	r3, [r6, #0]
 800576a:	2000      	movs	r0, #0
 800576c:	bd70      	pop	{r4, r5, r6, pc}
 800576e:	428c      	cmp	r4, r1
 8005770:	d3f9      	bcc.n	8005766 <_malloc_r+0x16>
 8005772:	4a20      	ldr	r2, [pc, #128]	; (80057f4 <_malloc_r+0xa4>)
 8005774:	6813      	ldr	r3, [r2, #0]
 8005776:	4610      	mov	r0, r2
 8005778:	4619      	mov	r1, r3
 800577a:	b1a1      	cbz	r1, 80057a6 <_malloc_r+0x56>
 800577c:	680a      	ldr	r2, [r1, #0]
 800577e:	1b12      	subs	r2, r2, r4
 8005780:	d40e      	bmi.n	80057a0 <_malloc_r+0x50>
 8005782:	2a0b      	cmp	r2, #11
 8005784:	d903      	bls.n	800578e <_malloc_r+0x3e>
 8005786:	600a      	str	r2, [r1, #0]
 8005788:	188b      	adds	r3, r1, r2
 800578a:	508c      	str	r4, [r1, r2]
 800578c:	e01f      	b.n	80057ce <_malloc_r+0x7e>
 800578e:	428b      	cmp	r3, r1
 8005790:	bf0d      	iteet	eq
 8005792:	685a      	ldreq	r2, [r3, #4]
 8005794:	684a      	ldrne	r2, [r1, #4]
 8005796:	605a      	strne	r2, [r3, #4]
 8005798:	6002      	streq	r2, [r0, #0]
 800579a:	bf18      	it	ne
 800579c:	460b      	movne	r3, r1
 800579e:	e016      	b.n	80057ce <_malloc_r+0x7e>
 80057a0:	460b      	mov	r3, r1
 80057a2:	6849      	ldr	r1, [r1, #4]
 80057a4:	e7e9      	b.n	800577a <_malloc_r+0x2a>
 80057a6:	4d14      	ldr	r5, [pc, #80]	; (80057f8 <_malloc_r+0xa8>)
 80057a8:	682b      	ldr	r3, [r5, #0]
 80057aa:	b91b      	cbnz	r3, 80057b4 <_malloc_r+0x64>
 80057ac:	4630      	mov	r0, r6
 80057ae:	f000 f825 	bl	80057fc <_sbrk_r>
 80057b2:	6028      	str	r0, [r5, #0]
 80057b4:	4630      	mov	r0, r6
 80057b6:	4621      	mov	r1, r4
 80057b8:	f000 f820 	bl	80057fc <_sbrk_r>
 80057bc:	1c42      	adds	r2, r0, #1
 80057be:	4603      	mov	r3, r0
 80057c0:	d0d1      	beq.n	8005766 <_malloc_r+0x16>
 80057c2:	1cc5      	adds	r5, r0, #3
 80057c4:	f025 0503 	bic.w	r5, r5, #3
 80057c8:	4285      	cmp	r5, r0
 80057ca:	d10a      	bne.n	80057e2 <_malloc_r+0x92>
 80057cc:	601c      	str	r4, [r3, #0]
 80057ce:	f103 000b 	add.w	r0, r3, #11
 80057d2:	1d1a      	adds	r2, r3, #4
 80057d4:	f020 0007 	bic.w	r0, r0, #7
 80057d8:	1a82      	subs	r2, r0, r2
 80057da:	d00a      	beq.n	80057f2 <_malloc_r+0xa2>
 80057dc:	4251      	negs	r1, r2
 80057de:	5099      	str	r1, [r3, r2]
 80057e0:	bd70      	pop	{r4, r5, r6, pc}
 80057e2:	4630      	mov	r0, r6
 80057e4:	1ae9      	subs	r1, r5, r3
 80057e6:	f000 f809 	bl	80057fc <_sbrk_r>
 80057ea:	3001      	adds	r0, #1
 80057ec:	d0bb      	beq.n	8005766 <_malloc_r+0x16>
 80057ee:	462b      	mov	r3, r5
 80057f0:	e7ec      	b.n	80057cc <_malloc_r+0x7c>
 80057f2:	bd70      	pop	{r4, r5, r6, pc}
 80057f4:	1ffe8a30 	.word	0x1ffe8a30
 80057f8:	1ffe8a2c 	.word	0x1ffe8a2c

080057fc <_sbrk_r>:
 80057fc:	b538      	push	{r3, r4, r5, lr}
 80057fe:	4c06      	ldr	r4, [pc, #24]	; (8005818 <_sbrk_r+0x1c>)
 8005800:	2300      	movs	r3, #0
 8005802:	4605      	mov	r5, r0
 8005804:	4608      	mov	r0, r1
 8005806:	6023      	str	r3, [r4, #0]
 8005808:	f7fb feb2 	bl	8001570 <_sbrk>
 800580c:	1c43      	adds	r3, r0, #1
 800580e:	d102      	bne.n	8005816 <_sbrk_r+0x1a>
 8005810:	6823      	ldr	r3, [r4, #0]
 8005812:	b103      	cbz	r3, 8005816 <_sbrk_r+0x1a>
 8005814:	602b      	str	r3, [r5, #0]
 8005816:	bd38      	pop	{r3, r4, r5, pc}
 8005818:	1ffe8a88 	.word	0x1ffe8a88

0800581c <SPI_MASTER_0_MOSI>:
 800581c:	48028300 00000008                       ...H....

08005824 <SPI_MASTER_0_MISO>:
 8005824:	48028300 00000007                       ...H....

0800582c <SPI_MASTER_0_SCLKOUT>:
 800582c:	48028300 00000009                       ...H....

08005834 <SPI_MASTER_0_SCLKOUT_Config>:
 8005834:	00000088 00000001 00000001 00000000     ................
 8005844:	00000000                                ....

08005848 <SPI_MASTER_0_SS_0>:
 8005848:	48028500 00000006                       ...H....

08005850 <SPI_MASTER_0_SS_0_Config>:
 8005850:	00000088 00000001 00000001 00000000     ................
 8005860:	00080000                                ....

08005864 <SPI_MASTER_0_Config>:
 8005864:	1ffe8814 08002269 0800581c 1ffe8800     ....i"...X......
 8005874:	08005824 1ffe88bc 00000000 00000000     $X..............
	...
 800588c:	0800582c 08005834 08005848 00000000     ,X..4X..HX......
	...
 80058b4:	08005850 00000000 00000000 00000000     PX..............
	...
 80058e0:	00000404 00000000 01000000 00020302     ................

080058f0 <FORWARD_INTERRUPT>:
 80058f0:	50004800 48028000 00000018 00000000     .H.P...H........
 8005900:	00000000 0000000c 0000010d 02003f01     .............?..
 8005910:	00010400                                ....

08005914 <BACKWARD_INTERRUPT>:
 8005914:	50004800 48028000 00000018 00000000     .H.P...H........
	...
 800592c:	0000002d 00003f03 00010102              -....?......

08005938 <LEFT_INTERRUPT>:
 8005938:	50004800 48028000 00000018 00000000     .H.P...H........
 8005948:	00000000 00000008 0000013d 03003f04     ........=....?..
 8005958:	00010603                                ....

0800595c <RIGHT_INTERRUPT>:
 800595c:	40044000 48028000 00000018 00000000     .@.@...H........
	...
 8005974:	0000000d 03003f05 00010500 454c4449     .....?......IDLE
 8005984:	00000000 09632509 25097525 75250975     .....%c.%u.%u.%u
 8005994:	00000a0d 20726d54 00637653 51726d54     ....Tmr Svc.TmrQ
 80059a4:	00000000                                ....

080059a8 <TLE94112_ENABLE>:
 80059a8:	48028100 00000080 00000001 00000000     ...H............
 80059b8:	0000000a                                ....

080059bc <TLE94112_CS>:
 80059bc:	48028300 00000080 00000001 00000000     ...H............
 80059cc:	0000000a 01010230 00010000 00000000     ....0...........
 80059dc:	00010000 01010102                       ........

080059e4 <TLE94112EL_0>:
 80059e4:	080055bd 080055cd 080055dd 57524f46     .U...U...U..FORW
 80059f4:	00445241 4b434142 44524157 00000000     ARD.BACKWARD....
 8005a04:	5446454c 00000000 48474952 00000054     LEFT....RIGHT...
 8005a14:	00000043                                C...
